{
   <openssl junk>
   Memcheck:Cond
   obj:/lib/x86_64-linux-gnu/libssl.so.1.0.0
   obj:/lib/x86_64-linux-gnu/libssl.so.1.0.0
   obj:/lib/x86_64-linux-gnu/libssl.so.1.0.0
   fun:_ZN4adns10ssl_socket4readEij
   fun:_ZN4adns12http_request9read_lineERNS_10tcp_socketEj
   fun:_ZN4adns12http_request9from_wireERNS_10tcp_socketEjj
   fun:_ZN4adns18control_connection15handle_requestsEv
   fun:_ZN4adns18control_connection3runEv
   obj:/usr/lib/x86_64-linux-gnu/libstdc++.so.6.0.19
   fun:start_thread
   fun:clone
}
{
   <insert_a_suppression_name_here>
   Memcheck:Free
   fun:free
   fun:_ZSt8_DestroyINSt7__cxx1112basic_stringIcSt11char_traitsIcESaIcEEEEvPT_
   fun:_ZNSt12_Destroy_auxILb0EE9__destroyIPNSt7__cxx1112basic_stringIcSt11char_traitsIcESaIcEEEEEvT_S9_
   fun:_ZSt8_DestroyIPNSt7__cxx1112basic_stringIcSt11char_traitsIcESaIcEEEEvT_S7_
   fun:_ZSt8_DestroyIPNSt7__cxx1112basic_stringIcSt11char_traitsIcESaIcEEES5_EvT_S7_RSaIT0_E
   fun:_ZNSt6vectorINSt7__cxx1112basic_stringIcSt11char_traitsIcESaIcEEESaIS5_EED1Ev
   fun:_ZN5boost15program_options25basic_command_line_parserIcEC1EiPKPKc
   fun:_ZN5boost15program_options18parse_command_lineIcEENS0_20basic_parsed_optionsIT_EEiPKPKS3_RKNS0_19options_descriptionEiNS_9function1ISt4pairINSt7__cxx1112basic_stringIcSt11char_traitsIcESaIcEEESJ_ERKSJ_EE
   fun:main
}
{
   <insert_a_suppression_name_here>
   Memcheck:Free
   fun:free
   fun:_ZN9__gnu_cxx13new_allocatorINSt7__cxx1112basic_stringIcSt11char_traitsIcESaIcEEEE10deallocateEPS6_m
   fun:_ZNSt16allocator_traitsISaINSt7__cxx1112basic_stringIcSt11char_traitsIcESaIcEEEEE10deallocateERS6_PS5_m
   fun:_ZNSt12_Vector_baseINSt7__cxx1112basic_stringIcSt11char_traitsIcESaIcEEESaIS5_EE13_M_deallocateEPS5_m
   fun:_ZNSt12_Vector_baseINSt7__cxx1112basic_stringIcSt11char_traitsIcESaIcEEESaIS5_EED1Ev
   fun:_ZNSt6vectorINSt7__cxx1112basic_stringIcSt11char_traitsIcESaIcEEESaIS5_EED1Ev
   fun:_ZN5boost15program_options25basic_command_line_parserIcEC1EiPKPKc
   fun:_ZN5boost15program_options18parse_command_lineIcEENS0_20basic_parsed_optionsIT_EEiPKPKS3_RKNS0_19options_descriptionEiNS_9function1ISt4pairINSt7__cxx1112basic_stringIcSt11char_traitsIcESaIcEEESJ_ERKSJ_EE
   fun:main
}
{
   <insert_a_suppression_name_here>
   Memcheck:Free
   fun:free
   obj:/usr/lib/x86_64-linux-gnu/libboost_program_options.so.1.71.0
   fun:_ZN5boost15program_options6detail7cmdline3runEv
   fun:_ZN5boost15program_options25basic_command_line_parserIcE3runEv
   fun:_ZN5boost15program_options18parse_command_lineIcEENS0_20basic_parsed_optionsIT_EEiPKPKS3_RKNS0_19options_descriptionEiNS_9function1ISt4pairINSt7__cxx1112basic_stringIcSt11char_traitsIcESaIcEEESJ_ERKSJ_EE
   fun:main
}
{
   <insert_a_suppression_name_here>
   Memcheck:Free
   fun:free
   obj:/usr/lib/x86_64-linux-gnu/libboost_program_options.so.1.71.0
   fun:_ZN5boost15program_options6detail7cmdline3runEv
   fun:_ZN5boost15program_options25basic_command_line_parserIcE3runEv
   fun:_ZN5boost15program_options18parse_command_lineIcEENS0_20basic_parsed_optionsIT_EEiPKPKS3_RKNS0_19options_descriptionEiNS_9function1ISt4pairINSt7__cxx1112basic_stringIcSt11char_traitsIcESaIcEEESJ_ERKSJ_EE
   fun:main
}
{
   <insert_a_suppression_name_here>
   Memcheck:Free
   fun:free
   fun:_ZNSt6vectorINSt7__cxx1112basic_stringIcSt11char_traitsIcESaIcEEESaIS5_EE8_M_eraseEN9__gnu_cxx17__normal_iteratorIPS5_S7_EE
   fun:_ZN5boost15program_options6detail7cmdline17parse_long_optionERSt6vectorINSt7__cxx1112basic_stringIcSt11char_traitsIcESaIcEEESaIS9_EE
   obj:/usr/lib/x86_64-linux-gnu/libboost_program_options.so.1.71.0
   fun:_ZN5boost15program_options6detail7cmdline3runEv
   fun:_ZN5boost15program_options25basic_command_line_parserIcE3runEv
   fun:_ZN5boost15program_options18parse_command_lineIcEENS0_20basic_parsed_optionsIT_EEiPKPKS3_RKNS0_19options_descriptionEiNS_9function1ISt4pairINSt7__cxx1112basic_stringIcSt11char_traitsIcESaIcEEESJ_ERKSJ_EE
   fun:main
}
{
   <insert_a_suppression_name_here>
   Memcheck:Free
   fun:free
   obj:/usr/lib/x86_64-linux-gnu/libboost_program_options.so.1.71.0
   fun:_ZN5boost15program_options6detail7cmdline17parse_long_optionERSt6vectorINSt7__cxx1112basic_stringIcSt11char_traitsIcESaIcEEESaIS9_EE
   obj:/usr/lib/x86_64-linux-gnu/libboost_program_options.so.1.71.0
   fun:_ZN5boost15program_options6detail7cmdline3runEv
   fun:_ZN5boost15program_options25basic_command_line_parserIcE3runEv
   fun:_ZN5boost15program_options18parse_command_lineIcEENS0_20basic_parsed_optionsIT_EEiPKPKS3_RKNS0_19options_descriptionEiNS_9function1ISt4pairINSt7__cxx1112basic_stringIcSt11char_traitsIcESaIcEEESJ_ERKSJ_EE
   fun:main
}
{
   <insert_a_suppression_name_here>
   Memcheck:Free
   fun:free
   obj:/usr/lib/x86_64-linux-gnu/libboost_program_options.so.1.71.0
   fun:_ZN5boost15program_options6detail7cmdline17parse_long_optionERSt6vectorINSt7__cxx1112basic_stringIcSt11char_traitsIcESaIcEEESaIS9_EE
   obj:/usr/lib/x86_64-linux-gnu/libboost_program_options.so.1.71.0
   fun:_ZN5boost15program_options6detail7cmdline3runEv
   fun:_ZN5boost15program_options25basic_command_line_parserIcE3runEv
   fun:_ZN5boost15program_options18parse_command_lineIcEENS0_20basic_parsed_optionsIT_EEiPKPKS3_RKNS0_19options_descriptionEiNS_9function1ISt4pairINSt7__cxx1112basic_stringIcSt11char_traitsIcESaIcEEESJ_ERKSJ_EE
   fun:main
}
{
   <insert_a_suppression_name_here>
   Memcheck:Free
   fun:free
   obj:/usr/lib/x86_64-linux-gnu/libboost_program_options.so.1.71.0
   fun:_ZN5boost15program_options6detail7cmdline17parse_long_optionERSt6vectorINSt7__cxx1112basic_stringIcSt11char_traitsIcESaIcEEESaIS9_EE
   obj:/usr/lib/x86_64-linux-gnu/libboost_program_options.so.1.71.0
   fun:_ZN5boost15program_options6detail7cmdline3runEv
   fun:_ZN5boost15program_options25basic_command_line_parserIcE3runEv
   fun:_ZN5boost15program_options18parse_command_lineIcEENS0_20basic_parsed_optionsIT_EEiPKPKS3_RKNS0_19options_descriptionEiNS_9function1ISt4pairINSt7__cxx1112basic_stringIcSt11char_traitsIcESaIcEEESJ_ERKSJ_EE
   fun:main
}
{
   <insert_a_suppression_name_here>
   Memcheck:Free
   fun:free
   obj:/usr/lib/x86_64-linux-gnu/libboost_program_options.so.1.71.0
   fun:_ZN5boost15program_options6detail7cmdline17parse_long_optionERSt6vectorINSt7__cxx1112basic_stringIcSt11char_traitsIcESaIcEEESaIS9_EE
   obj:/usr/lib/x86_64-linux-gnu/libboost_program_options.so.1.71.0
   fun:_ZN5boost15program_options6detail7cmdline3runEv
   fun:_ZN5boost15program_options25basic_command_line_parserIcE3runEv
   fun:_ZN5boost15program_options18parse_command_lineIcEENS0_20basic_parsed_optionsIT_EEiPKPKS3_RKNS0_19options_descriptionEiNS_9function1ISt4pairINSt7__cxx1112basic_stringIcSt11char_traitsIcESaIcEEESJ_ERKSJ_EE
   fun:main
}
{
   <insert_a_suppression_name_here>
   Memcheck:Free
   fun:free
   fun:_ZN5boost15program_options6detail7cmdline17parse_long_optionERSt6vectorINSt7__cxx1112basic_stringIcSt11char_traitsIcESaIcEEESaIS9_EE
   obj:/usr/lib/x86_64-linux-gnu/libboost_program_options.so.1.71.0
   fun:_ZN5boost15program_options6detail7cmdline3runEv
   fun:_ZN5boost15program_options25basic_command_line_parserIcE3runEv
   fun:_ZN5boost15program_options18parse_command_lineIcEENS0_20basic_parsed_optionsIT_EEiPKPKS3_RKNS0_19options_descriptionEiNS_9function1ISt4pairINSt7__cxx1112basic_stringIcSt11char_traitsIcESaIcEEESJ_ERKSJ_EE
   fun:main
}
{
   <insert_a_suppression_name_here>
   Memcheck:Free
   fun:free
   fun:_ZNK5boost15program_options19options_description12find_nothrowERKNSt7__cxx1112basic_stringIcSt11char_traitsIcESaIcEEEbbb
   fun:_ZN5boost15program_options6detail7cmdline13finish_optionERNS0_12basic_optionIcEERSt6vectorINSt7__cxx1112basic_stringIcSt11char_traitsIcESaIcEEESaISC_EERKS6_INS_9function1IS6_IS4_SaIS4_EESF_EESaISJ_EE
   fun:_ZN5boost15program_options6detail7cmdline3runEv
   fun:_ZN5boost15program_options25basic_command_line_parserIcE3runEv
   fun:_ZN5boost15program_options18parse_command_lineIcEENS0_20basic_parsed_optionsIT_EEiPKPKS3_RKNS0_19options_descriptionEiNS_9function1ISt4pairINSt7__cxx1112basic_stringIcSt11char_traitsIcESaIcEEESJ_ERKSJ_EE
   fun:main
}
{
   <insert_a_suppression_name_here>
   Memcheck:Free
   fun:free
   fun:_ZN5boost15program_options6detail7cmdline13finish_optionERNS0_12basic_optionIcEERSt6vectorINSt7__cxx1112basic_stringIcSt11char_traitsIcESaIcEEESaISC_EERKS6_INS_9function1IS6_IS4_SaIS4_EESF_EESaISJ_EE
   fun:_ZN5boost15program_options6detail7cmdline3runEv
   fun:_ZN5boost15program_options25basic_command_line_parserIcE3runEv
   fun:_ZN5boost15program_options18parse_command_lineIcEENS0_20basic_parsed_optionsIT_EEiPKPKS3_RKNS0_19options_descriptionEiNS_9function1ISt4pairINSt7__cxx1112basic_stringIcSt11char_traitsIcESaIcEEESJ_ERKSJ_EE
   fun:main
}
{
   <insert_a_suppression_name_here>
   Memcheck:Free
   fun:free
   fun:_ZN5boost15program_options6detail7cmdline3runEv
   fun:_ZN5boost15program_options25basic_command_line_parserIcE3runEv
   fun:_ZN5boost15program_options18parse_command_lineIcEENS0_20basic_parsed_optionsIT_EEiPKPKS3_RKNS0_19options_descriptionEiNS_9function1ISt4pairINSt7__cxx1112basic_stringIcSt11char_traitsIcESaIcEEESJ_ERKSJ_EE
   fun:main
}
{
   <insert_a_suppression_name_here>
   Memcheck:Free
   fun:free
   fun:_ZN5boost15program_options6detail7cmdline3runEv
   fun:_ZN5boost15program_options25basic_command_line_parserIcE3runEv
   fun:_ZN5boost15program_options18parse_command_lineIcEENS0_20basic_parsed_optionsIT_EEiPKPKS3_RKNS0_19options_descriptionEiNS_9function1ISt4pairINSt7__cxx1112basic_stringIcSt11char_traitsIcESaIcEEESJ_ERKSJ_EE
   fun:main
}
{
   <insert_a_suppression_name_here>
   Memcheck:Free
   fun:free
   fun:_ZN5boost15program_options6detail7cmdline3runEv
   fun:_ZN5boost15program_options25basic_command_line_parserIcE3runEv
   fun:_ZN5boost15program_options18parse_command_lineIcEENS0_20basic_parsed_optionsIT_EEiPKPKS3_RKNS0_19options_descriptionEiNS_9function1ISt4pairINSt7__cxx1112basic_stringIcSt11char_traitsIcESaIcEEESJ_ERKSJ_EE
   fun:main
}
{
   <insert_a_suppression_name_here>
   Memcheck:Free
   fun:free
   fun:_ZN5boost15program_options6detail7cmdline3runEv
   fun:_ZN5boost15program_options25basic_command_line_parserIcE3runEv
   fun:_ZN5boost15program_options18parse_command_lineIcEENS0_20basic_parsed_optionsIT_EEiPKPKS3_RKNS0_19options_descriptionEiNS_9function1ISt4pairINSt7__cxx1112basic_stringIcSt11char_traitsIcESaIcEEESJ_ERKSJ_EE
   fun:main
}
{
   <insert_a_suppression_name_here>
   Memcheck:Free
   fun:free
   fun:_ZN5boost15program_options6detail7cmdline3runEv
   fun:_ZN5boost15program_options25basic_command_line_parserIcE3runEv
   fun:_ZN5boost15program_options18parse_command_lineIcEENS0_20basic_parsed_optionsIT_EEiPKPKS3_RKNS0_19options_descriptionEiNS_9function1ISt4pairINSt7__cxx1112basic_stringIcSt11char_traitsIcESaIcEEESJ_ERKSJ_EE
   fun:main
}
{
   <insert_a_suppression_name_here>
   Memcheck:Free
   fun:free
   fun:_ZNK5boost15program_options19options_description12find_nothrowERKNSt7__cxx1112basic_stringIcSt11char_traitsIcESaIcEEEbbb
   fun:_ZN5boost15program_options6detail7cmdline3runEv
   fun:_ZN5boost15program_options25basic_command_line_parserIcE3runEv
   fun:_ZN5boost15program_options18parse_command_lineIcEENS0_20basic_parsed_optionsIT_EEiPKPKS3_RKNS0_19options_descriptionEiNS_9function1ISt4pairINSt7__cxx1112basic_stringIcSt11char_traitsIcESaIcEEESJ_ERKSJ_EE
   fun:main
}
{
   <insert_a_suppression_name_here>
   Memcheck:Free
   fun:free
   obj:/usr/lib/x86_64-linux-gnu/libboost_program_options.so.1.71.0
   fun:_ZN5boost15program_options6detail7cmdline3runEv
   fun:_ZN5boost15program_options25basic_command_line_parserIcE3runEv
   fun:_ZN5boost15program_options18parse_command_lineIcEENS0_20basic_parsed_optionsIT_EEiPKPKS3_RKNS0_19options_descriptionEiNS_9function1ISt4pairINSt7__cxx1112basic_stringIcSt11char_traitsIcESaIcEEESJ_ERKSJ_EE
   fun:main
}
{
   <insert_a_suppression_name_here>
   Memcheck:Free
   fun:free
   obj:/usr/lib/x86_64-linux-gnu/libboost_program_options.so.1.71.0
   fun:_ZN5boost15program_options6detail7cmdline3runEv
   fun:_ZN5boost15program_options25basic_command_line_parserIcE3runEv
   fun:_ZN5boost15program_options18parse_command_lineIcEENS0_20basic_parsed_optionsIT_EEiPKPKS3_RKNS0_19options_descriptionEiNS_9function1ISt4pairINSt7__cxx1112basic_stringIcSt11char_traitsIcESaIcEEESJ_ERKSJ_EE
   fun:main
}
{
   <insert_a_suppression_name_here>
   Memcheck:Free
   fun:free
   obj:/usr/lib/x86_64-linux-gnu/libboost_program_options.so.1.71.0
   fun:_ZN5boost15program_options6detail7cmdline3runEv
   fun:_ZN5boost15program_options25basic_command_line_parserIcE3runEv
   fun:_ZN5boost15program_options18parse_command_lineIcEENS0_20basic_parsed_optionsIT_EEiPKPKS3_RKNS0_19options_descriptionEiNS_9function1ISt4pairINSt7__cxx1112basic_stringIcSt11char_traitsIcESaIcEEESJ_ERKSJ_EE
   fun:main
}
{
   <insert_a_suppression_name_here>
   Memcheck:Free
   fun:free
   obj:/usr/lib/x86_64-linux-gnu/libboost_program_options.so.1.71.0
   fun:_ZN5boost15program_options6detail7cmdline3runEv
   fun:_ZN5boost15program_options25basic_command_line_parserIcE3runEv
   fun:_ZN5boost15program_options18parse_command_lineIcEENS0_20basic_parsed_optionsIT_EEiPKPKS3_RKNS0_19options_descriptionEiNS_9function1ISt4pairINSt7__cxx1112basic_stringIcSt11char_traitsIcESaIcEEESJ_ERKSJ_EE
   fun:main
}
{
   <insert_a_suppression_name_here>
   Memcheck:Free
   fun:free
   fun:_ZN5boost15program_options6detail7cmdline3runEv
   fun:_ZN5boost15program_options25basic_command_line_parserIcE3runEv
   fun:_ZN5boost15program_options18parse_command_lineIcEENS0_20basic_parsed_optionsIT_EEiPKPKS3_RKNS0_19options_descriptionEiNS_9function1ISt4pairINSt7__cxx1112basic_stringIcSt11char_traitsIcESaIcEEESJ_ERKSJ_EE
   fun:main
}
{
   <insert_a_suppression_name_here>
   Memcheck:Free
   fun:free
   fun:_ZN5boost15program_options6detail7cmdline3runEv
   fun:_ZN5boost15program_options25basic_command_line_parserIcE3runEv
   fun:_ZN5boost15program_options18parse_command_lineIcEENS0_20basic_parsed_optionsIT_EEiPKPKS3_RKNS0_19options_descriptionEiNS_9function1ISt4pairINSt7__cxx1112basic_stringIcSt11char_traitsIcESaIcEEESJ_ERKSJ_EE
   fun:main
}
{
   <insert_a_suppression_name_here>
   Memcheck:Free
   fun:free
   fun:_ZN9__gnu_cxx13new_allocatorIN5boost15program_options12basic_optionIcEEE10deallocateEPS4_m
   fun:_ZNSt16allocator_traitsISaIN5boost15program_options12basic_optionIcEEEE10deallocateERS4_PS3_m
   fun:_ZNSt12_Vector_baseIN5boost15program_options12basic_optionIcEESaIS3_EE13_M_deallocateEPS3_m
   fun:_ZNSt12_Vector_baseIN5boost15program_options12basic_optionIcEESaIS3_EED1Ev
   fun:_ZNSt6vectorIN5boost15program_options12basic_optionIcEESaIS3_EED1Ev
   fun:_ZN5boost15program_options20basic_parsed_optionsIcED1Ev
   fun:_ZN5boost15program_options25basic_command_line_parserIcE3runEv
   fun:_ZN5boost15program_options18parse_command_lineIcEENS0_20basic_parsed_optionsIT_EEiPKPKS3_RKNS0_19options_descriptionEiNS_9function1ISt4pairINSt7__cxx1112basic_stringIcSt11char_traitsIcESaIcEEESJ_ERKSJ_EE
   fun:main
}
{
   <insert_a_suppression_name_here>
   Memcheck:Free
   fun:free
   fun:_ZN5boost15program_options5storeERKNS0_20basic_parsed_optionsIcEERNS0_13variables_mapEb
   fun:main
}
{
   <insert_a_suppression_name_here>
   Memcheck:Free
   fun:free
   fun:_ZNK5boost15program_options19options_description12find_nothrowERKNSt7__cxx1112basic_stringIcSt11char_traitsIcESaIcEEEbbb
   fun:_ZNK5boost15program_options19options_description4findERKNSt7__cxx1112basic_stringIcSt11char_traitsIcESaIcEEEbbb
   fun:_ZN5boost15program_options5storeERKNS0_20basic_parsed_optionsIcEERNS0_13variables_mapEb
   fun:main
}
{
   <insert_a_suppression_name_here>
   Memcheck:Free
   fun:free
   obj:/usr/lib/x86_64-linux-gnu/libboost_program_options.so.1.71.0
   fun:_ZN5boost15program_options19options_description3addENS_10shared_ptrINS0_18option_descriptionEEE
   fun:_ZN5boost15program_options29options_description_easy_initclEPKcPKNS0_14value_semanticES3_
   fun:main
}
{
   <insert_a_suppression_name_here>
   Memcheck:Free
   fun:free
   fun:_ZSt8_DestroyINSt7__cxx1112basic_stringIcSt11char_traitsIcESaIcEEEEvPT_
   fun:_ZNSt12_Destroy_auxILb0EE9__destroyIPNSt7__cxx1112basic_stringIcSt11char_traitsIcESaIcEEEEEvT_S9_
   fun:_ZSt8_DestroyIPNSt7__cxx1112basic_stringIcSt11char_traitsIcESaIcEEEEvT_S7_
   fun:_ZSt8_DestroyIPNSt7__cxx1112basic_stringIcSt11char_traitsIcESaIcEEES5_EvT_S7_RSaIT0_E
   fun:_ZNSt6vectorINSt7__cxx1112basic_stringIcSt11char_traitsIcESaIcEEESaIS5_EED1Ev
   fun:_ZN5boost15program_options25basic_command_line_parserIcEC1EiPKPKc
   fun:_ZN5boost15program_options18parse_command_lineIcEENS0_20basic_parsed_optionsIT_EEiPKPKS3_RKNS0_19options_descriptionEiNS_9function1ISt4pairINSt7__cxx1112basic_stringIcSt11char_traitsIcESaIcEEESJ_ERKSJ_EE
   fun:main
}
{
   <insert_a_suppression_name_here>
   Memcheck:Free
   fun:free
   fun:_ZN9__gnu_cxx13new_allocatorINSt7__cxx1112basic_stringIcSt11char_traitsIcESaIcEEEE10deallocateEPS6_m
   fun:_ZNSt16allocator_traitsISaINSt7__cxx1112basic_stringIcSt11char_traitsIcESaIcEEEEE10deallocateERS6_PS5_m
   fun:_ZNSt12_Vector_baseINSt7__cxx1112basic_stringIcSt11char_traitsIcESaIcEEESaIS5_EE13_M_deallocateEPS5_m
   fun:_ZNSt12_Vector_baseINSt7__cxx1112basic_stringIcSt11char_traitsIcESaIcEEESaIS5_EED1Ev
   fun:_ZNSt6vectorINSt7__cxx1112basic_stringIcSt11char_traitsIcESaIcEEESaIS5_EED1Ev
   fun:_ZN5boost15program_options25basic_command_line_parserIcEC1EiPKPKc
   fun:_ZN5boost15program_options18parse_command_lineIcEENS0_20basic_parsed_optionsIT_EEiPKPKS3_RKNS0_19options_descriptionEiNS_9function1ISt4pairINSt7__cxx1112basic_stringIcSt11char_traitsIcESaIcEEESJ_ERKSJ_EE
   fun:main
}
{
   <insert_a_suppression_name_here>
   Memcheck:Free
   fun:free
   obj:/usr/lib/x86_64-linux-gnu/libboost_program_options.so.1.71.0
   fun:_ZN5boost15program_options6detail7cmdline3runEv
   fun:_ZN5boost15program_options25basic_command_line_parserIcE3runEv
   fun:_ZN5boost15program_options18parse_command_lineIcEENS0_20basic_parsed_optionsIT_EEiPKPKS3_RKNS0_19options_descriptionEiNS_9function1ISt4pairINSt7__cxx1112basic_stringIcSt11char_traitsIcESaIcEEESJ_ERKSJ_EE
   fun:main
}
{
   <insert_a_suppression_name_here>
   Memcheck:Free
   fun:free
   obj:/usr/lib/x86_64-linux-gnu/libboost_program_options.so.1.71.0
   fun:_ZN5boost15program_options6detail7cmdline3runEv
   fun:_ZN5boost15program_options25basic_command_line_parserIcE3runEv
   fun:_ZN5boost15program_options18parse_command_lineIcEENS0_20basic_parsed_optionsIT_EEiPKPKS3_RKNS0_19options_descriptionEiNS_9function1ISt4pairINSt7__cxx1112basic_stringIcSt11char_traitsIcESaIcEEESJ_ERKSJ_EE
   fun:main
}
{
   <insert_a_suppression_name_here>
   Memcheck:Free
   fun:free
   fun:_ZNSt6vectorINSt7__cxx1112basic_stringIcSt11char_traitsIcESaIcEEESaIS5_EE8_M_eraseEN9__gnu_cxx17__normal_iteratorIPS5_S7_EE
   fun:_ZN5boost15program_options6detail7cmdline17parse_long_optionERSt6vectorINSt7__cxx1112basic_stringIcSt11char_traitsIcESaIcEEESaIS9_EE
   obj:/usr/lib/x86_64-linux-gnu/libboost_program_options.so.1.71.0
   fun:_ZN5boost15program_options6detail7cmdline3runEv
   fun:_ZN5boost15program_options25basic_command_line_parserIcE3runEv
   fun:_ZN5boost15program_options18parse_command_lineIcEENS0_20basic_parsed_optionsIT_EEiPKPKS3_RKNS0_19options_descriptionEiNS_9function1ISt4pairINSt7__cxx1112basic_stringIcSt11char_traitsIcESaIcEEESJ_ERKSJ_EE
   fun:main
}
{
   <insert_a_suppression_name_here>
   Memcheck:Free
   fun:free
   obj:/usr/lib/x86_64-linux-gnu/libboost_program_options.so.1.71.0
   fun:_ZN5boost15program_options6detail7cmdline17parse_long_optionERSt6vectorINSt7__cxx1112basic_stringIcSt11char_traitsIcESaIcEEESaIS9_EE
   obj:/usr/lib/x86_64-linux-gnu/libboost_program_options.so.1.71.0
   fun:_ZN5boost15program_options6detail7cmdline3runEv
   fun:_ZN5boost15program_options25basic_command_line_parserIcE3runEv
   fun:_ZN5boost15program_options18parse_command_lineIcEENS0_20basic_parsed_optionsIT_EEiPKPKS3_RKNS0_19options_descriptionEiNS_9function1ISt4pairINSt7__cxx1112basic_stringIcSt11char_traitsIcESaIcEEESJ_ERKSJ_EE
   fun:main
}
{
   <insert_a_suppression_name_here>
   Memcheck:Free
   fun:free
   obj:/usr/lib/x86_64-linux-gnu/libboost_program_options.so.1.71.0
   fun:_ZN5boost15program_options6detail7cmdline17parse_long_optionERSt6vectorINSt7__cxx1112basic_stringIcSt11char_traitsIcESaIcEEESaIS9_EE
   obj:/usr/lib/x86_64-linux-gnu/libboost_program_options.so.1.71.0
   fun:_ZN5boost15program_options6detail7cmdline3runEv
   fun:_ZN5boost15program_options25basic_command_line_parserIcE3runEv
   fun:_ZN5boost15program_options18parse_command_lineIcEENS0_20basic_parsed_optionsIT_EEiPKPKS3_RKNS0_19options_descriptionEiNS_9function1ISt4pairINSt7__cxx1112basic_stringIcSt11char_traitsIcESaIcEEESJ_ERKSJ_EE
   fun:main
}
{
   <insert_a_suppression_name_here>
   Memcheck:Free
   fun:free
   obj:/usr/lib/x86_64-linux-gnu/libboost_program_options.so.1.71.0
   fun:_ZN5boost15program_options6detail7cmdline17parse_long_optionERSt6vectorINSt7__cxx1112basic_stringIcSt11char_traitsIcESaIcEEESaIS9_EE
   obj:/usr/lib/x86_64-linux-gnu/libboost_program_options.so.1.71.0
   fun:_ZN5boost15program_options6detail7cmdline3runEv
   fun:_ZN5boost15program_options25basic_command_line_parserIcE3runEv
   fun:_ZN5boost15program_options18parse_command_lineIcEENS0_20basic_parsed_optionsIT_EEiPKPKS3_RKNS0_19options_descriptionEiNS_9function1ISt4pairINSt7__cxx1112basic_stringIcSt11char_traitsIcESaIcEEESJ_ERKSJ_EE
   fun:main
}
{
   <insert_a_suppression_name_here>
   Memcheck:Free
   fun:free
   obj:/usr/lib/x86_64-linux-gnu/libboost_program_options.so.1.71.0
   fun:_ZN5boost15program_options6detail7cmdline17parse_long_optionERSt6vectorINSt7__cxx1112basic_stringIcSt11char_traitsIcESaIcEEESaIS9_EE
   obj:/usr/lib/x86_64-linux-gnu/libboost_program_options.so.1.71.0
   fun:_ZN5boost15program_options6detail7cmdline3runEv
   fun:_ZN5boost15program_options25basic_command_line_parserIcE3runEv
   fun:_ZN5boost15program_options18parse_command_lineIcEENS0_20basic_parsed_optionsIT_EEiPKPKS3_RKNS0_19options_descriptionEiNS_9function1ISt4pairINSt7__cxx1112basic_stringIcSt11char_traitsIcESaIcEEESJ_ERKSJ_EE
   fun:main
}
{
   <insert_a_suppression_name_here>
   Memcheck:Free
   fun:free
   fun:_ZN5boost15program_options6detail7cmdline17parse_long_optionERSt6vectorINSt7__cxx1112basic_stringIcSt11char_traitsIcESaIcEEESaIS9_EE
   obj:/usr/lib/x86_64-linux-gnu/libboost_program_options.so.1.71.0
   fun:_ZN5boost15program_options6detail7cmdline3runEv
   fun:_ZN5boost15program_options25basic_command_line_parserIcE3runEv
   fun:_ZN5boost15program_options18parse_command_lineIcEENS0_20basic_parsed_optionsIT_EEiPKPKS3_RKNS0_19options_descriptionEiNS_9function1ISt4pairINSt7__cxx1112basic_stringIcSt11char_traitsIcESaIcEEESJ_ERKSJ_EE
   fun:main
}
{
   <insert_a_suppression_name_here>
   Memcheck:Free
   fun:free
   fun:_ZNK5boost15program_options19options_description12find_nothrowERKNSt7__cxx1112basic_stringIcSt11char_traitsIcESaIcEEEbbb
   fun:_ZN5boost15program_options6detail7cmdline13finish_optionERNS0_12basic_optionIcEERSt6vectorINSt7__cxx1112basic_stringIcSt11char_traitsIcESaIcEEESaISC_EERKS6_INS_9function1IS6_IS4_SaIS4_EESF_EESaISJ_EE
   fun:_ZN5boost15program_options6detail7cmdline3runEv
   fun:_ZN5boost15program_options25basic_command_line_parserIcE3runEv
   fun:_ZN5boost15program_options18parse_command_lineIcEENS0_20basic_parsed_optionsIT_EEiPKPKS3_RKNS0_19options_descriptionEiNS_9function1ISt4pairINSt7__cxx1112basic_stringIcSt11char_traitsIcESaIcEEESJ_ERKSJ_EE
   fun:main
}
{
   <insert_a_suppression_name_here>
   Memcheck:Free
   fun:free
   fun:_ZN5boost15program_options6detail7cmdline13finish_optionERNS0_12basic_optionIcEERSt6vectorINSt7__cxx1112basic_stringIcSt11char_traitsIcESaIcEEESaISC_EERKS6_INS_9function1IS6_IS4_SaIS4_EESF_EESaISJ_EE
   fun:_ZN5boost15program_options6detail7cmdline3runEv
   fun:_ZN5boost15program_options25basic_command_line_parserIcE3runEv
   fun:_ZN5boost15program_options18parse_command_lineIcEENS0_20basic_parsed_optionsIT_EEiPKPKS3_RKNS0_19options_descriptionEiNS_9function1ISt4pairINSt7__cxx1112basic_stringIcSt11char_traitsIcESaIcEEESJ_ERKSJ_EE
   fun:main
}
{
   <insert_a_suppression_name_here>
   Memcheck:Free
   fun:free
   fun:_ZN5boost15program_options6detail7cmdline3runEv
   fun:_ZN5boost15program_options25basic_command_line_parserIcE3runEv
   fun:_ZN5boost15program_options18parse_command_lineIcEENS0_20basic_parsed_optionsIT_EEiPKPKS3_RKNS0_19options_descriptionEiNS_9function1ISt4pairINSt7__cxx1112basic_stringIcSt11char_traitsIcESaIcEEESJ_ERKSJ_EE
   fun:main
}
{
   <insert_a_suppression_name_here>
   Memcheck:Free
   fun:free
   obj:/usr/lib/x86_64-linux-gnu/libboost_log.so.1.71.0
   fun:_ZN5boost3log11v2_mt_posix7sources3aux14global_storage11get_or_initENS_9typeindex14stl_type_indexEPFNS_10shared_ptrINS3_18logger_holder_baseEEEvE
   fun:_ZN5boost3log11v2_mt_posix7trivial6logger3getEv
   fun:_ZN4adns6config8init_logENSt7__cxx1112basic_stringIcSt11char_traitsIcESaIcEEE
   fun:main
}
{
   <insert_a_suppression_name_here>
   Memcheck:Free
   fun:free
   fun:_ZNSt7__cxx1112basic_stringIcSt11char_traitsIcESaIcEE9_M_mutateEmmPKcm
   fun:_ZNSt7__cxx1112basic_stringIcSt11char_traitsIcESaIcEE9_M_appendEPKcm
   fun:_ZN5boost3log11v2_mt_posix3aux22basic_ostringstreambufIcSt11char_traitsIcESaIcEE6appendEPKcm
   fun:_ZN5boost3log11v2_mt_posix24basic_formatting_ostreamIcSt11char_traitsIcESaIcEE15formatted_writeEPKcl
   fun:_ZN5boost3log11v2_mt_posixlsIcSt11char_traitsIcESaIcEEENS1_3aux30enable_if_streamable_char_typeIT_RNS1_24basic_formatting_ostreamIcS4_S5_EEE4typeESB_RNSt7__cxx1112basic_stringIS8_T0_T1_EE
   fun:_ZN5boost3log11v2_mt_posixlsINS1_20basic_record_ostreamIcEENSt7__cxx1112basic_stringIcSt11char_traitsIcESaIcEEEEENS1_3aux38enable_record_ostream_generic_operatorIT_T0_Lb0ERSD_E4typeESF_RSE_
   fun:_ZN4adns6config8init_logENSt7__cxx1112basic_stringIcSt11char_traitsIcESaIcEEE
   fun:main
}
{
   <insert_a_suppression_name_here>
   Memcheck:Free
   fun:free
   fun:_ZN5boost3log11v2_mt_posix4core16push_record_moveERNS1_6recordE
   fun:push_record
   fun:_ZN5boost3log11v2_mt_posix7sources12basic_loggerIcNS2_18severity_logger_mtINS1_7trivial14severity_levelEEENS2_18multi_thread_modelINS1_3aux14light_rw_mutexEEEE20push_record_unlockedEONS1_6recordE
   fun:_ZN5boost3log11v2_mt_posix7sources22basic_composite_loggerIcNS2_18severity_logger_mtINS1_7trivial14severity_levelEEENS2_18multi_thread_modelINS1_3aux14light_rw_mutexEEENS2_8featuresIJNS2_8severityIS6_EEEEEE11push_recordEONS1_6recordE
   fun:_ZN5boost3log11v2_mt_posix3aux11record_pumpINS1_7sources18severity_logger_mtINS1_7trivial14severity_levelEEEED1Ev
   fun:_ZN4adns6config8init_logENSt7__cxx1112basic_stringIcSt11char_traitsIcESaIcEEE
   fun:main
}
{
   <insert_a_suppression_name_here>
   Memcheck:Free
   fun:free
   obj:/usr/lib/x86_64-linux-gnu/libboost_log.so.1.71.0
   fun:_ZN5boost3log11v2_mt_posix19attribute_value_setD1Ev
   fun:_ZN5boost3log11v2_mt_posix11record_view11public_data7destroyEPKS3_
   fun:_ZN5boost3log11v2_mt_posix4core16push_record_moveERNS1_6recordE
   fun:push_record
   fun:_ZN5boost3log11v2_mt_posix7sources12basic_loggerIcNS2_18severity_logger_mtINS1_7trivial14severity_levelEEENS2_18multi_thread_modelINS1_3aux14light_rw_mutexEEEE20push_record_unlockedEONS1_6recordE
   fun:_ZN5boost3log11v2_mt_posix7sources22basic_composite_loggerIcNS2_18severity_logger_mtINS1_7trivial14severity_levelEEENS2_18multi_thread_modelINS1_3aux14light_rw_mutexEEENS2_8featuresIJNS2_8severityIS6_EEEEEE11push_recordEONS1_6recordE
   fun:_ZN5boost3log11v2_mt_posix3aux11record_pumpINS1_7sources18severity_logger_mtINS1_7trivial14severity_levelEEEED1Ev
   fun:_ZN4adns6config8init_logENSt7__cxx1112basic_stringIcSt11char_traitsIcESaIcEEE
   fun:main
}
{
   <insert_a_suppression_name_here>
   Memcheck:Free
   fun:free
   fun:_ZN9__gnu_cxx13new_allocatorIN5boost11multi_index6detail20sequenced_index_nodeINS3_18ordered_index_nodeINS3_19null_augment_policyENS3_15index_node_baseISt4pairIKNSt7__cxx1112basic_stringIcSt11char_traitsIcESaIcEEENS1_13property_tree11basic_ptreeISE_SE_St4lessISE_EEEESaISL_EEEEEEEE10deallocateEPSP_m
   fun:_ZNSt16allocator_traitsISaIN5boost11multi_index6detail20sequenced_index_nodeINS2_18ordered_index_nodeINS2_19null_augment_policyENS2_15index_node_baseISt4pairIKNSt7__cxx1112basic_stringIcSt11char_traitsIcESaIcEEENS0_13property_tree11basic_ptreeISD_SD_St4lessISD_EEEESaISK_EEEEEEEEE10deallocateERSP_PSO_m
   fun:_ZN5boost11multi_index21multi_index_containerISt4pairIKNSt7__cxx1112basic_stringIcSt11char_traitsIcESaIcEEENS_13property_tree11basic_ptreeIS8_S8_St4lessIS8_EEEENS0_10indexed_byINS0_9sequencedINS0_3tagIN4mpl_2naESK_SK_SK_SK_SK_SK_SK_SK_SK_SK_SK_SK_SK_SK_SK_SK_SK_SK_SK_EEEENS0_18ordered_non_uniqueINSI_INSE_4subs7by_nameESK_SK_SK_SK_SK_SK_SK_SK_SK_SK_SK_SK_SK_SK_SK_SK_SK_SK_SK_EENS0_6memberISF_S9_XadL_ZNSF_5firstEEEEESD_EESK_SK_SK_SK_SK_SK_SK_SK_SK_SK_SK_SK_SK_SK_SK_SK_SK_SK_EESaISF_EE15deallocate_nodeEPNS0_6detail20sequenced_index_nodeINSX_18ordered_index_nodeINSX_19null_augment_policyENSX_15index_node_baseISF_SV_EEEEEE
   fun:_ZN5boost11multi_index6detail13header_holderIPNS1_20sequenced_index_nodeINS1_18ordered_index_nodeINS1_19null_augment_policyENS1_15index_node_baseISt4pairIKNSt7__cxx1112basic_stringIcSt11char_traitsIcESaIcEEENS_13property_tree11basic_ptreeISD_SD_St4lessISD_EEEESaISK_EEEEEEENS0_21multi_index_containerISK_NS0_10indexed_byINS0_9sequencedINS0_3tagIN4mpl_2naESV_SV_SV_SV_SV_SV_SV_SV_SV_SV_SV_SV_SV_SV_SV_SV_SV_SV_SV_EEEENS0_18ordered_non_uniqueINST_INSJ_4subs7by_nameESV_SV_SV_SV_SV_SV_SV_SV_SV_SV_SV_SV_SV_SV_SV_SV_SV_SV_SV_EENS0_6memberISK_SE_XadL_ZNSK_5firstEEEEESI_EESV_SV_SV_SV_SV_SV_SV_SV_SV_SV_SV_SV_SV_SV_SV_SV_SV_SV_EESL_EEED1Ev
   fun:_ZN5boost11multi_index21multi_index_containerISt4pairIKNSt7__cxx1112basic_stringIcSt11char_traitsIcESaIcEEENS_13property_tree11basic_ptreeIS8_S8_St4lessIS8_EEEENS0_10indexed_byINS0_9sequencedINS0_3tagIN4mpl_2naESK_SK_SK_SK_SK_SK_SK_SK_SK_SK_SK_SK_SK_SK_SK_SK_SK_SK_SK_EEEENS0_18ordered_non_uniqueINSI_INSE_4subs7by_nameESK_SK_SK_SK_SK_SK_SK_SK_SK_SK_SK_SK_SK_SK_SK_SK_SK_SK_SK_EENS0_6memberISF_S9_XadL_ZNSF_5firstEEEEESD_EESK_SK_SK_SK_SK_SK_SK_SK_SK_SK_SK_SK_SK_SK_SK_SK_SK_SK_EESaISF_EED1Ev
   fun:_ZN5boost13property_tree11basic_ptreeINSt7__cxx1112basic_stringIcSt11char_traitsIcESaIcEEES7_St4lessIS7_EED1Ev
   fun:_ZNSt4pairIKNSt7__cxx1112basic_stringIcSt11char_traitsIcESaIcEEEN5boost13property_tree11basic_ptreeIS5_S5_St4lessIS5_EEEED1Ev
   fun:_ZN5boost13property_tree11json_parser6detail18standard_callbacksINS0_11basic_ptreeINSt7__cxx1112basic_stringIcSt11char_traitsIcESaIcEEESA_St4lessISA_EEEE8new_treeEv
   fun:_ZN5boost13property_tree11json_parser6detail18standard_callbacksINS0_11basic_ptreeINSt7__cxx1112basic_stringIcSt11char_traitsIcESaIcEEESA_St4lessISA_EEEE15on_begin_objectEv
   fun:_ZN5boost13property_tree11json_parser6detail6parserINS2_18standard_callbacksINS0_11basic_ptreeINSt7__cxx1112basic_stringIcSt11char_traitsIcESaIcEEESB_St4lessISB_EEEEENS2_8encodingIcEESt19istreambuf_iteratorIcS9_ESJ_E12parse_objectEv
   fun:_ZN5boost13property_tree11json_parser6detail6parserINS2_18standard_callbacksINS0_11basic_ptreeINSt7__cxx1112basic_stringIcSt11char_traitsIcESaIcEEESB_St4lessISB_EEEEENS2_8encodingIcEESt19istreambuf_iteratorIcS9_ESJ_E11parse_valueEv
}
{
   <insert_a_suppression_name_here>
   Memcheck:Free
   fun:free
   fun:_ZN5boost13property_tree11basic_ptreeINSt7__cxx1112basic_stringIcSt11char_traitsIcESaIcEEES7_St4lessIS7_EED1Ev
   fun:_ZNSt4pairIKNSt7__cxx1112basic_stringIcSt11char_traitsIcESaIcEEEN5boost13property_tree11basic_ptreeIS5_S5_St4lessIS5_EEEED1Ev
   fun:_ZN5boost13property_tree11json_parser6detail18standard_callbacksINS0_11basic_ptreeINSt7__cxx1112basic_stringIcSt11char_traitsIcESaIcEEESA_St4lessISA_EEEE8new_treeEv
   fun:_ZN5boost13property_tree11json_parser6detail18standard_callbacksINS0_11basic_ptreeINSt7__cxx1112basic_stringIcSt11char_traitsIcESaIcEEESA_St4lessISA_EEEE15on_begin_objectEv
   fun:_ZN5boost13property_tree11json_parser6detail6parserINS2_18standard_callbacksINS0_11basic_ptreeINSt7__cxx1112basic_stringIcSt11char_traitsIcESaIcEEESB_St4lessISB_EEEEENS2_8encodingIcEESt19istreambuf_iteratorIcS9_ESJ_E12parse_objectEv
   fun:_ZN5boost13property_tree11json_parser6detail6parserINS2_18standard_callbacksINS0_11basic_ptreeINSt7__cxx1112basic_stringIcSt11char_traitsIcESaIcEEESB_St4lessISB_EEEEENS2_8encodingIcEESt19istreambuf_iteratorIcS9_ESJ_E11parse_valueEv
   fun:_ZN5boost13property_tree11json_parser6detail6parserINS2_18standard_callbacksINS0_11basic_ptreeINSt7__cxx1112basic_stringIcSt11char_traitsIcESaIcEEESB_St4lessISB_EEEEENS2_8encodingIcEESt19istreambuf_iteratorIcS9_ESJ_E12parse_objectEv
   fun:_ZN5boost13property_tree11json_parser6detail6parserINS2_18standard_callbacksINS0_11basic_ptreeINSt7__cxx1112basic_stringIcSt11char_traitsIcESaIcEEESB_St4lessISB_EEEEENS2_8encodingIcEESt19istreambuf_iteratorIcS9_ESJ_E11parse_valueEv
   fun:_ZN5boost13property_tree11json_parser6detail18read_json_internalISt19istreambuf_iteratorIcSt11char_traitsIcEES7_NS2_8encodingIcEENS2_18standard_callbacksINS0_11basic_ptreeINSt7__cxx1112basic_stringIcS6_SaIcEEESF_St4lessISF_EEEEEEEvT_T0_RT1_RT2_RKSF_
   fun:_ZN5boost13property_tree11json_parser6detail18read_json_internalINS0_11basic_ptreeINSt7__cxx1112basic_stringIcSt11char_traitsIcESaIcEEESA_St4lessISA_EEEEEvRSt13basic_istreamINT_8key_type10value_typeES7_ISH_EERSF_RKSA_
   fun:_ZN5boost13property_tree11json_parser9read_jsonINS0_11basic_ptreeINSt7__cxx1112basic_stringIcSt11char_traitsIcESaIcEEES9_St4lessIS9_EEEEEvRKS9_RT_RKSt6locale
}
{
   <insert_a_suppression_name_here>
   Memcheck:Free
   fun:free
   fun:_ZN5boost13property_tree11basic_ptreeINSt7__cxx1112basic_stringIcSt11char_traitsIcESaIcEEES7_St4lessIS7_EED1Ev
   fun:_ZNSt4pairINSt7__cxx1112basic_stringIcSt11char_traitsIcESaIcEEEN5boost13property_tree11basic_ptreeIS5_S5_St4lessIS5_EEEED1Ev
   fun:_ZN5boost13property_tree11json_parser6detail18standard_callbacksINS0_11basic_ptreeINSt7__cxx1112basic_stringIcSt11char_traitsIcESaIcEEESA_St4lessISA_EEEE8new_treeEv
   fun:_ZN5boost13property_tree11json_parser6detail18standard_callbacksINS0_11basic_ptreeINSt7__cxx1112basic_stringIcSt11char_traitsIcESaIcEEESA_St4lessISA_EEEE15on_begin_objectEv
   fun:_ZN5boost13property_tree11json_parser6detail6parserINS2_18standard_callbacksINS0_11basic_ptreeINSt7__cxx1112basic_stringIcSt11char_traitsIcESaIcEEESB_St4lessISB_EEEEENS2_8encodingIcEESt19istreambuf_iteratorIcS9_ESJ_E12parse_objectEv
   fun:_ZN5boost13property_tree11json_parser6detail6parserINS2_18standard_callbacksINS0_11basic_ptreeINSt7__cxx1112basic_stringIcSt11char_traitsIcESaIcEEESB_St4lessISB_EEEEENS2_8encodingIcEESt19istreambuf_iteratorIcS9_ESJ_E11parse_valueEv
   fun:_ZN5boost13property_tree11json_parser6detail6parserINS2_18standard_callbacksINS0_11basic_ptreeINSt7__cxx1112basic_stringIcSt11char_traitsIcESaIcEEESB_St4lessISB_EEEEENS2_8encodingIcEESt19istreambuf_iteratorIcS9_ESJ_E12parse_objectEv
   fun:_ZN5boost13property_tree11json_parser6detail6parserINS2_18standard_callbacksINS0_11basic_ptreeINSt7__cxx1112basic_stringIcSt11char_traitsIcESaIcEEESB_St4lessISB_EEEEENS2_8encodingIcEESt19istreambuf_iteratorIcS9_ESJ_E11parse_valueEv
   fun:_ZN5boost13property_tree11json_parser6detail18read_json_internalISt19istreambuf_iteratorIcSt11char_traitsIcEES7_NS2_8encodingIcEENS2_18standard_callbacksINS0_11basic_ptreeINSt7__cxx1112basic_stringIcS6_SaIcEEESF_St4lessISF_EEEEEEEvT_T0_RT1_RT2_RKSF_
   fun:_ZN5boost13property_tree11json_parser6detail18read_json_internalINS0_11basic_ptreeINSt7__cxx1112basic_stringIcSt11char_traitsIcESaIcEEESA_St4lessISA_EEEEEvRSt13basic_istreamINT_8key_type10value_typeES7_ISH_EERSF_RKSA_
   fun:_ZN5boost13property_tree11json_parser9read_jsonINS0_11basic_ptreeINSt7__cxx1112basic_stringIcSt11char_traitsIcESaIcEEES9_St4lessIS9_EEEEEvRKS9_RT_RKSt6locale
}
{
   <insert_a_suppression_name_here>
   Memcheck:Free
   fun:free
   fun:_ZN5boost13property_tree11basic_ptreeINSt7__cxx1112basic_stringIcSt11char_traitsIcESaIcEEES7_St4lessIS7_EED1Ev
   fun:_ZN5boost13property_tree11json_parser6detail18standard_callbacksINS0_11basic_ptreeINSt7__cxx1112basic_stringIcSt11char_traitsIcESaIcEEESA_St4lessISA_EEEE8new_treeEv
   fun:_ZN5boost13property_tree11json_parser6detail18standard_callbacksINS0_11basic_ptreeINSt7__cxx1112basic_stringIcSt11char_traitsIcESaIcEEESA_St4lessISA_EEEE15on_begin_objectEv
   fun:_ZN5boost13property_tree11json_parser6detail6parserINS2_18standard_callbacksINS0_11basic_ptreeINSt7__cxx1112basic_stringIcSt11char_traitsIcESaIcEEESB_St4lessISB_EEEEENS2_8encodingIcEESt19istreambuf_iteratorIcS9_ESJ_E12parse_objectEv
   fun:_ZN5boost13property_tree11json_parser6detail6parserINS2_18standard_callbacksINS0_11basic_ptreeINSt7__cxx1112basic_stringIcSt11char_traitsIcESaIcEEESB_St4lessISB_EEEEENS2_8encodingIcEESt19istreambuf_iteratorIcS9_ESJ_E11parse_valueEv
   fun:_ZN5boost13property_tree11json_parser6detail6parserINS2_18standard_callbacksINS0_11basic_ptreeINSt7__cxx1112basic_stringIcSt11char_traitsIcESaIcEEESB_St4lessISB_EEEEENS2_8encodingIcEESt19istreambuf_iteratorIcS9_ESJ_E12parse_objectEv
   fun:_ZN5boost13property_tree11json_parser6detail6parserINS2_18standard_callbacksINS0_11basic_ptreeINSt7__cxx1112basic_stringIcSt11char_traitsIcESaIcEEESB_St4lessISB_EEEEENS2_8encodingIcEESt19istreambuf_iteratorIcS9_ESJ_E11parse_valueEv
   fun:_ZN5boost13property_tree11json_parser6detail18read_json_internalISt19istreambuf_iteratorIcSt11char_traitsIcEES7_NS2_8encodingIcEENS2_18standard_callbacksINS0_11basic_ptreeINSt7__cxx1112basic_stringIcS6_SaIcEEESF_St4lessISF_EEEEEEEvT_T0_RT1_RT2_RKSF_
   fun:_ZN5boost13property_tree11json_parser6detail18read_json_internalINS0_11basic_ptreeINSt7__cxx1112basic_stringIcSt11char_traitsIcESaIcEEESA_St4lessISA_EEEEEvRSt13basic_istreamINT_8key_type10value_typeES7_ISH_EERSF_RKSA_
   fun:_ZN5boost13property_tree11json_parser9read_jsonINS0_11basic_ptreeINSt7__cxx1112basic_stringIcSt11char_traitsIcESaIcEEES9_St4lessIS9_EEEEEvRKS9_RT_RKSt6locale
   fun:_ZN4adns6config8init_logENSt7__cxx1112basic_stringIcSt11char_traitsIcESaIcEEE
}
{
   <insert_a_suppression_name_here>
   Memcheck:Free
   fun:free
   fun:_ZN9__gnu_cxx13new_allocatorIN5boost13property_tree11json_parser6detail18standard_callbacksINS2_11basic_ptreeINSt7__cxx1112basic_stringIcSt11char_traitsIcESaIcEEESC_St4lessISC_EEEE5layerEE10deallocateEPSH_m
   fun:_ZNSt16allocator_traitsISaIN5boost13property_tree11json_parser6detail18standard_callbacksINS1_11basic_ptreeINSt7__cxx1112basic_stringIcSt11char_traitsIcESaIcEEESB_St4lessISB_EEEE5layerEEE10deallocateERSH_PSG_m
   fun:_ZNSt12_Vector_baseIN5boost13property_tree11json_parser6detail18standard_callbacksINS1_11basic_ptreeINSt7__cxx1112basic_stringIcSt11char_traitsIcESaIcEEESB_St4lessISB_EEEE5layerESaISG_EE13_M_deallocateEPSG_m
   fun:_ZNSt6vectorIN5boost13property_tree11json_parser6detail18standard_callbacksINS1_11basic_ptreeINSt7__cxx1112basic_stringIcSt11char_traitsIcESaIcEEESB_St4lessISB_EEEE5layerESaISG_EE17_M_realloc_insertIJRKSG_EEEvN9__gnu_cxx17__normal_iteratorIPSG_SI_EEDpOT_
   fun:_ZNSt6vectorIN5boost13property_tree11json_parser6detail18standard_callbacksINS1_11basic_ptreeINSt7__cxx1112basic_stringIcSt11char_traitsIcESaIcEEESB_St4lessISB_EEEE5layerESaISG_EE9push_backERKSG_
   fun:_ZN5boost13property_tree11json_parser6detail18standard_callbacksINS0_11basic_ptreeINSt7__cxx1112basic_stringIcSt11char_traitsIcESaIcEEESA_St4lessISA_EEEE8new_treeEv
   fun:_ZN5boost13property_tree11json_parser6detail18standard_callbacksINS0_11basic_ptreeINSt7__cxx1112basic_stringIcSt11char_traitsIcESaIcEEESA_St4lessISA_EEEE15on_begin_objectEv
   fun:_ZN5boost13property_tree11json_parser6detail6parserINS2_18standard_callbacksINS0_11basic_ptreeINSt7__cxx1112basic_stringIcSt11char_traitsIcESaIcEEESB_St4lessISB_EEEEENS2_8encodingIcEESt19istreambuf_iteratorIcS9_ESJ_E12parse_objectEv
   fun:_ZN5boost13property_tree11json_parser6detail6parserINS2_18standard_callbacksINS0_11basic_ptreeINSt7__cxx1112basic_stringIcSt11char_traitsIcESaIcEEESB_St4lessISB_EEEEENS2_8encodingIcEESt19istreambuf_iteratorIcS9_ESJ_E11parse_valueEv
   fun:_ZN5boost13property_tree11json_parser6detail6parserINS2_18standard_callbacksINS0_11basic_ptreeINSt7__cxx1112basic_stringIcSt11char_traitsIcESaIcEEESB_St4lessISB_EEEEENS2_8encodingIcEESt19istreambuf_iteratorIcS9_ESJ_E12parse_objectEv
   fun:_ZN5boost13property_tree11json_parser6detail6parserINS2_18standard_callbacksINS0_11basic_ptreeINSt7__cxx1112basic_stringIcSt11char_traitsIcESaIcEEESB_St4lessISB_EEEEENS2_8encodingIcEESt19istreambuf_iteratorIcS9_ESJ_E11parse_valueEv
}
{
   <insert_a_suppression_name_here>
   Memcheck:Free
   fun:free
   fun:_ZNSt4pairIKNSt7__cxx1112basic_stringIcSt11char_traitsIcESaIcEEEN5boost13property_tree11basic_ptreeIS5_S5_St4lessIS5_EEEED1Ev
   fun:_ZN5boost13property_tree11json_parser6detail18standard_callbacksINS0_11basic_ptreeINSt7__cxx1112basic_stringIcSt11char_traitsIcESaIcEEESA_St4lessISA_EEEE8new_treeEv
   fun:_ZN5boost13property_tree11json_parser6detail18standard_callbacksINS0_11basic_ptreeINSt7__cxx1112basic_stringIcSt11char_traitsIcESaIcEEESA_St4lessISA_EEEE9new_valueEv
   fun:_ZN5boost13property_tree11json_parser6detail18standard_callbacksINS0_11basic_ptreeINSt7__cxx1112basic_stringIcSt11char_traitsIcESaIcEEESA_St4lessISA_EEEE15on_begin_stringEv
   fun:_ZN5boost13property_tree11json_parser6detail6parserINS2_18standard_callbacksINS0_11basic_ptreeINSt7__cxx1112basic_stringIcSt11char_traitsIcESaIcEEESB_St4lessISB_EEEEENS2_8encodingIcEESt19istreambuf_iteratorIcS9_ESJ_E12parse_stringEv
   fun:_ZN5boost13property_tree11json_parser6detail6parserINS2_18standard_callbacksINS0_11basic_ptreeINSt7__cxx1112basic_stringIcSt11char_traitsIcESaIcEEESB_St4lessISB_EEEEENS2_8encodingIcEESt19istreambuf_iteratorIcS9_ESJ_E11parse_valueEv
   fun:_ZN5boost13property_tree11json_parser6detail6parserINS2_18standard_callbacksINS0_11basic_ptreeINSt7__cxx1112basic_stringIcSt11char_traitsIcESaIcEEESB_St4lessISB_EEEEENS2_8encodingIcEESt19istreambuf_iteratorIcS9_ESJ_E12parse_objectEv
   fun:_ZN5boost13property_tree11json_parser6detail6parserINS2_18standard_callbacksINS0_11basic_ptreeINSt7__cxx1112basic_stringIcSt11char_traitsIcESaIcEEESB_St4lessISB_EEEEENS2_8encodingIcEESt19istreambuf_iteratorIcS9_ESJ_E11parse_valueEv
   fun:_ZN5boost13property_tree11json_parser6detail6parserINS2_18standard_callbacksINS0_11basic_ptreeINSt7__cxx1112basic_stringIcSt11char_traitsIcESaIcEEESB_St4lessISB_EEEEENS2_8encodingIcEESt19istreambuf_iteratorIcS9_ESJ_E12parse_objectEv
   fun:_ZN5boost13property_tree11json_parser6detail6parserINS2_18standard_callbacksINS0_11basic_ptreeINSt7__cxx1112basic_stringIcSt11char_traitsIcESaIcEEESB_St4lessISB_EEEEENS2_8encodingIcEESt19istreambuf_iteratorIcS9_ESJ_E11parse_valueEv
   fun:_ZN5boost13property_tree11json_parser6detail18read_json_internalISt19istreambuf_iteratorIcSt11char_traitsIcEES7_NS2_8encodingIcEENS2_18standard_callbacksINS0_11basic_ptreeINSt7__cxx1112basic_stringIcS6_SaIcEEESF_St4lessISF_EEEEEEEvT_T0_RT1_RT2_RKSF_
}
{
   <insert_a_suppression_name_here>
   Memcheck:Free
   fun:free
   fun:_ZN5boost13property_tree11basic_ptreeINSt7__cxx1112basic_stringIcSt11char_traitsIcESaIcEEES7_St4lessIS7_EED1Ev
   fun:_ZN5boost13property_tree11json_parser6detail18standard_callbacksINS0_11basic_ptreeINSt7__cxx1112basic_stringIcSt11char_traitsIcESaIcEEESA_St4lessISA_EEEE8new_treeEv
   fun:_ZN5boost13property_tree11json_parser6detail18standard_callbacksINS0_11basic_ptreeINSt7__cxx1112basic_stringIcSt11char_traitsIcESaIcEEESA_St4lessISA_EEEE9new_valueEv
   fun:_ZN5boost13property_tree11json_parser6detail18standard_callbacksINS0_11basic_ptreeINSt7__cxx1112basic_stringIcSt11char_traitsIcESaIcEEESA_St4lessISA_EEEE15on_begin_stringEv
   fun:_ZN5boost13property_tree11json_parser6detail6parserINS2_18standard_callbacksINS0_11basic_ptreeINSt7__cxx1112basic_stringIcSt11char_traitsIcESaIcEEESB_St4lessISB_EEEEENS2_8encodingIcEESt19istreambuf_iteratorIcS9_ESJ_E12parse_stringEv
   fun:_ZN5boost13property_tree11json_parser6detail6parserINS2_18standard_callbacksINS0_11basic_ptreeINSt7__cxx1112basic_stringIcSt11char_traitsIcESaIcEEESB_St4lessISB_EEEEENS2_8encodingIcEESt19istreambuf_iteratorIcS9_ESJ_E11parse_valueEv
   fun:_ZN5boost13property_tree11json_parser6detail6parserINS2_18standard_callbacksINS0_11basic_ptreeINSt7__cxx1112basic_stringIcSt11char_traitsIcESaIcEEESB_St4lessISB_EEEEENS2_8encodingIcEESt19istreambuf_iteratorIcS9_ESJ_E12parse_objectEv
   fun:_ZN5boost13property_tree11json_parser6detail6parserINS2_18standard_callbacksINS0_11basic_ptreeINSt7__cxx1112basic_stringIcSt11char_traitsIcESaIcEEESB_St4lessISB_EEEEENS2_8encodingIcEESt19istreambuf_iteratorIcS9_ESJ_E11parse_valueEv
   fun:_ZN5boost13property_tree11json_parser6detail6parserINS2_18standard_callbacksINS0_11basic_ptreeINSt7__cxx1112basic_stringIcSt11char_traitsIcESaIcEEESB_St4lessISB_EEEEENS2_8encodingIcEESt19istreambuf_iteratorIcS9_ESJ_E12parse_objectEv
   fun:_ZN5boost13property_tree11json_parser6detail6parserINS2_18standard_callbacksINS0_11basic_ptreeINSt7__cxx1112basic_stringIcSt11char_traitsIcESaIcEEESB_St4lessISB_EEEEENS2_8encodingIcEESt19istreambuf_iteratorIcS9_ESJ_E11parse_valueEv
   fun:_ZN5boost13property_tree11json_parser6detail18read_json_internalISt19istreambuf_iteratorIcSt11char_traitsIcEES7_NS2_8encodingIcEENS2_18standard_callbacksINS0_11basic_ptreeINSt7__cxx1112basic_stringIcS6_SaIcEEESF_St4lessISF_EEEEEEEvT_T0_RT1_RT2_RKSF_
}
{
   <insert_a_suppression_name_here>
   Memcheck:Free
   fun:free
   fun:_ZNSt7__cxx1112basic_stringIcSt11char_traitsIcESaIcEE9_M_mutateEmmPKcm
   fun:_ZNSt7__cxx1112basic_stringIcSt11char_traitsIcESaIcEEpLEc
   fun:_ZN5boost13property_tree11json_parser6detail18standard_callbacksINS0_11basic_ptreeINSt7__cxx1112basic_stringIcSt11char_traitsIcESaIcEEESA_St4lessISA_EEEE12on_code_unitEc
   fun:_ZNK5boost4_mfi3mf1IvNS_13property_tree11json_parser6detail18standard_callbacksINS2_11basic_ptreeINSt7__cxx1112basic_stringIcSt11char_traitsIcESaIcEEESC_St4lessISC_EEEEEcEclERSG_c
   fun:_ZN5boost3_bi5list2INS_17reference_wrapperINS_13property_tree11json_parser6detail18standard_callbacksINS3_11basic_ptreeINSt7__cxx1112basic_stringIcSt11char_traitsIcESaIcEEESD_St4lessISD_EEEEEEENS_3argILi1EEEEclINS_4_mfi3mf1IvSH_cEENS0_7rrlist1IRhEEEEvNS0_4typeIvEERT_RT0_i
   fun:_ZN5boost3_bi6bind_tIvNS_4_mfi3mf1IvNS_13property_tree11json_parser6detail18standard_callbacksINS4_11basic_ptreeINSt7__cxx1112basic_stringIcSt11char_traitsIcESaIcEEESE_St4lessISE_EEEEEcEENS0_5list2INS_17reference_wrapperISI_EENS_3argILi1EEEEEEclIRhEEvOT_
   fun:_ZNK5boost13property_tree11json_parser6detail18utf8_utf8_encoding19transcode_codepointISt19istreambuf_iteratorIcSt11char_traitsIcEES8_NS_3_bi6bind_tIvNS_4_mfi3mf1IvNS2_18standard_callbacksINS0_11basic_ptreeINSt7__cxx1112basic_stringIcS7_SaIcEEESI_St4lessISI_EEEEEcEENS9_5list2INS_17reference_wrapperISM_EENS_3argILi1EEEEEEENSA_IvNSC_IvNS2_6parserISM_NS2_8encodingIcEES8_S8_EEPKcEENSO_INS9_5valueIPSY_EENS12_IS10_EEEEEEEEvRT_T0_T1_T2_
   fun:_ZN5boost13property_tree11json_parser6detail23string_callback_adapterINS2_18standard_callbacksINS0_11basic_ptreeINSt7__cxx1112basic_stringIcSt11char_traitsIcESaIcEEESB_St4lessISB_EEEEENS2_8encodingIcEESt19istreambuf_iteratorIcS9_ESt18input_iterator_tagE17process_codepointISJ_NS_3_bi6bind_tIvNS_4_mfi3mf1IvNS2_6parserISF_SH_SJ_SJ_EEPKcEENSN_5list2INSN_5valueIPSS_EENSX_ISU_EEEEEEEEvT_T0_
   fun:_ZN5boost13property_tree11json_parser6detail6parserINS2_18standard_callbacksINS0_11basic_ptreeINSt7__cxx1112basic_stringIcSt11char_traitsIcESaIcEEESB_St4lessISB_EEEEENS2_8encodingIcEESt19istreambuf_iteratorIcS9_ESJ_E12parse_stringEv
   fun:_ZN5boost13property_tree11json_parser6detail6parserINS2_18standard_callbacksINS0_11basic_ptreeINSt7__cxx1112basic_stringIcSt11char_traitsIcESaIcEEESB_St4lessISB_EEEEENS2_8encodingIcEESt19istreambuf_iteratorIcS9_ESJ_E11parse_valueEv
   fun:_ZN5boost13property_tree11json_parser6detail6parserINS2_18standard_callbacksINS0_11basic_ptreeINSt7__cxx1112basic_stringIcSt11char_traitsIcESaIcEEESB_St4lessISB_EEEEENS2_8encodingIcEESt19istreambuf_iteratorIcS9_ESJ_E12parse_objectEv
}
{
   <insert_a_suppression_name_here>
   Memcheck:Free
   fun:free
   fun:_ZN5boost13property_tree11json_parser6detail6sourceINS2_8encodingIcEESt19istreambuf_iteratorIcSt11char_traitsIcEES9_ED1Ev
   fun:_ZN5boost13property_tree11json_parser6detail6parserINS2_18standard_callbacksINS0_11basic_ptreeINSt7__cxx1112basic_stringIcSt11char_traitsIcESaIcEEESB_St4lessISB_EEEEENS2_8encodingIcEESt19istreambuf_iteratorIcS9_ESJ_ED1Ev
   fun:_ZN5boost13property_tree11json_parser6detail18read_json_internalISt19istreambuf_iteratorIcSt11char_traitsIcEES7_NS2_8encodingIcEENS2_18standard_callbacksINS0_11basic_ptreeINSt7__cxx1112basic_stringIcS6_SaIcEEESF_St4lessISF_EEEEEEEvT_T0_RT1_RT2_RKSF_
   fun:_ZN5boost13property_tree11json_parser6detail18read_json_internalINS0_11basic_ptreeINSt7__cxx1112basic_stringIcSt11char_traitsIcESaIcEEESA_St4lessISA_EEEEEvRSt13basic_istreamINT_8key_type10value_typeES7_ISH_EERSF_RKSA_
   fun:_ZN5boost13property_tree11json_parser9read_jsonINS0_11basic_ptreeINSt7__cxx1112basic_stringIcSt11char_traitsIcESaIcEEES9_St4lessIS9_EEEEEvRKS9_RT_RKSt6locale
   fun:_ZN4adns6config8init_logENSt7__cxx1112basic_stringIcSt11char_traitsIcESaIcEEE
   fun:main
}
{
   <insert_a_suppression_name_here>
   Memcheck:Free
   fun:free
   fun:_ZN5boost13property_tree11json_parser6detail18standard_callbacksINS0_11basic_ptreeINSt7__cxx1112basic_stringIcSt11char_traitsIcESaIcEEESA_St4lessISA_EEEED1Ev
   fun:_ZN5boost13property_tree11json_parser6detail18read_json_internalINS0_11basic_ptreeINSt7__cxx1112basic_stringIcSt11char_traitsIcESaIcEEESA_St4lessISA_EEEEEvRSt13basic_istreamINT_8key_type10value_typeES7_ISH_EERSF_RKSA_
   fun:_ZN5boost13property_tree11json_parser9read_jsonINS0_11basic_ptreeINSt7__cxx1112basic_stringIcSt11char_traitsIcESaIcEEES9_St4lessIS9_EEEEEvRKS9_RT_RKSt6locale
   fun:_ZN4adns6config8init_logENSt7__cxx1112basic_stringIcSt11char_traitsIcESaIcEEE
   fun:main
}
{
   <insert_a_suppression_name_here>
   Memcheck:Free
   fun:free
   fun:_ZN5boost13property_tree11basic_ptreeINSt7__cxx1112basic_stringIcSt11char_traitsIcESaIcEEES7_St4lessIS7_EED1Ev
   fun:_ZN5boost13property_tree11json_parser6detail18standard_callbacksINS0_11basic_ptreeINSt7__cxx1112basic_stringIcSt11char_traitsIcESaIcEEESA_St4lessISA_EEEED1Ev
   fun:_ZN5boost13property_tree11json_parser6detail18read_json_internalINS0_11basic_ptreeINSt7__cxx1112basic_stringIcSt11char_traitsIcESaIcEEESA_St4lessISA_EEEEEvRSt13basic_istreamINT_8key_type10value_typeES7_ISH_EERSF_RKSA_
   fun:_ZN5boost13property_tree11json_parser9read_jsonINS0_11basic_ptreeINSt7__cxx1112basic_stringIcSt11char_traitsIcESaIcEEES9_St4lessIS9_EEEEEvRKS9_RT_RKSt6locale
   fun:_ZN4adns6config8init_logENSt7__cxx1112basic_stringIcSt11char_traitsIcESaIcEEE
   fun:main
}
{
   <insert_a_suppression_name_here>
   Memcheck:Free
   fun:free
   fun:_ZNSt13basic_filebufIcSt11char_traitsIcEE26_M_destroy_internal_bufferEv
   fun:_ZNSt13basic_filebufIcSt11char_traitsIcEE5closeEv
   fun:_ZNSt14basic_ifstreamIcSt11char_traitsIcEED1Ev
   fun:_ZN5boost13property_tree11json_parser9read_jsonINS0_11basic_ptreeINSt7__cxx1112basic_stringIcSt11char_traitsIcESaIcEEES9_St4lessIS9_EEEEEvRKS9_RT_RKSt6locale
   fun:_ZN4adns6config8init_logENSt7__cxx1112basic_stringIcSt11char_traitsIcESaIcEEE
   fun:main
}
{
   <insert_a_suppression_name_here>
   Memcheck:Free
   fun:free
   fun:_ZN5boost13property_tree11string_pathINSt7__cxx1112basic_stringIcSt11char_traitsIcESaIcEEENS0_13id_translatorIS7_EEED1Ev
   fun:_ZNK5boost13property_tree11basic_ptreeINSt7__cxx1112basic_stringIcSt11char_traitsIcESaIcEEES7_St4lessIS7_EE18get_child_optionalERKNS0_11string_pathIS7_NS0_13id_translatorIS7_EEEE
   fun:_ZNK5boost13property_tree11basic_ptreeINSt7__cxx1112basic_stringIcSt11char_traitsIcESaIcEEES7_St4lessIS7_EE12get_optionalIS7_EENS_8optionalIT_EERKNS0_11string_pathIS7_NS0_13id_translatorIS7_EEEE
   fun:_ZNK5boost13property_tree11basic_ptreeINSt7__cxx1112basic_stringIcSt11char_traitsIcESaIcEEES7_St4lessIS7_EE3getIS7_EENS_10disable_ifINS0_6detail13is_translatorIT_EESF_E4typeERKNS0_11string_pathIS7_NS0_13id_translatorIS7_EEEERKSF_
   fun:_ZN4adns6config8init_logENSt7__cxx1112basic_stringIcSt11char_traitsIcESaIcEEE
   fun:main
}
{
   <insert_a_suppression_name_here>
   Memcheck:Free
   fun:free
   fun:_ZN5boost13property_tree11string_pathINSt7__cxx1112basic_stringIcSt11char_traitsIcESaIcEEENS0_13id_translatorIS7_EEED1Ev
   fun:_ZN4adns6config8init_logENSt7__cxx1112basic_stringIcSt11char_traitsIcESaIcEEE
   fun:main
}
{
   <insert_a_suppression_name_here>
   Memcheck:Free
   fun:free
   fun:_ZN5boost13property_tree11string_pathINSt7__cxx1112basic_stringIcSt11char_traitsIcESaIcEEENS0_13id_translatorIS7_EEED1Ev
   fun:_ZN4adns6config8init_logENSt7__cxx1112basic_stringIcSt11char_traitsIcESaIcEEE
   fun:main
}
{
   <insert_a_suppression_name_here>
   Memcheck:Free
   fun:free
   fun:_ZN5boost3log11v2_mt_posix4core10set_filterERKNS1_6filterE
   fun:_ZN4adns6config8init_logENSt7__cxx1112basic_stringIcSt11char_traitsIcESaIcEEE
   fun:main
}
{
   <insert_a_suppression_name_here>
   Memcheck:Free
   fun:free
   fun:_ZN5boost3log11v2_mt_posix3aux14light_functionIFbRKNS1_19attribute_value_setEEE4implINS_7phoenix5actorINS_5proto7exprns_10basic_exprINSC_6tagns_3tag13greater_equalENSC_7argsns_5list2INS1_11expressions15attribute_actorINS1_7trivial14severity_levelENS1_16fallback_to_noneENSM_3tag8severityESB_EENSB_INSE_INSG_8terminalENSI_4termISN_EELl0EEEEEEELl2EEEEEE12destroy_implEPv
   fun:_ZN5boost3log11v2_mt_posix3aux14light_functionIFbRKNS1_19attribute_value_setEEE5clearEv
   fun:_ZN5boost3log11v2_mt_posix3aux14light_functionIFbRKNS1_19attribute_value_setEEED1Ev
   fun:_ZN5boost3log11v2_mt_posix6filterD1Ev
   fun:_ZN4adns6config8init_logENSt7__cxx1112basic_stringIcSt11char_traitsIcESaIcEEE
   fun:main
}
{
   <insert_a_suppression_name_here>
   Memcheck:Free
   fun:free
   fun:main
}
{
   <insert_a_suppression_name_here>
   Memcheck:Free
   fun:free
   fun:_ZN5boost13property_tree11string_pathINSt7__cxx1112basic_stringIcSt11char_traitsIcESaIcEEENS0_13id_translatorIS7_EEED1Ev
   fun:_ZNK5boost13property_tree11basic_ptreeINSt7__cxx1112basic_stringIcSt11char_traitsIcESaIcEEES7_St4lessIS7_EE18get_child_optionalERKNS0_11string_pathIS7_NS0_13id_translatorIS7_EEEE
   fun:_ZNK5boost13property_tree11basic_ptreeINSt7__cxx1112basic_stringIcSt11char_traitsIcESaIcEEES7_St4lessIS7_EE12get_optionalIbEENS_8optionalIT_EERKNS0_11string_pathIS7_NS0_13id_translatorIS7_EEEE
   fun:_ZNK5boost13property_tree11basic_ptreeINSt7__cxx1112basic_stringIcSt11char_traitsIcESaIcEEES7_St4lessIS7_EE3getIbEENS_10disable_ifINS0_6detail13is_translatorIT_EESF_E4typeERKNS0_11string_pathIS7_NS0_13id_translatorIS7_EEEERKSF_
   fun:_ZN4adns6config6daemonENSt7__cxx1112basic_stringIcSt11char_traitsIcESaIcEEE
   fun:main
}
{
   <insert_a_suppression_name_here>
   Memcheck:Free
   fun:free
   fun:_ZN5boost13property_tree11string_pathINSt7__cxx1112basic_stringIcSt11char_traitsIcESaIcEEENS0_13id_translatorIS7_EEED1Ev
   fun:_ZN4adns6config6daemonENSt7__cxx1112basic_stringIcSt11char_traitsIcESaIcEEE
   fun:main
}
{
   <insert_a_suppression_name_here>
   Memcheck:Free
   fun:free
   fun:_ZN5boost13property_tree11basic_ptreeINSt7__cxx1112basic_stringIcSt11char_traitsIcESaIcEEES7_St4lessIS7_EED1Ev
   fun:_ZNSt4pairIKNSt7__cxx1112basic_stringIcSt11char_traitsIcESaIcEEEN5boost13property_tree11basic_ptreeIS5_S5_St4lessIS5_EEEED1Ev
   fun:_ZN9__gnu_cxx13new_allocatorIN5boost11multi_index6detail20sequenced_index_nodeINS3_18ordered_index_nodeINS3_19null_augment_policyENS3_15index_node_baseISt4pairIKNSt7__cxx1112basic_stringIcSt11char_traitsIcESaIcEEENS1_13property_tree11basic_ptreeISE_SE_St4lessISE_EEEESaISL_EEEEEEEE7destroyISL_EEvPT_
   fun:_ZNSt16allocator_traitsISaIN5boost11multi_index6detail20sequenced_index_nodeINS2_18ordered_index_nodeINS2_19null_augment_policyENS2_15index_node_baseISt4pairIKNSt7__cxx1112basic_stringIcSt11char_traitsIcESaIcEEENS0_13property_tree11basic_ptreeISD_SD_St4lessISD_EEEESaISK_EEEEEEEEE7destroyISK_EEvRSP_PT_
   fun:_ZN5boost11multi_index21multi_index_containerISt4pairIKNSt7__cxx1112basic_stringIcSt11char_traitsIcESaIcEEENS_13property_tree11basic_ptreeIS8_S8_St4lessIS8_EEEENS0_10indexed_byINS0_9sequencedINS0_3tagIN4mpl_2naESK_SK_SK_SK_SK_SK_SK_SK_SK_SK_SK_SK_SK_SK_SK_SK_SK_SK_SK_EEEENS0_18ordered_non_uniqueINSI_INSE_4subs7by_nameESK_SK_SK_SK_SK_SK_SK_SK_SK_SK_SK_SK_SK_SK_SK_SK_SK_SK_SK_EENS0_6memberISF_S9_XadL_ZNSF_5firstEEEEESD_EESK_SK_SK_SK_SK_SK_SK_SK_SK_SK_SK_SK_SK_SK_SK_SK_SK_SK_EESaISF_EE13destroy_valueEPNS0_6detail20sequenced_index_nodeINSX_18ordered_index_nodeINSX_19null_augment_policyENSX_15index_node_baseISF_SV_EEEEEE
   fun:_ZN5boost11multi_index6detail10index_baseISt4pairIKNSt7__cxx1112basic_stringIcSt11char_traitsIcESaIcEEENS_13property_tree11basic_ptreeIS9_S9_St4lessIS9_EEEENS0_10indexed_byINS0_9sequencedINS0_3tagIN4mpl_2naESL_SL_SL_SL_SL_SL_SL_SL_SL_SL_SL_SL_SL_SL_SL_SL_SL_SL_SL_EEEENS0_18ordered_non_uniqueINSJ_INSF_4subs7by_nameESL_SL_SL_SL_SL_SL_SL_SL_SL_SL_SL_SL_SL_SL_SL_SL_SL_SL_SL_EENS0_6memberISG_SA_XadL_ZNSG_5firstEEEEESE_EESL_SL_SL_SL_SL_SL_SL_SL_SL_SL_SL_SL_SL_SL_SL_SL_SL_SL_EESaISG_EE12delete_node_EPNS1_15index_node_baseISG_SW_EE
   fun:_ZN5boost11multi_index21multi_index_containerISt4pairIKNSt7__cxx1112basic_stringIcSt11char_traitsIcESaIcEEENS_13property_tree11basic_ptreeIS8_S8_St4lessIS8_EEEENS0_10indexed_byINS0_9sequencedINS0_3tagIN4mpl_2naESK_SK_SK_SK_SK_SK_SK_SK_SK_SK_SK_SK_SK_SK_SK_SK_SK_SK_SK_EEEENS0_18ordered_non_uniqueINSI_INSE_4subs7by_nameESK_SK_SK_SK_SK_SK_SK_SK_SK_SK_SK_SK_SK_SK_SK_SK_SK_SK_SK_EENS0_6memberISF_S9_XadL_ZNSF_5firstEEEEESD_EESK_SK_SK_SK_SK_SK_SK_SK_SK_SK_SK_SK_SK_SK_SK_SK_SK_SK_EESaISF_EE12delete_node_EPNS0_6detail20sequenced_index_nodeINSX_18ordered_index_nodeINSX_19null_augment_policyENSX_15index_node_baseISF_SV_EEEEEE
   fun:_ZN5boost11multi_index6detail10index_baseISt4pairIKNSt7__cxx1112basic_stringIcSt11char_traitsIcESaIcEEENS_13property_tree11basic_ptreeIS9_S9_St4lessIS9_EEEENS0_10indexed_byINS0_9sequencedINS0_3tagIN4mpl_2naESL_SL_SL_SL_SL_SL_SL_SL_SL_SL_SL_SL_SL_SL_SL_SL_SL_SL_SL_EEEENS0_18ordered_non_uniqueINSJ_INSF_4subs7by_nameESL_SL_SL_SL_SL_SL_SL_SL_SL_SL_SL_SL_SL_SL_SL_SL_SL_SL_SL_EENS0_6memberISG_SA_XadL_ZNSG_5firstEEEEESE_EESL_SL_SL_SL_SL_SL_SL_SL_SL_SL_SL_SL_SL_SL_SL_SL_SL_SL_EESaISG_EE18final_delete_node_EPNS1_20sequenced_index_nodeINS1_18ordered_index_nodeINS1_19null_augment_policyENS1_15index_node_baseISG_SW_EEEEEE
   fun:_ZN5boost11multi_index6detail15sequenced_indexINS1_9nth_layerILi1ESt4pairIKNSt7__cxx1112basic_stringIcSt11char_traitsIcESaIcEEENS_13property_tree11basic_ptreeISA_SA_St4lessISA_EEEENS0_10indexed_byINS0_9sequencedINS0_3tagIN4mpl_2naESM_SM_SM_SM_SM_SM_SM_SM_SM_SM_SM_SM_SM_SM_SM_SM_SM_SM_SM_EEEENS0_18ordered_non_uniqueINSK_INSG_4subs7by_nameESM_SM_SM_SM_SM_SM_SM_SM_SM_SM_SM_SM_SM_SM_SM_SM_SM_SM_SM_EENS0_6memberISH_SB_XadL_ZNSH_5firstEEEEESF_EESM_SM_SM_SM_SM_SM_SM_SM_SM_SM_SM_SM_SM_SM_SM_SM_SM_SM_EESaISH_EEENS_3mpl7vector0ISM_EEE17delete_all_nodes_Ev
   fun:_ZN5boost11multi_index21multi_index_containerISt4pairIKNSt7__cxx1112basic_stringIcSt11char_traitsIcESaIcEEENS_13property_tree11basic_ptreeIS8_S8_St4lessIS8_EEEENS0_10indexed_byINS0_9sequencedINS0_3tagIN4mpl_2naESK_SK_SK_SK_SK_SK_SK_SK_SK_SK_SK_SK_SK_SK_SK_SK_SK_SK_SK_EEEENS0_18ordered_non_uniqueINSI_INSE_4subs7by_nameESK_SK_SK_SK_SK_SK_SK_SK_SK_SK_SK_SK_SK_SK_SK_SK_SK_SK_SK_EENS0_6memberISF_S9_XadL_ZNSF_5firstEEEEESD_EESK_SK_SK_SK_SK_SK_SK_SK_SK_SK_SK_SK_SK_SK_SK_SK_SK_SK_EESaISF_EE17delete_all_nodes_Ev
   fun:_ZN5boost11multi_index21multi_index_containerISt4pairIKNSt7__cxx1112basic_stringIcSt11char_traitsIcESaIcEEENS_13property_tree11basic_ptreeIS8_S8_St4lessIS8_EEEENS0_10indexed_byINS0_9sequencedINS0_3tagIN4mpl_2naESK_SK_SK_SK_SK_SK_SK_SK_SK_SK_SK_SK_SK_SK_SK_SK_SK_SK_SK_EEEENS0_18ordered_non_uniqueINSI_INSE_4subs7by_nameESK_SK_SK_SK_SK_SK_SK_SK_SK_SK_SK_SK_SK_SK_SK_SK_SK_SK_SK_EENS0_6memberISF_S9_XadL_ZNSF_5firstEEEEESD_EESK_SK_SK_SK_SK_SK_SK_SK_SK_SK_SK_SK_SK_SK_SK_SK_SK_SK_EESaISF_EED1Ev
}
{
   <insert_a_suppression_name_here>
   Memcheck:Free
   fun:free
   fun:_ZNSt4pairIKNSt7__cxx1112basic_stringIcSt11char_traitsIcESaIcEEEN5boost13property_tree11basic_ptreeIS5_S5_St4lessIS5_EEEED1Ev
   fun:_ZN9__gnu_cxx13new_allocatorIN5boost11multi_index6detail20sequenced_index_nodeINS3_18ordered_index_nodeINS3_19null_augment_policyENS3_15index_node_baseISt4pairIKNSt7__cxx1112basic_stringIcSt11char_traitsIcESaIcEEENS1_13property_tree11basic_ptreeISE_SE_St4lessISE_EEEESaISL_EEEEEEEE7destroyISL_EEvPT_
   fun:_ZNSt16allocator_traitsISaIN5boost11multi_index6detail20sequenced_index_nodeINS2_18ordered_index_nodeINS2_19null_augment_policyENS2_15index_node_baseISt4pairIKNSt7__cxx1112basic_stringIcSt11char_traitsIcESaIcEEENS0_13property_tree11basic_ptreeISD_SD_St4lessISD_EEEESaISK_EEEEEEEEE7destroyISK_EEvRSP_PT_
   fun:_ZN5boost11multi_index21multi_index_containerISt4pairIKNSt7__cxx1112basic_stringIcSt11char_traitsIcESaIcEEENS_13property_tree11basic_ptreeIS8_S8_St4lessIS8_EEEENS0_10indexed_byINS0_9sequencedINS0_3tagIN4mpl_2naESK_SK_SK_SK_SK_SK_SK_SK_SK_SK_SK_SK_SK_SK_SK_SK_SK_SK_SK_EEEENS0_18ordered_non_uniqueINSI_INSE_4subs7by_nameESK_SK_SK_SK_SK_SK_SK_SK_SK_SK_SK_SK_SK_SK_SK_SK_SK_SK_SK_EENS0_6memberISF_S9_XadL_ZNSF_5firstEEEEESD_EESK_SK_SK_SK_SK_SK_SK_SK_SK_SK_SK_SK_SK_SK_SK_SK_SK_SK_EESaISF_EE13destroy_valueEPNS0_6detail20sequenced_index_nodeINSX_18ordered_index_nodeINSX_19null_augment_policyENSX_15index_node_baseISF_SV_EEEEEE
   fun:_ZN5boost11multi_index6detail10index_baseISt4pairIKNSt7__cxx1112basic_stringIcSt11char_traitsIcESaIcEEENS_13property_tree11basic_ptreeIS9_S9_St4lessIS9_EEEENS0_10indexed_byINS0_9sequencedINS0_3tagIN4mpl_2naESL_SL_SL_SL_SL_SL_SL_SL_SL_SL_SL_SL_SL_SL_SL_SL_SL_SL_SL_EEEENS0_18ordered_non_uniqueINSJ_INSF_4subs7by_nameESL_SL_SL_SL_SL_SL_SL_SL_SL_SL_SL_SL_SL_SL_SL_SL_SL_SL_SL_EENS0_6memberISG_SA_XadL_ZNSG_5firstEEEEESE_EESL_SL_SL_SL_SL_SL_SL_SL_SL_SL_SL_SL_SL_SL_SL_SL_SL_SL_EESaISG_EE12delete_node_EPNS1_15index_node_baseISG_SW_EE
   fun:_ZN5boost11multi_index21multi_index_containerISt4pairIKNSt7__cxx1112basic_stringIcSt11char_traitsIcESaIcEEENS_13property_tree11basic_ptreeIS8_S8_St4lessIS8_EEEENS0_10indexed_byINS0_9sequencedINS0_3tagIN4mpl_2naESK_SK_SK_SK_SK_SK_SK_SK_SK_SK_SK_SK_SK_SK_SK_SK_SK_SK_SK_EEEENS0_18ordered_non_uniqueINSI_INSE_4subs7by_nameESK_SK_SK_SK_SK_SK_SK_SK_SK_SK_SK_SK_SK_SK_SK_SK_SK_SK_SK_EENS0_6memberISF_S9_XadL_ZNSF_5firstEEEEESD_EESK_SK_SK_SK_SK_SK_SK_SK_SK_SK_SK_SK_SK_SK_SK_SK_SK_SK_EESaISF_EE12delete_node_EPNS0_6detail20sequenced_index_nodeINSX_18ordered_index_nodeINSX_19null_augment_policyENSX_15index_node_baseISF_SV_EEEEEE
   fun:_ZN5boost11multi_index6detail10index_baseISt4pairIKNSt7__cxx1112basic_stringIcSt11char_traitsIcESaIcEEENS_13property_tree11basic_ptreeIS9_S9_St4lessIS9_EEEENS0_10indexed_byINS0_9sequencedINS0_3tagIN4mpl_2naESL_SL_SL_SL_SL_SL_SL_SL_SL_SL_SL_SL_SL_SL_SL_SL_SL_SL_SL_EEEENS0_18ordered_non_uniqueINSJ_INSF_4subs7by_nameESL_SL_SL_SL_SL_SL_SL_SL_SL_SL_SL_SL_SL_SL_SL_SL_SL_SL_SL_EENS0_6memberISG_SA_XadL_ZNSG_5firstEEEEESE_EESL_SL_SL_SL_SL_SL_SL_SL_SL_SL_SL_SL_SL_SL_SL_SL_SL_SL_EESaISG_EE18final_delete_node_EPNS1_20sequenced_index_nodeINS1_18ordered_index_nodeINS1_19null_augment_policyENS1_15index_node_baseISG_SW_EEEEEE
   fun:_ZN5boost11multi_index6detail15sequenced_indexINS1_9nth_layerILi1ESt4pairIKNSt7__cxx1112basic_stringIcSt11char_traitsIcESaIcEEENS_13property_tree11basic_ptreeISA_SA_St4lessISA_EEEENS0_10indexed_byINS0_9sequencedINS0_3tagIN4mpl_2naESM_SM_SM_SM_SM_SM_SM_SM_SM_SM_SM_SM_SM_SM_SM_SM_SM_SM_SM_EEEENS0_18ordered_non_uniqueINSK_INSG_4subs7by_nameESM_SM_SM_SM_SM_SM_SM_SM_SM_SM_SM_SM_SM_SM_SM_SM_SM_SM_SM_EENS0_6memberISH_SB_XadL_ZNSH_5firstEEEEESF_EESM_SM_SM_SM_SM_SM_SM_SM_SM_SM_SM_SM_SM_SM_SM_SM_SM_SM_EESaISH_EEENS_3mpl7vector0ISM_EEE17delete_all_nodes_Ev
   fun:_ZN5boost11multi_index21multi_index_containerISt4pairIKNSt7__cxx1112basic_stringIcSt11char_traitsIcESaIcEEENS_13property_tree11basic_ptreeIS8_S8_St4lessIS8_EEEENS0_10indexed_byINS0_9sequencedINS0_3tagIN4mpl_2naESK_SK_SK_SK_SK_SK_SK_SK_SK_SK_SK_SK_SK_SK_SK_SK_SK_SK_SK_EEEENS0_18ordered_non_uniqueINSI_INSE_4subs7by_nameESK_SK_SK_SK_SK_SK_SK_SK_SK_SK_SK_SK_SK_SK_SK_SK_SK_SK_SK_EENS0_6memberISF_S9_XadL_ZNSF_5firstEEEEESD_EESK_SK_SK_SK_SK_SK_SK_SK_SK_SK_SK_SK_SK_SK_SK_SK_SK_SK_EESaISF_EE17delete_all_nodes_Ev
   fun:_ZN5boost11multi_index21multi_index_containerISt4pairIKNSt7__cxx1112basic_stringIcSt11char_traitsIcESaIcEEENS_13property_tree11basic_ptreeIS8_S8_St4lessIS8_EEEENS0_10indexed_byINS0_9sequencedINS0_3tagIN4mpl_2naESK_SK_SK_SK_SK_SK_SK_SK_SK_SK_SK_SK_SK_SK_SK_SK_SK_SK_SK_EEEENS0_18ordered_non_uniqueINSI_INSE_4subs7by_nameESK_SK_SK_SK_SK_SK_SK_SK_SK_SK_SK_SK_SK_SK_SK_SK_SK_SK_SK_EENS0_6memberISF_S9_XadL_ZNSF_5firstEEEEESD_EESK_SK_SK_SK_SK_SK_SK_SK_SK_SK_SK_SK_SK_SK_SK_SK_SK_SK_EESaISF_EED1Ev
   fun:_ZN5boost13property_tree11basic_ptreeINSt7__cxx1112basic_stringIcSt11char_traitsIcESaIcEEES7_St4lessIS7_EED1Ev
}
{
   <insert_a_suppression_name_here>
   Memcheck:Free
   fun:free
   fun:_ZN5boost13property_tree11basic_ptreeINSt7__cxx1112basic_stringIcSt11char_traitsIcESaIcEEES7_St4lessIS7_EED1Ev
   fun:_ZNSt4pairIKNSt7__cxx1112basic_stringIcSt11char_traitsIcESaIcEEEN5boost13property_tree11basic_ptreeIS5_S5_St4lessIS5_EEEED1Ev
   fun:_ZN9__gnu_cxx13new_allocatorIN5boost11multi_index6detail20sequenced_index_nodeINS3_18ordered_index_nodeINS3_19null_augment_policyENS3_15index_node_baseISt4pairIKNSt7__cxx1112basic_stringIcSt11char_traitsIcESaIcEEENS1_13property_tree11basic_ptreeISE_SE_St4lessISE_EEEESaISL_EEEEEEEE7destroyISL_EEvPT_
   fun:_ZNSt16allocator_traitsISaIN5boost11multi_index6detail20sequenced_index_nodeINS2_18ordered_index_nodeINS2_19null_augment_policyENS2_15index_node_baseISt4pairIKNSt7__cxx1112basic_stringIcSt11char_traitsIcESaIcEEENS0_13property_tree11basic_ptreeISD_SD_St4lessISD_EEEESaISK_EEEEEEEEE7destroyISK_EEvRSP_PT_
   fun:_ZN5boost11multi_index21multi_index_containerISt4pairIKNSt7__cxx1112basic_stringIcSt11char_traitsIcESaIcEEENS_13property_tree11basic_ptreeIS8_S8_St4lessIS8_EEEENS0_10indexed_byINS0_9sequencedINS0_3tagIN4mpl_2naESK_SK_SK_SK_SK_SK_SK_SK_SK_SK_SK_SK_SK_SK_SK_SK_SK_SK_SK_EEEENS0_18ordered_non_uniqueINSI_INSE_4subs7by_nameESK_SK_SK_SK_SK_SK_SK_SK_SK_SK_SK_SK_SK_SK_SK_SK_SK_SK_SK_EENS0_6memberISF_S9_XadL_ZNSF_5firstEEEEESD_EESK_SK_SK_SK_SK_SK_SK_SK_SK_SK_SK_SK_SK_SK_SK_SK_SK_SK_EESaISF_EE13destroy_valueEPNS0_6detail20sequenced_index_nodeINSX_18ordered_index_nodeINSX_19null_augment_policyENSX_15index_node_baseISF_SV_EEEEEE
   fun:_ZN5boost11multi_index6detail10index_baseISt4pairIKNSt7__cxx1112basic_stringIcSt11char_traitsIcESaIcEEENS_13property_tree11basic_ptreeIS9_S9_St4lessIS9_EEEENS0_10indexed_byINS0_9sequencedINS0_3tagIN4mpl_2naESL_SL_SL_SL_SL_SL_SL_SL_SL_SL_SL_SL_SL_SL_SL_SL_SL_SL_SL_EEEENS0_18ordered_non_uniqueINSJ_INSF_4subs7by_nameESL_SL_SL_SL_SL_SL_SL_SL_SL_SL_SL_SL_SL_SL_SL_SL_SL_SL_SL_EENS0_6memberISG_SA_XadL_ZNSG_5firstEEEEESE_EESL_SL_SL_SL_SL_SL_SL_SL_SL_SL_SL_SL_SL_SL_SL_SL_SL_SL_EESaISG_EE12delete_node_EPNS1_15index_node_baseISG_SW_EE
   fun:_ZN5boost11multi_index21multi_index_containerISt4pairIKNSt7__cxx1112basic_stringIcSt11char_traitsIcESaIcEEENS_13property_tree11basic_ptreeIS8_S8_St4lessIS8_EEEENS0_10indexed_byINS0_9sequencedINS0_3tagIN4mpl_2naESK_SK_SK_SK_SK_SK_SK_SK_SK_SK_SK_SK_SK_SK_SK_SK_SK_SK_SK_EEEENS0_18ordered_non_uniqueINSI_INSE_4subs7by_nameESK_SK_SK_SK_SK_SK_SK_SK_SK_SK_SK_SK_SK_SK_SK_SK_SK_SK_SK_EENS0_6memberISF_S9_XadL_ZNSF_5firstEEEEESD_EESK_SK_SK_SK_SK_SK_SK_SK_SK_SK_SK_SK_SK_SK_SK_SK_SK_SK_EESaISF_EE12delete_node_EPNS0_6detail20sequenced_index_nodeINSX_18ordered_index_nodeINSX_19null_augment_policyENSX_15index_node_baseISF_SV_EEEEEE
   fun:_ZN5boost11multi_index6detail10index_baseISt4pairIKNSt7__cxx1112basic_stringIcSt11char_traitsIcESaIcEEENS_13property_tree11basic_ptreeIS9_S9_St4lessIS9_EEEENS0_10indexed_byINS0_9sequencedINS0_3tagIN4mpl_2naESL_SL_SL_SL_SL_SL_SL_SL_SL_SL_SL_SL_SL_SL_SL_SL_SL_SL_SL_EEEENS0_18ordered_non_uniqueINSJ_INSF_4subs7by_nameESL_SL_SL_SL_SL_SL_SL_SL_SL_SL_SL_SL_SL_SL_SL_SL_SL_SL_SL_EENS0_6memberISG_SA_XadL_ZNSG_5firstEEEEESE_EESL_SL_SL_SL_SL_SL_SL_SL_SL_SL_SL_SL_SL_SL_SL_SL_SL_SL_EESaISG_EE18final_delete_node_EPNS1_20sequenced_index_nodeINS1_18ordered_index_nodeINS1_19null_augment_policyENS1_15index_node_baseISG_SW_EEEEEE
   fun:_ZN5boost11multi_index6detail15sequenced_indexINS1_9nth_layerILi1ESt4pairIKNSt7__cxx1112basic_stringIcSt11char_traitsIcESaIcEEENS_13property_tree11basic_ptreeISA_SA_St4lessISA_EEEENS0_10indexed_byINS0_9sequencedINS0_3tagIN4mpl_2naESM_SM_SM_SM_SM_SM_SM_SM_SM_SM_SM_SM_SM_SM_SM_SM_SM_SM_SM_EEEENS0_18ordered_non_uniqueINSK_INSG_4subs7by_nameESM_SM_SM_SM_SM_SM_SM_SM_SM_SM_SM_SM_SM_SM_SM_SM_SM_SM_SM_EENS0_6memberISH_SB_XadL_ZNSH_5firstEEEEESF_EESM_SM_SM_SM_SM_SM_SM_SM_SM_SM_SM_SM_SM_SM_SM_SM_SM_SM_EESaISH_EEENS_3mpl7vector0ISM_EEE17delete_all_nodes_Ev
   fun:_ZN5boost11multi_index21multi_index_containerISt4pairIKNSt7__cxx1112basic_stringIcSt11char_traitsIcESaIcEEENS_13property_tree11basic_ptreeIS8_S8_St4lessIS8_EEEENS0_10indexed_byINS0_9sequencedINS0_3tagIN4mpl_2naESK_SK_SK_SK_SK_SK_SK_SK_SK_SK_SK_SK_SK_SK_SK_SK_SK_SK_SK_EEEENS0_18ordered_non_uniqueINSI_INSE_4subs7by_nameESK_SK_SK_SK_SK_SK_SK_SK_SK_SK_SK_SK_SK_SK_SK_SK_SK_SK_SK_EENS0_6memberISF_S9_XadL_ZNSF_5firstEEEEESD_EESK_SK_SK_SK_SK_SK_SK_SK_SK_SK_SK_SK_SK_SK_SK_SK_SK_SK_EESaISF_EE17delete_all_nodes_Ev
   fun:_ZN5boost11multi_index21multi_index_containerISt4pairIKNSt7__cxx1112basic_stringIcSt11char_traitsIcESaIcEEENS_13property_tree11basic_ptreeIS8_S8_St4lessIS8_EEEENS0_10indexed_byINS0_9sequencedINS0_3tagIN4mpl_2naESK_SK_SK_SK_SK_SK_SK_SK_SK_SK_SK_SK_SK_SK_SK_SK_SK_SK_SK_EEEENS0_18ordered_non_uniqueINSI_INSE_4subs7by_nameESK_SK_SK_SK_SK_SK_SK_SK_SK_SK_SK_SK_SK_SK_SK_SK_SK_SK_SK_EENS0_6memberISF_S9_XadL_ZNSF_5firstEEEEESD_EESK_SK_SK_SK_SK_SK_SK_SK_SK_SK_SK_SK_SK_SK_SK_SK_SK_SK_EESaISF_EED1Ev
}
{
   <insert_a_suppression_name_here>
   Memcheck:Free
   fun:free
   fun:_ZN5boost13property_tree11basic_ptreeINSt7__cxx1112basic_stringIcSt11char_traitsIcESaIcEEES7_St4lessIS7_EED1Ev
   fun:_ZN4adns6config6daemonENSt7__cxx1112basic_stringIcSt11char_traitsIcESaIcEEE
   fun:main
}
{
   <insert_a_suppression_name_here>
   Memcheck:Free
   fun:free
   fun:main
}
{
   <insert_a_suppression_name_here>
   Memcheck:Free
   fun:free
   fun:_ZN5boost13property_tree11string_pathINSt7__cxx1112basic_stringIcSt11char_traitsIcESaIcEEENS0_13id_translatorIS7_EEED1Ev
   fun:_ZN4adns6config14init_db_configEv
   fun:main
}
{
   <insert_a_suppression_name_here>
   Memcheck:Free
   fun:free
   fun:_ZN5boost15optional_detail13optional_baseINSt7__cxx1112basic_stringIcSt11char_traitsIcESaIcEEEE12destroy_implEv
   fun:_ZN5boost15optional_detail13optional_baseINSt7__cxx1112basic_stringIcSt11char_traitsIcESaIcEEEE7destroyEv
   fun:_ZN5boost15optional_detail13optional_baseINSt7__cxx1112basic_stringIcSt11char_traitsIcESaIcEEEED1Ev
   fun:_ZN5boost8optionalINSt7__cxx1112basic_stringIcSt11char_traitsIcESaIcEEEED1Ev
   fun:_ZNK5boost13property_tree11basic_ptreeINSt7__cxx1112basic_stringIcSt11char_traitsIcESaIcEEES7_St4lessIS7_EE3getIS7_EENS_10disable_ifINS0_6detail13is_translatorIT_EESF_E4typeERKNS0_11string_pathIS7_NS0_13id_translatorIS7_EEEERKSF_
   fun:_ZN4adns6config14init_db_configEv
   fun:main
}
{
   <insert_a_suppression_name_here>
   Memcheck:Free
   fun:free
   fun:_ZN5boost13property_tree11string_pathINSt7__cxx1112basic_stringIcSt11char_traitsIcESaIcEEENS0_13id_translatorIS7_EEED1Ev
   fun:_ZN4adns6config14init_db_configEv
   fun:main
}
{
   <insert_a_suppression_name_here>
   Memcheck:Free
   fun:free
   fun:_ZN5boost13property_tree11string_pathINSt7__cxx1112basic_stringIcSt11char_traitsIcESaIcEEENS0_13id_translatorIS7_EEED1Ev
   fun:_ZN5boost13property_tree11basic_ptreeINSt7__cxx1112basic_stringIcSt11char_traitsIcESaIcEEES7_St4lessIS7_EE9get_childERKNS0_11string_pathIS7_NS0_13id_translatorIS7_EEEE
   fun:_ZNK5boost13property_tree11basic_ptreeINSt7__cxx1112basic_stringIcSt11char_traitsIcESaIcEEES7_St4lessIS7_EE9get_childERKNS0_11string_pathIS7_NS0_13id_translatorIS7_EEEE
   fun:_ZNK5boost13property_tree11basic_ptreeINSt7__cxx1112basic_stringIcSt11char_traitsIcESaIcEEES7_St4lessIS7_EE3getIS7_EET_RKNS0_11string_pathIS7_NS0_13id_translatorIS7_EEEE
   fun:_ZN4adns6config14init_db_configEv
   fun:main
}
{
   <insert_a_suppression_name_here>
   Memcheck:Free
   fun:free
   fun:_ZN5boost13property_tree11string_pathINSt7__cxx1112basic_stringIcSt11char_traitsIcESaIcEEENS0_13id_translatorIS7_EEED1Ev
   fun:_ZN4adns6config14init_db_configEv
   fun:main
}
{
   <insert_a_suppression_name_here>
   Memcheck:Free
   fun:free
   fun:_ZN4adns6config14init_db_configEv
   fun:main
}
{
   <insert_a_suppression_name_here>
   Memcheck:Free
   fun:free
   fun:_ZN4argo6parser5parseEPKc
   fun:_ZN4adns2db18mongodb_row_helper10fetch_rowsERNS0_10connectionERKNS0_3rowE
   fun:_ZN4adns2db3row10fetch_rowsERNS0_10connectionE
   fun:_ZN4adns2db18row_schema_version8get_rowsERNS0_10connectionE
   fun:_ZN4adns2db14schema_manager16update_or_createEv
   fun:main
}
{
   <insert_a_suppression_name_here>
   Memcheck:Free
   fun:free
   fun:_ZNKSt14default_deleteINSt7__cxx1112basic_stringIcSt11char_traitsIcESaIcEEEEclEPS5_
   fun:_ZNSt10unique_ptrINSt7__cxx1112basic_stringIcSt11char_traitsIcESaIcEEESt14default_deleteIS5_EED1Ev
   fun:_ZN4argo6parser21parse_name_value_pairERNS_5lexerERSt10unique_ptrINS_4jsonESt14default_deleteIS4_EEm
   fun:_ZN4argo6parser12parse_objectERNS_5lexerEm
   fun:_ZN4argo6parser11parse_valueERNS_5lexerEm
   fun:_ZN4argo6parser5parseEv
   fun:_ZN4argo6parser5parseERSi
   fun:_ZN4argo6parser5parseEPKc
   fun:_ZN4adns2db18mongodb_row_helper10fetch_rowsERNS0_10connectionERKNS0_3rowE
   fun:_ZN4adns2db3row10fetch_rowsERNS0_10connectionE
   fun:_ZN4adns2db18row_schema_version8get_rowsERNS0_10connectionE
}
{
   <insert_a_suppression_name_here>
   Memcheck:Free
   fun:free
   fun:_ZN4argo5tokenD1Ev
   fun:_ZN4argo5lexer11read_stringEv
   fun:_ZN4argo5lexer10read_tokenEv
   fun:_ZN4argo5lexer4nextEv
   fun:_ZN4argo6parser21parse_name_value_pairERNS_5lexerERSt10unique_ptrINS_4jsonESt14default_deleteIS4_EEm
   fun:_ZN4argo6parser12parse_objectERNS_5lexerEm
   fun:_ZN4argo6parser11parse_valueERNS_5lexerEm
   fun:_ZN4argo6parser5parseEv
   fun:_ZN4argo6parser5parseERSi
   fun:_ZN4argo6parser5parseEPKc
   fun:_ZN4adns2db18mongodb_row_helper10fetch_rowsERNS0_10connectionERKNS0_3rowE
}
{
   <insert_a_suppression_name_here>
   Memcheck:Free
   fun:free
   fun:_ZNKSt14default_deleteINSt7__cxx1112basic_stringIcSt11char_traitsIcESaIcEEEEclEPS5_
   fun:_ZNSt10unique_ptrINSt7__cxx1112basic_stringIcSt11char_traitsIcESaIcEEESt14default_deleteIS5_EED1Ev
   fun:_ZN4argo6parser21parse_name_value_pairERNS_5lexerERSt10unique_ptrINS_4jsonESt14default_deleteIS4_EEm
   fun:_ZN4argo6parser12parse_objectERNS_5lexerEm
   fun:_ZN4argo6parser11parse_valueERNS_5lexerEm
   fun:_ZN4argo6parser5parseEv
   fun:_ZN4argo6parser5parseERSi
   fun:_ZN4argo6parser5parseEPKc
   fun:_ZN4adns2db18mongodb_row_helper10fetch_rowsERNS0_10connectionERKNS0_3rowE
   fun:_ZN4adns2db3row10fetch_rowsERNS0_10connectionE
   fun:_ZN4adns2db18row_schema_version8get_rowsERNS0_10connectionE
}
{
   <insert_a_suppression_name_here>
   Memcheck:Free
   fun:free
   fun:_ZN4argo6parser21parse_name_value_pairERNS_5lexerERSt10unique_ptrINS_4jsonESt14default_deleteIS4_EEm
   fun:_ZN4argo6parser12parse_objectERNS_5lexerEm
   fun:_ZN4argo6parser11parse_valueERNS_5lexerEm
   fun:_ZN4argo6parser5parseEv
   fun:_ZN4argo6parser5parseERSi
   fun:_ZN4argo6parser5parseEPKc
   fun:_ZN4adns2db18mongodb_row_helper10fetch_rowsERNS0_10connectionERKNS0_3rowE
   fun:_ZN4adns2db3row10fetch_rowsERNS0_10connectionE
   fun:_ZN4adns2db18row_schema_version8get_rowsERNS0_10connectionE
   fun:_ZN4adns2db14schema_manager16update_or_createEv
   fun:main
}
{
   <insert_a_suppression_name_here>
   Memcheck:Free
   fun:free
   fun:_ZN4argo5lexerD1Ev
   fun:_ZN4argo6parser5parseEv
   fun:_ZN4argo6parser5parseERSi
   fun:_ZN4argo6parser5parseEPKc
   fun:_ZN4adns2db18mongodb_row_helper10fetch_rowsERNS0_10connectionERKNS0_3rowE
   fun:_ZN4adns2db3row10fetch_rowsERNS0_10connectionE
   fun:_ZN4adns2db18row_schema_version8get_rowsERNS0_10connectionE
   fun:_ZN4adns2db14schema_manager16update_or_createEv
   fun:main
}
{
   <insert_a_suppression_name_here>
   Memcheck:Free
   fun:free
   fun:_ZN4argo5tokenD1Ev
   fun:_ZN4argo5lexerD1Ev
   fun:_ZN4argo6parser5parseEv
   fun:_ZN4argo6parser5parseERSi
   fun:_ZN4argo6parser5parseEPKc
   fun:_ZN4adns2db18mongodb_row_helper10fetch_rowsERNS0_10connectionERKNS0_3rowE
   fun:_ZN4adns2db3row10fetch_rowsERNS0_10connectionE
   fun:_ZN4adns2db18row_schema_version8get_rowsERNS0_10connectionE
   fun:_ZN4adns2db14schema_manager16update_or_createEv
   fun:main
}
{
   <insert_a_suppression_name_here>
   Memcheck:Free
   fun:free
   fun:_ZNSt7__cxx1119basic_istringstreamIcSt11char_traitsIcESaIcEED1Ev
   fun:_ZN4argo6parser5parseEPKc
   fun:_ZN4adns2db18mongodb_row_helper10fetch_rowsERNS0_10connectionERKNS0_3rowE
   fun:_ZN4adns2db3row10fetch_rowsERNS0_10connectionE
   fun:_ZN4adns2db18row_schema_version8get_rowsERNS0_10connectionE
   fun:_ZN4adns2db14schema_manager16update_or_createEv
   fun:main
}
{
   <insert_a_suppression_name_here>
   Memcheck:Free
   fun:free
   fun:_ZN4adns2db6columnD1Ev
   fun:_ZN4adns2db18row_schema_version11init_staticEv
   fun:_ZNK4adns2db18row_schema_version11get_columnsEv
   fun:_ZN4adns2db3row16json_unserializeEv
   fun:_ZN4adns17json_serializable9from_jsonERKN4argo4jsonE
   fun:_ZN4adns2db18mongodb_row_helper10fetch_rowsERNS0_10connectionERKNS0_3rowE
   fun:_ZN4adns2db3row10fetch_rowsERNS0_10connectionE
   fun:_ZN4adns2db18row_schema_version8get_rowsERNS0_10connectionE
   fun:_ZN4adns2db14schema_manager16update_or_createEv
   fun:main
}
{
   <insert_a_suppression_name_here>
   Memcheck:Free
   fun:free
   fun:_ZN4adns2db18row_schema_version11init_staticEv
   fun:_ZNK4adns2db18row_schema_version11get_columnsEv
   fun:_ZN4adns2db3row16json_unserializeEv
   fun:_ZN4adns17json_serializable9from_jsonERKN4argo4jsonE
   fun:_ZN4adns2db18mongodb_row_helper10fetch_rowsERNS0_10connectionERKNS0_3rowE
   fun:_ZN4adns2db3row10fetch_rowsERNS0_10connectionE
   fun:_ZN4adns2db18row_schema_version8get_rowsERNS0_10connectionE
   fun:_ZN4adns2db14schema_manager16update_or_createEv
   fun:main
}
{
   <insert_a_suppression_name_here>
   Memcheck:Free
   fun:free
   fun:_ZN4adns2db6columnD1Ev
   fun:_ZSt8_DestroyIN4adns2db6columnEEvPT_
   fun:_ZNSt12_Destroy_auxILb0EE9__destroyIPN4adns2db6columnEEEvT_S6_
   fun:_ZSt8_DestroyIPN4adns2db6columnEEvT_S4_
   fun:_ZSt8_DestroyIPN4adns2db6columnES2_EvT_S4_RSaIT0_E
   fun:_ZNSt6vectorIN4adns2db6columnESaIS2_EE17_M_realloc_insertIJS2_EEEvN9__gnu_cxx17__normal_iteratorIPS2_S4_EEDpOT_
   fun:_ZNSt6vectorIN4adns2db6columnESaIS2_EE12emplace_backIJS2_EEERS2_DpOT_
   fun:_ZNSt6vectorIN4adns2db6columnESaIS2_EE9push_backEOS2_
   fun:_ZN4adns2db18row_schema_version11init_staticEv
   fun:_ZNK4adns2db18row_schema_version11get_columnsEv
   fun:_ZN4adns2db3row16json_unserializeEv
}
{
   <insert_a_suppression_name_here>
   Memcheck:Free
   fun:free
   fun:_ZN9__gnu_cxx13new_allocatorIN4adns2db6columnEE10deallocateEPS3_m
   fun:_ZNSt16allocator_traitsISaIN4adns2db6columnEEE10deallocateERS3_PS2_m
   fun:_ZNSt12_Vector_baseIN4adns2db6columnESaIS2_EE13_M_deallocateEPS2_m
   fun:_ZNSt6vectorIN4adns2db6columnESaIS2_EE17_M_realloc_insertIJS2_EEEvN9__gnu_cxx17__normal_iteratorIPS2_S4_EEDpOT_
   fun:_ZNSt6vectorIN4adns2db6columnESaIS2_EE12emplace_backIJS2_EEERS2_DpOT_
   fun:_ZNSt6vectorIN4adns2db6columnESaIS2_EE9push_backEOS2_
   fun:_ZN4adns2db18row_schema_version11init_staticEv
   fun:_ZNK4adns2db18row_schema_version11get_columnsEv
   fun:_ZN4adns2db3row16json_unserializeEv
   fun:_ZN4adns17json_serializable9from_jsonERKN4argo4jsonE
   fun:_ZN4adns2db18mongodb_row_helper10fetch_rowsERNS0_10connectionERKNS0_3rowE
}
{
   <insert_a_suppression_name_here>
   Memcheck:Free
   fun:free
   fun:_ZN4adns2db6columnD1Ev
   fun:_ZN4adns2db3row16json_unserializeEv
   fun:_ZN4adns17json_serializable9from_jsonERKN4argo4jsonE
   fun:_ZN4adns2db18mongodb_row_helper10fetch_rowsERNS0_10connectionERKNS0_3rowE
   fun:_ZN4adns2db3row10fetch_rowsERNS0_10connectionE
   fun:_ZN4adns2db18row_schema_version8get_rowsERNS0_10connectionE
   fun:_ZN4adns2db14schema_manager16update_or_createEv
   fun:main
}
{
   <insert_a_suppression_name_here>
   Memcheck:Free
   fun:free
   fun:_ZN4argo4json5resetEv
   fun:_ZN4argo4jsonD1Ev
   fun:_ZNKSt14default_deleteIN4argo4jsonEEclEPS1_
   fun:_ZNSt10unique_ptrIN4argo4jsonESt14default_deleteIS1_EED1Ev
   fun:_ZNSt4pairIKNSt7__cxx1112basic_stringIcSt11char_traitsIcESaIcEEESt10unique_ptrIN4argo4jsonESt14default_deleteIS9_EEED1Ev
   fun:_ZN9__gnu_cxx13new_allocatorISt13_Rb_tree_nodeISt4pairIKNSt7__cxx1112basic_stringIcSt11char_traitsIcESaIcEEESt10unique_ptrIN4argo4jsonESt14default_deleteISC_EEEEE7destroyISG_EEvPT_
   fun:_ZNSt16allocator_traitsISaISt13_Rb_tree_nodeISt4pairIKNSt7__cxx1112basic_stringIcSt11char_traitsIcESaIcEEESt10unique_ptrIN4argo4jsonESt14default_deleteISB_EEEEEE7destroyISF_EEvRSH_PT_
   fun:_ZNSt8_Rb_treeINSt7__cxx1112basic_stringIcSt11char_traitsIcESaIcEEESt4pairIKS5_St10unique_ptrIN4argo4jsonESt14default_deleteISA_EEESt10_Select1stISE_ESt4lessIS5_ESaISE_EE15_M_destroy_nodeEPSt13_Rb_tree_nodeISE_E
   fun:_ZNSt8_Rb_treeINSt7__cxx1112basic_stringIcSt11char_traitsIcESaIcEEESt4pairIKS5_St10unique_ptrIN4argo4jsonESt14default_deleteISA_EEESt10_Select1stISE_ESt4lessIS5_ESaISE_EE12_M_drop_nodeEPSt13_Rb_tree_nodeISE_E
   fun:_ZNSt8_Rb_treeINSt7__cxx1112basic_stringIcSt11char_traitsIcESaIcEEESt4pairIKS5_St10unique_ptrIN4argo4jsonESt14default_deleteISA_EEESt10_Select1stISE_ESt4lessIS5_ESaISE_EE8_M_eraseEPSt13_Rb_tree_nodeISE_E
   fun:_ZNSt8_Rb_treeINSt7__cxx1112basic_stringIcSt11char_traitsIcESaIcEEESt4pairIKS5_St10unique_ptrIN4argo4jsonESt14default_deleteISA_EEESt10_Select1stISE_ESt4lessIS5_ESaISE_EE8_M_eraseEPSt13_Rb_tree_nodeISE_E
}
{
   <insert_a_suppression_name_here>
   Memcheck:Free
   fun:free
   fun:_ZNKSt14default_deleteIN4argo4jsonEEclEPS1_
   fun:_ZNSt10unique_ptrIN4argo4jsonESt14default_deleteIS1_EED1Ev
   fun:_ZNSt4pairIKNSt7__cxx1112basic_stringIcSt11char_traitsIcESaIcEEESt10unique_ptrIN4argo4jsonESt14default_deleteIS9_EEED1Ev
   fun:_ZN9__gnu_cxx13new_allocatorISt13_Rb_tree_nodeISt4pairIKNSt7__cxx1112basic_stringIcSt11char_traitsIcESaIcEEESt10unique_ptrIN4argo4jsonESt14default_deleteISC_EEEEE7destroyISG_EEvPT_
   fun:_ZNSt16allocator_traitsISaISt13_Rb_tree_nodeISt4pairIKNSt7__cxx1112basic_stringIcSt11char_traitsIcESaIcEEESt10unique_ptrIN4argo4jsonESt14default_deleteISB_EEEEEE7destroyISF_EEvRSH_PT_
   fun:_ZNSt8_Rb_treeINSt7__cxx1112basic_stringIcSt11char_traitsIcESaIcEEESt4pairIKS5_St10unique_ptrIN4argo4jsonESt14default_deleteISA_EEESt10_Select1stISE_ESt4lessIS5_ESaISE_EE15_M_destroy_nodeEPSt13_Rb_tree_nodeISE_E
   fun:_ZNSt8_Rb_treeINSt7__cxx1112basic_stringIcSt11char_traitsIcESaIcEEESt4pairIKS5_St10unique_ptrIN4argo4jsonESt14default_deleteISA_EEESt10_Select1stISE_ESt4lessIS5_ESaISE_EE12_M_drop_nodeEPSt13_Rb_tree_nodeISE_E
   fun:_ZNSt8_Rb_treeINSt7__cxx1112basic_stringIcSt11char_traitsIcESaIcEEESt4pairIKS5_St10unique_ptrIN4argo4jsonESt14default_deleteISA_EEESt10_Select1stISE_ESt4lessIS5_ESaISE_EE8_M_eraseEPSt13_Rb_tree_nodeISE_E
   fun:_ZNSt8_Rb_treeINSt7__cxx1112basic_stringIcSt11char_traitsIcESaIcEEESt4pairIKS5_St10unique_ptrIN4argo4jsonESt14default_deleteISA_EEESt10_Select1stISE_ESt4lessIS5_ESaISE_EE8_M_eraseEPSt13_Rb_tree_nodeISE_E
   fun:_ZNSt8_Rb_treeINSt7__cxx1112basic_stringIcSt11char_traitsIcESaIcEEESt4pairIKS5_St10unique_ptrIN4argo4jsonESt14default_deleteISA_EEESt10_Select1stISE_ESt4lessIS5_ESaISE_EED1Ev
   fun:_ZNSt3mapINSt7__cxx1112basic_stringIcSt11char_traitsIcESaIcEEESt10unique_ptrIN4argo4jsonESt14default_deleteIS8_EESt4lessIS5_ESaISt4pairIKS5_SB_EEED1Ev
}
{
   <insert_a_suppression_name_here>
   Memcheck:Free
   fun:free
   fun:_ZN9__gnu_cxx13new_allocatorISt13_Rb_tree_nodeISt4pairIKNSt7__cxx1112basic_stringIcSt11char_traitsIcESaIcEEESt10unique_ptrIN4argo4jsonESt14default_deleteISC_EEEEE10deallocateEPSH_m
   fun:_ZNSt16allocator_traitsISaISt13_Rb_tree_nodeISt4pairIKNSt7__cxx1112basic_stringIcSt11char_traitsIcESaIcEEESt10unique_ptrIN4argo4jsonESt14default_deleteISB_EEEEEE10deallocateERSH_PSG_m
   fun:_ZNSt8_Rb_treeINSt7__cxx1112basic_stringIcSt11char_traitsIcESaIcEEESt4pairIKS5_St10unique_ptrIN4argo4jsonESt14default_deleteISA_EEESt10_Select1stISE_ESt4lessIS5_ESaISE_EE11_M_put_nodeEPSt13_Rb_tree_nodeISE_E
   fun:_ZNSt8_Rb_treeINSt7__cxx1112basic_stringIcSt11char_traitsIcESaIcEEESt4pairIKS5_St10unique_ptrIN4argo4jsonESt14default_deleteISA_EEESt10_Select1stISE_ESt4lessIS5_ESaISE_EE12_M_drop_nodeEPSt13_Rb_tree_nodeISE_E
   fun:_ZNSt8_Rb_treeINSt7__cxx1112basic_stringIcSt11char_traitsIcESaIcEEESt4pairIKS5_St10unique_ptrIN4argo4jsonESt14default_deleteISA_EEESt10_Select1stISE_ESt4lessIS5_ESaISE_EE8_M_eraseEPSt13_Rb_tree_nodeISE_E
   fun:_ZNSt8_Rb_treeINSt7__cxx1112basic_stringIcSt11char_traitsIcESaIcEEESt4pairIKS5_St10unique_ptrIN4argo4jsonESt14default_deleteISA_EEESt10_Select1stISE_ESt4lessIS5_ESaISE_EE8_M_eraseEPSt13_Rb_tree_nodeISE_E
   fun:_ZNSt8_Rb_treeINSt7__cxx1112basic_stringIcSt11char_traitsIcESaIcEEESt4pairIKS5_St10unique_ptrIN4argo4jsonESt14default_deleteISA_EEESt10_Select1stISE_ESt4lessIS5_ESaISE_EED1Ev
   fun:_ZNSt3mapINSt7__cxx1112basic_stringIcSt11char_traitsIcESaIcEEESt10unique_ptrIN4argo4jsonESt14default_deleteIS8_EESt4lessIS5_ESaISt4pairIKS5_SB_EEED1Ev
   fun:_ZN4argo4json5resetEv
   fun:_ZN4argo4jsonD1Ev
   fun:_ZNKSt14default_deleteIN4argo4jsonEEclEPS1_
}
{
   <insert_a_suppression_name_here>
   Memcheck:Free
   fun:free
   fun:_ZNSt4pairIKNSt7__cxx1112basic_stringIcSt11char_traitsIcESaIcEEESt10unique_ptrIN4argo4jsonESt14default_deleteIS9_EEED1Ev
   fun:_ZN9__gnu_cxx13new_allocatorISt13_Rb_tree_nodeISt4pairIKNSt7__cxx1112basic_stringIcSt11char_traitsIcESaIcEEESt10unique_ptrIN4argo4jsonESt14default_deleteISC_EEEEE7destroyISG_EEvPT_
   fun:_ZNSt16allocator_traitsISaISt13_Rb_tree_nodeISt4pairIKNSt7__cxx1112basic_stringIcSt11char_traitsIcESaIcEEESt10unique_ptrIN4argo4jsonESt14default_deleteISB_EEEEEE7destroyISF_EEvRSH_PT_
   fun:_ZNSt8_Rb_treeINSt7__cxx1112basic_stringIcSt11char_traitsIcESaIcEEESt4pairIKS5_St10unique_ptrIN4argo4jsonESt14default_deleteISA_EEESt10_Select1stISE_ESt4lessIS5_ESaISE_EE15_M_destroy_nodeEPSt13_Rb_tree_nodeISE_E
   fun:_ZNSt8_Rb_treeINSt7__cxx1112basic_stringIcSt11char_traitsIcESaIcEEESt4pairIKS5_St10unique_ptrIN4argo4jsonESt14default_deleteISA_EEESt10_Select1stISE_ESt4lessIS5_ESaISE_EE12_M_drop_nodeEPSt13_Rb_tree_nodeISE_E
   fun:_ZNSt8_Rb_treeINSt7__cxx1112basic_stringIcSt11char_traitsIcESaIcEEESt4pairIKS5_St10unique_ptrIN4argo4jsonESt14default_deleteISA_EEESt10_Select1stISE_ESt4lessIS5_ESaISE_EE8_M_eraseEPSt13_Rb_tree_nodeISE_E
   fun:_ZNSt8_Rb_treeINSt7__cxx1112basic_stringIcSt11char_traitsIcESaIcEEESt4pairIKS5_St10unique_ptrIN4argo4jsonESt14default_deleteISA_EEESt10_Select1stISE_ESt4lessIS5_ESaISE_EED1Ev
   fun:_ZNSt3mapINSt7__cxx1112basic_stringIcSt11char_traitsIcESaIcEEESt10unique_ptrIN4argo4jsonESt14default_deleteIS8_EESt4lessIS5_ESaISt4pairIKS5_SB_EEED1Ev
   fun:_ZN4argo4json5resetEv
   fun:_ZN4argo4jsonD1Ev
   fun:_ZNKSt14default_deleteIN4argo4jsonEEclEPS1_
}
{
   <insert_a_suppression_name_here>
   Memcheck:Free
   fun:free
   fun:_ZN4argo4json5resetEv
   fun:_ZN4argo4jsonD1Ev
   fun:_ZNKSt14default_deleteIN4argo4jsonEEclEPS1_
   fun:_ZNSt10unique_ptrIN4argo4jsonESt14default_deleteIS1_EED1Ev
   fun:_ZNSt4pairIKNSt7__cxx1112basic_stringIcSt11char_traitsIcESaIcEEESt10unique_ptrIN4argo4jsonESt14default_deleteIS9_EEED1Ev
   fun:_ZN9__gnu_cxx13new_allocatorISt13_Rb_tree_nodeISt4pairIKNSt7__cxx1112basic_stringIcSt11char_traitsIcESaIcEEESt10unique_ptrIN4argo4jsonESt14default_deleteISC_EEEEE7destroyISG_EEvPT_
   fun:_ZNSt16allocator_traitsISaISt13_Rb_tree_nodeISt4pairIKNSt7__cxx1112basic_stringIcSt11char_traitsIcESaIcEEESt10unique_ptrIN4argo4jsonESt14default_deleteISB_EEEEEE7destroyISF_EEvRSH_PT_
   fun:_ZNSt8_Rb_treeINSt7__cxx1112basic_stringIcSt11char_traitsIcESaIcEEESt4pairIKS5_St10unique_ptrIN4argo4jsonESt14default_deleteISA_EEESt10_Select1stISE_ESt4lessIS5_ESaISE_EE15_M_destroy_nodeEPSt13_Rb_tree_nodeISE_E
   fun:_ZNSt8_Rb_treeINSt7__cxx1112basic_stringIcSt11char_traitsIcESaIcEEESt4pairIKS5_St10unique_ptrIN4argo4jsonESt14default_deleteISA_EEESt10_Select1stISE_ESt4lessIS5_ESaISE_EE12_M_drop_nodeEPSt13_Rb_tree_nodeISE_E
   fun:_ZNSt8_Rb_treeINSt7__cxx1112basic_stringIcSt11char_traitsIcESaIcEEESt4pairIKS5_St10unique_ptrIN4argo4jsonESt14default_deleteISA_EEESt10_Select1stISE_ESt4lessIS5_ESaISE_EE8_M_eraseEPSt13_Rb_tree_nodeISE_E
   fun:_ZNSt8_Rb_treeINSt7__cxx1112basic_stringIcSt11char_traitsIcESaIcEEESt4pairIKS5_St10unique_ptrIN4argo4jsonESt14default_deleteISA_EEESt10_Select1stISE_ESt4lessIS5_ESaISE_EED1Ev
}
{
   <insert_a_suppression_name_here>
   Memcheck:Free
   fun:free
   fun:_ZN4argo4json5resetEv
   fun:_ZN4argo4jsonD1Ev
   fun:_ZNKSt14default_deleteIN4argo4jsonEEclEPS1_
   fun:_ZNSt10unique_ptrIN4argo4jsonESt14default_deleteIS1_EED1Ev
   fun:_ZNSt4pairIKNSt7__cxx1112basic_stringIcSt11char_traitsIcESaIcEEESt10unique_ptrIN4argo4jsonESt14default_deleteIS9_EEED1Ev
   fun:_ZN9__gnu_cxx13new_allocatorISt13_Rb_tree_nodeISt4pairIKNSt7__cxx1112basic_stringIcSt11char_traitsIcESaIcEEESt10unique_ptrIN4argo4jsonESt14default_deleteISC_EEEEE7destroyISG_EEvPT_
   fun:_ZNSt16allocator_traitsISaISt13_Rb_tree_nodeISt4pairIKNSt7__cxx1112basic_stringIcSt11char_traitsIcESaIcEEESt10unique_ptrIN4argo4jsonESt14default_deleteISB_EEEEEE7destroyISF_EEvRSH_PT_
   fun:_ZNSt8_Rb_treeINSt7__cxx1112basic_stringIcSt11char_traitsIcESaIcEEESt4pairIKS5_St10unique_ptrIN4argo4jsonESt14default_deleteISA_EEESt10_Select1stISE_ESt4lessIS5_ESaISE_EE15_M_destroy_nodeEPSt13_Rb_tree_nodeISE_E
   fun:_ZNSt8_Rb_treeINSt7__cxx1112basic_stringIcSt11char_traitsIcESaIcEEESt4pairIKS5_St10unique_ptrIN4argo4jsonESt14default_deleteISA_EEESt10_Select1stISE_ESt4lessIS5_ESaISE_EE12_M_drop_nodeEPSt13_Rb_tree_nodeISE_E
   fun:_ZNSt8_Rb_treeINSt7__cxx1112basic_stringIcSt11char_traitsIcESaIcEEESt4pairIKS5_St10unique_ptrIN4argo4jsonESt14default_deleteISA_EEESt10_Select1stISE_ESt4lessIS5_ESaISE_EE8_M_eraseEPSt13_Rb_tree_nodeISE_E
   fun:_ZNSt8_Rb_treeINSt7__cxx1112basic_stringIcSt11char_traitsIcESaIcEEESt4pairIKS5_St10unique_ptrIN4argo4jsonESt14default_deleteISA_EEESt10_Select1stISE_ESt4lessIS5_ESaISE_EED1Ev
}
{
   <insert_a_suppression_name_here>
   Memcheck:Free
   fun:free
   fun:_ZNKSt14default_deleteIN4argo4jsonEEclEPS1_
   fun:_ZNSt10unique_ptrIN4argo4jsonESt14default_deleteIS1_EED1Ev
   fun:_ZN4adns2db18mongodb_row_helper10fetch_rowsERNS0_10connectionERKNS0_3rowE
   fun:_ZN4adns2db3row10fetch_rowsERNS0_10connectionE
   fun:_ZN4adns2db18row_schema_version8get_rowsERNS0_10connectionE
   fun:_ZN4adns2db14schema_manager16update_or_createEv
   fun:main
}
{
   <insert_a_suppression_name_here>
   Memcheck:Free
   fun:free
   fun:_ZN9__gnu_cxx13new_allocatorIPN4adns2db3rowEE10deallocateEPS4_m
   fun:_ZNSt16allocator_traitsISaIPN4adns2db3rowEEE10deallocateERS4_PS3_m
   fun:_ZNSt12_Vector_baseIPN4adns2db3rowESaIS3_EE13_M_deallocateEPS3_m
   fun:_ZNSt12_Vector_baseIPN4adns2db3rowESaIS3_EED1Ev
   fun:_ZNSt6vectorIPN4adns2db3rowESaIS3_EED1Ev
   fun:_ZN4adns2db18row_schema_version8get_rowsERNS0_10connectionE
   fun:_ZN4adns2db14schema_manager16update_or_createEv
   fun:main
}
{
   <insert_a_suppression_name_here>
   Memcheck:Free
   fun:free
   fun:_ZN4adns2db3rowD1Ev
   fun:_ZN4adns2db18row_schema_versionD1Ev
   fun:_ZN4adns2db18row_schema_versionD0Ev
   fun:_ZNSt15_Sp_counted_ptrIPN4adns2db18row_schema_versionELN9__gnu_cxx12_Lock_policyE2EE10_M_disposeEv
   fun:_ZNSt16_Sp_counted_baseILN9__gnu_cxx12_Lock_policyE2EE10_M_releaseEv
   fun:_ZNSt14__shared_countILN9__gnu_cxx12_Lock_policyE2EED1Ev
   fun:_ZNSt12__shared_ptrIN4adns2db18row_schema_versionELN9__gnu_cxx12_Lock_policyE2EED1Ev
   fun:_ZNSt10shared_ptrIN4adns2db18row_schema_versionEED1Ev
   fun:_ZSt8_DestroyISt10shared_ptrIN4adns2db18row_schema_versionEEEvPT_
   fun:_ZNSt12_Destroy_auxILb0EE9__destroyIPSt10shared_ptrIN4adns2db18row_schema_versionEEEEvT_S8_
   fun:_ZSt8_DestroyIPSt10shared_ptrIN4adns2db18row_schema_versionEEEvT_S6_
}
{
   <insert_a_suppression_name_here>
   Memcheck:Free
   fun:free
   fun:_ZN4argo4json5resetEv
   fun:_ZN4argo4jsonD1Ev
   fun:_ZN9__gnu_cxx13new_allocatorIN4argo4jsonEE7destroyIS2_EEvPT_
   fun:_ZNSt16allocator_traitsISaIN4argo4jsonEEE7destroyIS1_EEvRS2_PT_
   fun:_ZNSt23_Sp_counted_ptr_inplaceIN4argo4jsonESaIS1_ELN9__gnu_cxx12_Lock_policyE2EE10_M_disposeEv
   fun:_ZNSt16_Sp_counted_baseILN9__gnu_cxx12_Lock_policyE2EE10_M_releaseEv
   fun:_ZNSt14__shared_countILN9__gnu_cxx12_Lock_policyE2EED1Ev
   fun:_ZNSt12__shared_ptrIN4argo4jsonELN9__gnu_cxx12_Lock_policyE2EED1Ev
   fun:_ZNSt10shared_ptrIN4argo4jsonEED1Ev
   fun:_ZN4adns17json_serializableD1Ev
   fun:_ZN4adns2db3rowD1Ev
}
{
   <insert_a_suppression_name_here>
   Memcheck:Free
   fun:free
   fun:_ZN9__gnu_cxx13new_allocatorISt23_Sp_counted_ptr_inplaceIN4argo4jsonESaIS3_ELNS_12_Lock_policyE2EEE10deallocateEPS6_m
   fun:_ZNSt16allocator_traitsISaISt23_Sp_counted_ptr_inplaceIN4argo4jsonESaIS2_ELN9__gnu_cxx12_Lock_policyE2EEEE10deallocateERS7_PS6_m
   fun:_ZNSt15__allocated_ptrISaISt23_Sp_counted_ptr_inplaceIN4argo4jsonESaIS2_ELN9__gnu_cxx12_Lock_policyE2EEEED1Ev
   fun:_ZNSt23_Sp_counted_ptr_inplaceIN4argo4jsonESaIS1_ELN9__gnu_cxx12_Lock_policyE2EE10_M_destroyEv
   fun:_ZNSt16_Sp_counted_baseILN9__gnu_cxx12_Lock_policyE2EE10_M_releaseEv
   fun:_ZNSt14__shared_countILN9__gnu_cxx12_Lock_policyE2EED1Ev
   fun:_ZNSt12__shared_ptrIN4argo4jsonELN9__gnu_cxx12_Lock_policyE2EED1Ev
   fun:_ZNSt10shared_ptrIN4argo4jsonEED1Ev
   fun:_ZN4adns17json_serializableD1Ev
   fun:_ZN4adns2db3rowD1Ev
   fun:_ZN4adns2db18row_schema_versionD1Ev
}
{
   <insert_a_suppression_name_here>
   Memcheck:Free
   fun:free
   fun:_ZN4adns2db18row_schema_versionD0Ev
   fun:_ZNSt15_Sp_counted_ptrIPN4adns2db18row_schema_versionELN9__gnu_cxx12_Lock_policyE2EE10_M_disposeEv
   fun:_ZNSt16_Sp_counted_baseILN9__gnu_cxx12_Lock_policyE2EE10_M_releaseEv
   fun:_ZNSt14__shared_countILN9__gnu_cxx12_Lock_policyE2EED1Ev
   fun:_ZNSt12__shared_ptrIN4adns2db18row_schema_versionELN9__gnu_cxx12_Lock_policyE2EED1Ev
   fun:_ZNSt10shared_ptrIN4adns2db18row_schema_versionEED1Ev
   fun:_ZSt8_DestroyISt10shared_ptrIN4adns2db18row_schema_versionEEEvPT_
   fun:_ZNSt12_Destroy_auxILb0EE9__destroyIPSt10shared_ptrIN4adns2db18row_schema_versionEEEEvT_S8_
   fun:_ZSt8_DestroyIPSt10shared_ptrIN4adns2db18row_schema_versionEEEvT_S6_
   fun:_ZSt8_DestroyIPSt10shared_ptrIN4adns2db18row_schema_versionEES4_EvT_S6_RSaIT0_E
   fun:_ZNSt6vectorISt10shared_ptrIN4adns2db18row_schema_versionEESaIS4_EED1Ev
}
{
   <insert_a_suppression_name_here>
   Memcheck:Free
   fun:free
   fun:_ZNSt15_Sp_counted_ptrIPN4adns2db18row_schema_versionELN9__gnu_cxx12_Lock_policyE2EED0Ev
   fun:_ZNSt15_Sp_counted_ptrIPN4adns2db18row_schema_versionELN9__gnu_cxx12_Lock_policyE2EE10_M_destroyEv
   fun:_ZNSt16_Sp_counted_baseILN9__gnu_cxx12_Lock_policyE2EE10_M_releaseEv
   fun:_ZNSt14__shared_countILN9__gnu_cxx12_Lock_policyE2EED1Ev
   fun:_ZNSt12__shared_ptrIN4adns2db18row_schema_versionELN9__gnu_cxx12_Lock_policyE2EED1Ev
   fun:_ZNSt10shared_ptrIN4adns2db18row_schema_versionEED1Ev
   fun:_ZSt8_DestroyISt10shared_ptrIN4adns2db18row_schema_versionEEEvPT_
   fun:_ZNSt12_Destroy_auxILb0EE9__destroyIPSt10shared_ptrIN4adns2db18row_schema_versionEEEEvT_S8_
   fun:_ZSt8_DestroyIPSt10shared_ptrIN4adns2db18row_schema_versionEEEvT_S6_
   fun:_ZSt8_DestroyIPSt10shared_ptrIN4adns2db18row_schema_versionEES4_EvT_S6_RSaIT0_E
   fun:_ZNSt6vectorISt10shared_ptrIN4adns2db18row_schema_versionEESaIS4_EED1Ev
}
{
   <insert_a_suppression_name_here>
   Memcheck:Free
   fun:free
   fun:_ZN9__gnu_cxx13new_allocatorISt10shared_ptrIN4adns2db18row_schema_versionEEE10deallocateEPS5_m
   fun:_ZNSt16allocator_traitsISaISt10shared_ptrIN4adns2db18row_schema_versionEEEE10deallocateERS5_PS4_m
   fun:_ZNSt12_Vector_baseISt10shared_ptrIN4adns2db18row_schema_versionEESaIS4_EE13_M_deallocateEPS4_m
   fun:_ZNSt12_Vector_baseISt10shared_ptrIN4adns2db18row_schema_versionEESaIS4_EED1Ev
   fun:_ZNSt6vectorISt10shared_ptrIN4adns2db18row_schema_versionEESaIS4_EED1Ev
   fun:_ZN4adns2db14schema_manager16update_or_createEv
   fun:main
}
{
   <insert_a_suppression_name_here>
   Memcheck:Free
   fun:free
   fun:_ZN9__gnu_cxx13new_allocatorISt23_Sp_counted_ptr_inplaceIN4adns2db16connection_guardESaIS4_ELNS_12_Lock_policyE2EEE10deallocateEPS7_m
   fun:_ZNSt16allocator_traitsISaISt23_Sp_counted_ptr_inplaceIN4adns2db16connection_guardESaIS3_ELN9__gnu_cxx12_Lock_policyE2EEEE10deallocateERS8_PS7_m
   fun:_ZNSt15__allocated_ptrISaISt23_Sp_counted_ptr_inplaceIN4adns2db16connection_guardESaIS3_ELN9__gnu_cxx12_Lock_policyE2EEEED1Ev
   fun:_ZNSt23_Sp_counted_ptr_inplaceIN4adns2db16connection_guardESaIS2_ELN9__gnu_cxx12_Lock_policyE2EE10_M_destroyEv
   fun:_ZNSt16_Sp_counted_baseILN9__gnu_cxx12_Lock_policyE2EE10_M_releaseEv
   fun:_ZNSt14__shared_countILN9__gnu_cxx12_Lock_policyE2EED1Ev
   fun:_ZNSt12__shared_ptrIN4adns2db16connection_guardELN9__gnu_cxx12_Lock_policyE2EED1Ev
   fun:_ZNSt10shared_ptrIN4adns2db16connection_guardEED1Ev
   fun:_ZN4adns2db14schema_manager16update_or_createEv
   fun:main
}
{
   <insert_a_suppression_name_here>
   Memcheck:Free
   fun:free
   fun:_ZN5boost13property_tree11string_pathINSt7__cxx1112basic_stringIcSt11char_traitsIcESaIcEEENS0_13id_translatorIS7_EEED1Ev
   fun:_ZN4adns6config14init_db_configEv
   fun:_ZN4adns6config11init_configEv
   fun:main
}
{
   <insert_a_suppression_name_here>
   Memcheck:Free
   fun:free
   fun:_ZN5boost13property_tree11string_pathINSt7__cxx1112basic_stringIcSt11char_traitsIcESaIcEEENS0_13id_translatorIS7_EEED1Ev
   fun:_ZN4adns6config14init_db_configEv
   fun:_ZN4adns6config11init_configEv
   fun:main
}
{
   <insert_a_suppression_name_here>
   Memcheck:Free
   fun:free
   fun:_ZN5boost13property_tree11string_pathINSt7__cxx1112basic_stringIcSt11char_traitsIcESaIcEEENS0_13id_translatorIS7_EEED1Ev
   fun:_ZN4adns6config14init_db_configEv
   fun:_ZN4adns6config11init_configEv
   fun:main
}
{
   <insert_a_suppression_name_here>
   Memcheck:Free
   fun:free
   fun:_ZN4adns6config14init_db_configEv
   fun:_ZN4adns6config11init_configEv
   fun:main
}
{
   <insert_a_suppression_name_here>
   Memcheck:Free
   fun:free
   fun:_ZN9__gnu_cxx13new_allocatorISt10_List_nodeIN4adns2db15connection_pool12connection_tEEE10deallocateEPS6_m
   fun:_ZNSt16allocator_traitsISaISt10_List_nodeIN4adns2db15connection_pool12connection_tEEEE10deallocateERS6_PS5_m
   fun:_ZNSt7__cxx1110_List_baseIN4adns2db15connection_pool12connection_tESaIS4_EE11_M_put_nodeEPSt10_List_nodeIS4_E
   fun:_ZNSt7__cxx114listIN4adns2db15connection_pool12connection_tESaIS4_EE8_M_eraseESt14_List_iteratorIS4_E
   fun:_ZNSt7__cxx114listIN4adns2db15connection_pool12connection_tESaIS4_EE9pop_frontEv
   fun:_ZN4adns2db15connection_pool14get_connectionEv
   fun:_ZN4adns13config_reader4readEv
   fun:_ZN4adns6config11init_configEv
   fun:main
}
{
   <insert_a_suppression_name_here>
   Memcheck:Free
   fun:free
   fun:_ZN4adns2db6columnD1Ev
   fun:_ZN4adns2db25row_server_socket_address11init_staticEv
   fun:_ZN4adns2db25row_server_socket_address16get_by_server_idERNS0_10connectionEj
   fun:_ZN4adns13config_reader4readEv
   fun:_ZN4adns6config11init_configEv
   fun:main
}
{
   <insert_a_suppression_name_here>
   Memcheck:Free
   fun:free
   fun:_ZN4adns2db25row_server_socket_address11init_staticEv
   fun:_ZN4adns2db25row_server_socket_address16get_by_server_idERNS0_10connectionEj
   fun:_ZN4adns13config_reader4readEv
   fun:_ZN4adns6config11init_configEv
   fun:main
}
{
   <insert_a_suppression_name_here>
   Memcheck:Free
   fun:free
   fun:_ZN4adns2db18mongodb_row_helper10fetch_rowsERNS0_10connectionERKNS0_6columnEjRKNS0_3rowE
   fun:_ZN4adns2db3row10fetch_rowsERNS0_10connectionERKNS0_6columnEj
   fun:_ZN4adns2db25row_server_socket_address16get_by_server_idERNS0_10connectionEj
   fun:_ZN4adns13config_reader4readEv
   fun:_ZN4adns6config11init_configEv
   fun:main
}
{
   <insert_a_suppression_name_here>
   Memcheck:Free
   fun:free
   fun:_ZN4adns2db18mongodb_row_helper10fetch_rowsERNS0_10connectionERKNS0_6columnEjRKNS0_3rowE
   fun:_ZN4adns2db3row10fetch_rowsERNS0_10connectionERKNS0_6columnEj
   fun:_ZN4adns2db25row_server_socket_address16get_by_server_idERNS0_10connectionEj
   fun:_ZN4adns13config_reader4readEv
   fun:_ZN4adns6config11init_configEv
   fun:main
}
{
   <insert_a_suppression_name_here>
   Memcheck:Free
   fun:free
   fun:_ZN4argo6parser5parseEPKc
   fun:_ZN4adns2db18mongodb_row_helper10fetch_rowsERNS0_10connectionERKNS0_6columnEjRKNS0_3rowE
   fun:_ZN4adns2db3row10fetch_rowsERNS0_10connectionERKNS0_6columnEj
   fun:_ZN4adns2db25row_server_socket_address16get_by_server_idERNS0_10connectionEj
   fun:_ZN4adns13config_reader4readEv
   fun:_ZN4adns6config11init_configEv
   fun:main
}
{
   <insert_a_suppression_name_here>
   Memcheck:Free
   fun:free
   fun:_ZNSt7__cxx1119basic_istringstreamIcSt11char_traitsIcESaIcEED1Ev
   fun:_ZN4argo6parser5parseEPKc
   fun:_ZN4adns2db18mongodb_row_helper10fetch_rowsERNS0_10connectionERKNS0_6columnEjRKNS0_3rowE
   fun:_ZN4adns2db3row10fetch_rowsERNS0_10connectionERKNS0_6columnEj
   fun:_ZN4adns2db25row_server_socket_address16get_by_server_idERNS0_10connectionEj
   fun:_ZN4adns13config_reader4readEv
   fun:_ZN4adns6config11init_configEv
   fun:main
}
{
   <insert_a_suppression_name_here>
   Memcheck:Free
   fun:free
   fun:_ZNKSt14default_deleteIN4argo4jsonEEclEPS1_
   fun:_ZNSt10unique_ptrIN4argo4jsonESt14default_deleteIS1_EED1Ev
   fun:_ZN4adns2db18mongodb_row_helper10fetch_rowsERNS0_10connectionERKNS0_6columnEjRKNS0_3rowE
   fun:_ZN4adns2db3row10fetch_rowsERNS0_10connectionERKNS0_6columnEj
   fun:_ZN4adns2db25row_server_socket_address16get_by_server_idERNS0_10connectionEj
   fun:_ZN4adns13config_reader4readEv
   fun:_ZN4adns6config11init_configEv
   fun:main
}
{
   <insert_a_suppression_name_here>
   Memcheck:Free
   fun:free
   fun:_ZN4adns2db3rowD1Ev
   fun:_ZN4adns2db25row_server_socket_addressD1Ev
   fun:_ZN4adns2db25row_server_socket_addressD0Ev
   fun:_ZNSt15_Sp_counted_ptrIPN4adns2db25row_server_socket_addressELN9__gnu_cxx12_Lock_policyE2EE10_M_disposeEv
   fun:_ZNSt16_Sp_counted_baseILN9__gnu_cxx12_Lock_policyE2EE10_M_releaseEv
   fun:_ZNSt14__shared_countILN9__gnu_cxx12_Lock_policyE2EED1Ev
   fun:_ZNSt12__shared_ptrIN4adns2db25row_server_socket_addressELN9__gnu_cxx12_Lock_policyE2EED1Ev
   fun:_ZNSt10shared_ptrIN4adns2db25row_server_socket_addressEED1Ev
   fun:_ZSt8_DestroyISt10shared_ptrIN4adns2db25row_server_socket_addressEEEvPT_
   fun:_ZNSt12_Destroy_auxILb0EE9__destroyIPSt10shared_ptrIN4adns2db25row_server_socket_addressEEEEvT_S8_
   fun:_ZSt8_DestroyIPSt10shared_ptrIN4adns2db25row_server_socket_addressEEEvT_S6_
}
{
   <insert_a_suppression_name_here>
   Memcheck:Free
   fun:free
   fun:_ZN4adns2db25row_server_socket_addressD0Ev
   fun:_ZNSt15_Sp_counted_ptrIPN4adns2db25row_server_socket_addressELN9__gnu_cxx12_Lock_policyE2EE10_M_disposeEv
   fun:_ZNSt16_Sp_counted_baseILN9__gnu_cxx12_Lock_policyE2EE10_M_releaseEv
   fun:_ZNSt14__shared_countILN9__gnu_cxx12_Lock_policyE2EED1Ev
   fun:_ZNSt12__shared_ptrIN4adns2db25row_server_socket_addressELN9__gnu_cxx12_Lock_policyE2EED1Ev
   fun:_ZNSt10shared_ptrIN4adns2db25row_server_socket_addressEED1Ev
   fun:_ZSt8_DestroyISt10shared_ptrIN4adns2db25row_server_socket_addressEEEvPT_
   fun:_ZNSt12_Destroy_auxILb0EE9__destroyIPSt10shared_ptrIN4adns2db25row_server_socket_addressEEEEvT_S8_
   fun:_ZSt8_DestroyIPSt10shared_ptrIN4adns2db25row_server_socket_addressEEEvT_S6_
   fun:_ZSt8_DestroyIPSt10shared_ptrIN4adns2db25row_server_socket_addressEES4_EvT_S6_RSaIT0_E
   fun:_ZNSt6vectorISt10shared_ptrIN4adns2db25row_server_socket_addressEESaIS4_EED1Ev
}
{
   <insert_a_suppression_name_here>
   Memcheck:Free
   fun:free
   fun:_ZNSt15_Sp_counted_ptrIPN4adns2db25row_server_socket_addressELN9__gnu_cxx12_Lock_policyE2EED0Ev
   fun:_ZNSt15_Sp_counted_ptrIPN4adns2db25row_server_socket_addressELN9__gnu_cxx12_Lock_policyE2EE10_M_destroyEv
   fun:_ZNSt16_Sp_counted_baseILN9__gnu_cxx12_Lock_policyE2EE10_M_releaseEv
   fun:_ZNSt14__shared_countILN9__gnu_cxx12_Lock_policyE2EED1Ev
   fun:_ZNSt12__shared_ptrIN4adns2db25row_server_socket_addressELN9__gnu_cxx12_Lock_policyE2EED1Ev
   fun:_ZNSt10shared_ptrIN4adns2db25row_server_socket_addressEED1Ev
   fun:_ZSt8_DestroyISt10shared_ptrIN4adns2db25row_server_socket_addressEEEvPT_
   fun:_ZNSt12_Destroy_auxILb0EE9__destroyIPSt10shared_ptrIN4adns2db25row_server_socket_addressEEEEvT_S8_
   fun:_ZSt8_DestroyIPSt10shared_ptrIN4adns2db25row_server_socket_addressEEEvT_S6_
   fun:_ZSt8_DestroyIPSt10shared_ptrIN4adns2db25row_server_socket_addressEES4_EvT_S6_RSaIT0_E
   fun:_ZNSt6vectorISt10shared_ptrIN4adns2db25row_server_socket_addressEESaIS4_EED1Ev
}
{
   <insert_a_suppression_name_here>
   Memcheck:Free
   fun:free
   fun:_ZN9__gnu_cxx13new_allocatorISt10shared_ptrIN4adns2db25row_server_socket_addressEEE10deallocateEPS5_m
   fun:_ZNSt16allocator_traitsISaISt10shared_ptrIN4adns2db25row_server_socket_addressEEEE10deallocateERS5_PS4_m
   fun:_ZNSt12_Vector_baseISt10shared_ptrIN4adns2db25row_server_socket_addressEESaIS4_EE13_M_deallocateEPS4_m
   fun:_ZNSt12_Vector_baseISt10shared_ptrIN4adns2db25row_server_socket_addressEESaIS4_EED1Ev
   fun:_ZNSt6vectorISt10shared_ptrIN4adns2db25row_server_socket_addressEESaIS4_EED1Ev
   fun:_ZN4adns13config_reader4readEv
   fun:_ZN4adns6config11init_configEv
   fun:main
}
{
   <insert_a_suppression_name_here>
   Memcheck:Free
   fun:free
   fun:_ZN4adns2db6columnD1Ev
   fun:_ZN4adns2db14row_dns_server11init_staticEv
   fun:_ZN4adns2db14row_dns_server16get_by_server_idERNS0_10connectionEj
   fun:_ZN4adns13config_reader4readEv
   fun:_ZN4adns6config11init_configEv
   fun:main
}
{
   <insert_a_suppression_name_here>
   Memcheck:Free
   fun:free
   fun:_ZN4adns2db14row_dns_server11init_staticEv
   fun:_ZN4adns2db14row_dns_server16get_by_server_idERNS0_10connectionEj
   fun:_ZN4adns13config_reader4readEv
   fun:_ZN4adns6config11init_configEv
   fun:main
}
{
   <insert_a_suppression_name_here>
   Memcheck:Free
   fun:free
   fun:_ZN4adns2db6columnD1Ev
   fun:_ZN4adns2db14row_dns_server11init_staticEv
   fun:_ZN4adns2db14row_dns_server16get_by_server_idERNS0_10connectionEj
   fun:_ZN4adns13config_reader4readEv
   fun:_ZN4adns6config11init_configEv
   fun:main
}
{
   <insert_a_suppression_name_here>
   Memcheck:Free
   fun:free
   fun:_ZN4adns2db14row_dns_server11init_staticEv
   fun:_ZN4adns2db14row_dns_server16get_by_server_idERNS0_10connectionEj
   fun:_ZN4adns13config_reader4readEv
   fun:_ZN4adns6config11init_configEv
   fun:main
}
{
   <insert_a_suppression_name_here>
   Memcheck:Free
   fun:free
   fun:_ZN4adns2db6columnD1Ev
   fun:_ZN4adns2db14row_dns_server11init_staticEv
   fun:_ZN4adns2db14row_dns_server16get_by_server_idERNS0_10connectionEj
   fun:_ZN4adns13config_reader4readEv
   fun:_ZN4adns6config11init_configEv
   fun:main
}
{
   <insert_a_suppression_name_here>
   Memcheck:Free
   fun:free
   fun:_ZN4adns2db14row_dns_server11init_staticEv
   fun:_ZN4adns2db14row_dns_server16get_by_server_idERNS0_10connectionEj
   fun:_ZN4adns13config_reader4readEv
   fun:_ZN4adns6config11init_configEv
   fun:main
}
{
   <insert_a_suppression_name_here>
   Memcheck:Free
   fun:free
   fun:_ZN4adns2db6columnD1Ev
   fun:_ZN4adns2db14row_dns_server11init_staticEv
   fun:_ZN4adns2db14row_dns_server16get_by_server_idERNS0_10connectionEj
   fun:_ZN4adns13config_reader4readEv
   fun:_ZN4adns6config11init_configEv
   fun:main
}
{
   <insert_a_suppression_name_here>
   Memcheck:Free
   fun:free
   fun:_ZN4adns2db14row_dns_server11init_staticEv
   fun:_ZN4adns2db14row_dns_server16get_by_server_idERNS0_10connectionEj
   fun:_ZN4adns13config_reader4readEv
   fun:_ZN4adns6config11init_configEv
   fun:main
}
{
   <insert_a_suppression_name_here>
   Memcheck:Free
   fun:free
   fun:_ZN4adns2db6columnD1Ev
   fun:_ZN4adns2db14row_dns_server11init_staticEv
   fun:_ZN4adns2db14row_dns_server16get_by_server_idERNS0_10connectionEj
   fun:_ZN4adns13config_reader4readEv
   fun:_ZN4adns6config11init_configEv
   fun:main
}
{
   <insert_a_suppression_name_here>
   Memcheck:Free
   fun:free
   fun:_ZN4adns2db14row_dns_server11init_staticEv
   fun:_ZN4adns2db14row_dns_server16get_by_server_idERNS0_10connectionEj
   fun:_ZN4adns13config_reader4readEv
   fun:_ZN4adns6config11init_configEv
   fun:main
}
{
   <insert_a_suppression_name_here>
   Memcheck:Free
   fun:free
   fun:_ZN4adns2db6columnD1Ev
   fun:_ZN4adns2db14row_dns_server11init_staticEv
   fun:_ZN4adns2db14row_dns_server16get_by_server_idERNS0_10connectionEj
   fun:_ZN4adns13config_reader4readEv
   fun:_ZN4adns6config11init_configEv
   fun:main
}
{
   <insert_a_suppression_name_here>
   Memcheck:Free
   fun:free
   fun:_ZN4adns2db14row_dns_server11init_staticEv
   fun:_ZN4adns2db14row_dns_server16get_by_server_idERNS0_10connectionEj
   fun:_ZN4adns13config_reader4readEv
   fun:_ZN4adns6config11init_configEv
   fun:main
}
{
   <insert_a_suppression_name_here>
   Memcheck:Free
   fun:free
   fun:_ZN4adns2db6columnD1Ev
   fun:_ZN4adns2db14row_dns_server11init_staticEv
   fun:_ZN4adns2db14row_dns_server16get_by_server_idERNS0_10connectionEj
   fun:_ZN4adns13config_reader4readEv
   fun:_ZN4adns6config11init_configEv
   fun:main
}
{
   <insert_a_suppression_name_here>
   Memcheck:Free
   fun:free
   fun:_ZN4adns2db14row_dns_server11init_staticEv
   fun:_ZN4adns2db14row_dns_server16get_by_server_idERNS0_10connectionEj
   fun:_ZN4adns13config_reader4readEv
   fun:_ZN4adns6config11init_configEv
   fun:main
}
{
   <insert_a_suppression_name_here>
   Memcheck:Free
   fun:free
   fun:_ZN4adns2db6columnD1Ev
   fun:_ZN4adns2db14row_dns_server11init_staticEv
   fun:_ZN4adns2db14row_dns_server16get_by_server_idERNS0_10connectionEj
   fun:_ZN4adns13config_reader4readEv
   fun:_ZN4adns6config11init_configEv
   fun:main
}
{
   <insert_a_suppression_name_here>
   Memcheck:Free
   fun:free
   fun:_ZN4adns2db14row_dns_server11init_staticEv
   fun:_ZN4adns2db14row_dns_server16get_by_server_idERNS0_10connectionEj
   fun:_ZN4adns13config_reader4readEv
   fun:_ZN4adns6config11init_configEv
   fun:main
}
{
   <insert_a_suppression_name_here>
   Memcheck:Free
   fun:free
   fun:_ZN4adns2db6columnD1Ev
   fun:_ZN4adns2db14row_dns_server11init_staticEv
   fun:_ZN4adns2db14row_dns_server16get_by_server_idERNS0_10connectionEj
   fun:_ZN4adns13config_reader4readEv
   fun:_ZN4adns6config11init_configEv
   fun:main
}
{
   <insert_a_suppression_name_here>
   Memcheck:Free
   fun:free
   fun:_ZN4adns2db14row_dns_server11init_staticEv
   fun:_ZN4adns2db14row_dns_server16get_by_server_idERNS0_10connectionEj
   fun:_ZN4adns13config_reader4readEv
   fun:_ZN4adns6config11init_configEv
   fun:main
}
{
   <insert_a_suppression_name_here>
   Memcheck:Free
   fun:free
   fun:_ZN4adns2db6columnD1Ev
   fun:_ZN4adns2db14row_dns_server11init_staticEv
   fun:_ZN4adns2db14row_dns_server16get_by_server_idERNS0_10connectionEj
   fun:_ZN4adns13config_reader4readEv
   fun:_ZN4adns6config11init_configEv
   fun:main
}
{
   <insert_a_suppression_name_here>
   Memcheck:Free
   fun:free
   fun:_ZN4adns2db14row_dns_server11init_staticEv
   fun:_ZN4adns2db14row_dns_server16get_by_server_idERNS0_10connectionEj
   fun:_ZN4adns13config_reader4readEv
   fun:_ZN4adns6config11init_configEv
   fun:main
}
{
   <insert_a_suppression_name_here>
   Memcheck:Free
   fun:free
   fun:_ZN4adns2db6columnD1Ev
   fun:_ZN4adns2db14row_dns_server11init_staticEv
   fun:_ZN4adns2db14row_dns_server16get_by_server_idERNS0_10connectionEj
   fun:_ZN4adns13config_reader4readEv
   fun:_ZN4adns6config11init_configEv
   fun:main
}
{
   <insert_a_suppression_name_here>
   Memcheck:Free
   fun:free
   fun:_ZN4adns2db14row_dns_server11init_staticEv
   fun:_ZN4adns2db14row_dns_server16get_by_server_idERNS0_10connectionEj
   fun:_ZN4adns13config_reader4readEv
   fun:_ZN4adns6config11init_configEv
   fun:main
}
{
   <insert_a_suppression_name_here>
   Memcheck:Free
   fun:free
   fun:_ZN4adns2db6columnD1Ev
   fun:_ZN4adns2db14row_dns_server11init_staticEv
   fun:_ZN4adns2db14row_dns_server16get_by_server_idERNS0_10connectionEj
   fun:_ZN4adns13config_reader4readEv
   fun:_ZN4adns6config11init_configEv
   fun:main
}
{
   <insert_a_suppression_name_here>
   Memcheck:Free
   fun:free
   fun:_ZN4adns2db14row_dns_server11init_staticEv
   fun:_ZN4adns2db14row_dns_server16get_by_server_idERNS0_10connectionEj
   fun:_ZN4adns13config_reader4readEv
   fun:_ZN4adns6config11init_configEv
   fun:main
}
{
   <insert_a_suppression_name_here>
   Memcheck:Free
   fun:free
   fun:_ZN4adns2db6columnD1Ev
   fun:_ZN4adns2db14row_dns_server11init_staticEv
   fun:_ZN4adns2db14row_dns_server16get_by_server_idERNS0_10connectionEj
   fun:_ZN4adns13config_reader4readEv
   fun:_ZN4adns6config11init_configEv
   fun:main
}
{
   <insert_a_suppression_name_here>
   Memcheck:Free
   fun:free
   fun:_ZN4adns2db14row_dns_server11init_staticEv
   fun:_ZN4adns2db14row_dns_server16get_by_server_idERNS0_10connectionEj
   fun:_ZN4adns13config_reader4readEv
   fun:_ZN4adns6config11init_configEv
   fun:main
}
{
   <insert_a_suppression_name_here>
   Memcheck:Free
   fun:free
   fun:_ZN4adns2db6columnD1Ev
   fun:_ZN4adns2db14row_dns_server11init_staticEv
   fun:_ZN4adns2db14row_dns_server16get_by_server_idERNS0_10connectionEj
   fun:_ZN4adns13config_reader4readEv
   fun:_ZN4adns6config11init_configEv
   fun:main
}
{
   <insert_a_suppression_name_here>
   Memcheck:Free
   fun:free
   fun:_ZN4adns2db14row_dns_server11init_staticEv
   fun:_ZN4adns2db14row_dns_server16get_by_server_idERNS0_10connectionEj
   fun:_ZN4adns13config_reader4readEv
   fun:_ZN4adns6config11init_configEv
   fun:main
}
{
   <insert_a_suppression_name_here>
   Memcheck:Free
   fun:free
   fun:_ZN4adns2db6columnD1Ev
   fun:_ZN4adns2db14row_dns_server11init_staticEv
   fun:_ZN4adns2db14row_dns_server16get_by_server_idERNS0_10connectionEj
   fun:_ZN4adns13config_reader4readEv
   fun:_ZN4adns6config11init_configEv
   fun:main
}
{
   <insert_a_suppression_name_here>
   Memcheck:Free
   fun:free
   fun:_ZN4adns2db14row_dns_server11init_staticEv
   fun:_ZN4adns2db14row_dns_server16get_by_server_idERNS0_10connectionEj
   fun:_ZN4adns13config_reader4readEv
   fun:_ZN4adns6config11init_configEv
   fun:main
}
{
   <insert_a_suppression_name_here>
   Memcheck:Free
   fun:free
   fun:_ZN4adns2db6columnD1Ev
   fun:_ZN4adns2db14row_dns_server11init_staticEv
   fun:_ZN4adns2db14row_dns_server16get_by_server_idERNS0_10connectionEj
   fun:_ZN4adns13config_reader4readEv
   fun:_ZN4adns6config11init_configEv
   fun:main
}
{
   <insert_a_suppression_name_here>
   Memcheck:Free
   fun:free
   fun:_ZN4adns2db14row_dns_server11init_staticEv
   fun:_ZN4adns2db14row_dns_server16get_by_server_idERNS0_10connectionEj
   fun:_ZN4adns13config_reader4readEv
   fun:_ZN4adns6config11init_configEv
   fun:main
}
{
   <insert_a_suppression_name_here>
   Memcheck:Free
   fun:free
   fun:_ZN4argo6parser5parseEPKc
   fun:_ZN4adns2db18mongodb_row_helper10fetch_rowsERNS0_10connectionERKNS0_6columnEjRKNS0_3rowE
   fun:_ZN4adns2db18mongodb_row_helper9fetch_rowERNS0_10connectionERKNS0_6columnEjRKNS0_3rowE
   fun:_ZN4adns2db3row9fetch_rowERNS0_10connectionERKNS0_6columnEj
   fun:_ZN4adns2db14row_dns_server16get_by_server_idERNS0_10connectionEj
   fun:_ZN4adns13config_reader4readEv
   fun:_ZN4adns6config11init_configEv
   fun:main
}
{
   <insert_a_suppression_name_here>
   Memcheck:Free
   fun:free
   fun:_ZN4adns2db6columnD1Ev
   fun:_ZN4adns2db14row_dns_client11init_staticEv
   fun:_ZN4adns2db14row_dns_client16get_by_client_idERNS0_10connectionEj
   fun:_ZN4adns13config_reader4readEv
   fun:_ZN4adns6config11init_configEv
   fun:main
}
{
   <insert_a_suppression_name_here>
   Memcheck:Free
   fun:free
   fun:_ZN4adns2db14row_dns_client11init_staticEv
   fun:_ZN4adns2db14row_dns_client16get_by_client_idERNS0_10connectionEj
   fun:_ZN4adns13config_reader4readEv
   fun:_ZN4adns6config11init_configEv
   fun:main
}
{
   <insert_a_suppression_name_here>
   Memcheck:Free
   fun:free
   fun:_ZN4adns2db6columnD1Ev
   fun:_ZN4adns2db14row_dns_client11init_staticEv
   fun:_ZN4adns2db14row_dns_client16get_by_client_idERNS0_10connectionEj
   fun:_ZN4adns13config_reader4readEv
   fun:_ZN4adns6config11init_configEv
   fun:main
}
{
   <insert_a_suppression_name_here>
   Memcheck:Free
   fun:free
   fun:_ZN4adns2db14row_dns_client11init_staticEv
   fun:_ZN4adns2db14row_dns_client16get_by_client_idERNS0_10connectionEj
   fun:_ZN4adns13config_reader4readEv
   fun:_ZN4adns6config11init_configEv
   fun:main
}
{
   <insert_a_suppression_name_here>
   Memcheck:Free
   fun:free
   fun:_ZN4adns2db6columnD1Ev
   fun:_ZN4adns2db14row_dns_client11init_staticEv
   fun:_ZN4adns2db14row_dns_client16get_by_client_idERNS0_10connectionEj
   fun:_ZN4adns13config_reader4readEv
   fun:_ZN4adns6config11init_configEv
   fun:main
}
{
   <insert_a_suppression_name_here>
   Memcheck:Free
   fun:free
   fun:_ZN4adns2db14row_dns_client11init_staticEv
   fun:_ZN4adns2db14row_dns_client16get_by_client_idERNS0_10connectionEj
   fun:_ZN4adns13config_reader4readEv
   fun:_ZN4adns6config11init_configEv
   fun:main
}
{
   <insert_a_suppression_name_here>
   Memcheck:Free
   fun:free
   fun:_ZN4adns2db6columnD1Ev
   fun:_ZN4adns2db14row_dns_client11init_staticEv
   fun:_ZN4adns2db14row_dns_client16get_by_client_idERNS0_10connectionEj
   fun:_ZN4adns13config_reader4readEv
   fun:_ZN4adns6config11init_configEv
   fun:main
}
{
   <insert_a_suppression_name_here>
   Memcheck:Free
   fun:free
   fun:_ZN4adns2db14row_dns_client11init_staticEv
   fun:_ZN4adns2db14row_dns_client16get_by_client_idERNS0_10connectionEj
   fun:_ZN4adns13config_reader4readEv
   fun:_ZN4adns6config11init_configEv
   fun:main
}
{
   <insert_a_suppression_name_here>
   Memcheck:Free
   fun:free
   fun:_ZN4adns2db14row_dns_client11init_staticEv
   fun:_ZN4adns2db14row_dns_client16get_by_client_idERNS0_10connectionEj
   fun:_ZN4adns13config_reader4readEv
   fun:_ZN4adns6config11init_configEv
   fun:main
}
{
   <insert_a_suppression_name_here>
   Memcheck:Free
   fun:free
   fun:_ZN4adns2db14row_dns_client11init_staticEv
   fun:_ZN4adns2db14row_dns_client16get_by_client_idERNS0_10connectionEj
   fun:_ZN4adns13config_reader4readEv
   fun:_ZN4adns6config11init_configEv
   fun:main
}
{
   <insert_a_suppression_name_here>
   Memcheck:Free
   fun:free
   fun:_ZN4adns2db14row_dns_clientD0Ev
   fun:_ZNSt15_Sp_counted_ptrIPN4adns2db14row_dns_clientELN9__gnu_cxx12_Lock_policyE2EE10_M_disposeEv
   fun:_ZNSt16_Sp_counted_baseILN9__gnu_cxx12_Lock_policyE2EE10_M_releaseEv
   fun:_ZNSt14__shared_countILN9__gnu_cxx12_Lock_policyE2EED1Ev
   fun:_ZNSt12__shared_ptrIN4adns2db14row_dns_clientELN9__gnu_cxx12_Lock_policyE2EED1Ev
   fun:_ZNSt10shared_ptrIN4adns2db14row_dns_clientEED1Ev
   fun:_ZN4adns13config_reader4readEv
   fun:_ZN4adns6config11init_configEv
   fun:main
}
{
   <insert_a_suppression_name_here>
   Memcheck:Free
   fun:free
   fun:_ZNSt15_Sp_counted_ptrIPN4adns2db14row_dns_clientELN9__gnu_cxx12_Lock_policyE2EED0Ev
   fun:_ZNSt15_Sp_counted_ptrIPN4adns2db14row_dns_clientELN9__gnu_cxx12_Lock_policyE2EE10_M_destroyEv
   fun:_ZNSt16_Sp_counted_baseILN9__gnu_cxx12_Lock_policyE2EE10_M_releaseEv
   fun:_ZNSt14__shared_countILN9__gnu_cxx12_Lock_policyE2EED1Ev
   fun:_ZNSt12__shared_ptrIN4adns2db14row_dns_clientELN9__gnu_cxx12_Lock_policyE2EED1Ev
   fun:_ZNSt10shared_ptrIN4adns2db14row_dns_clientEED1Ev
   fun:_ZN4adns13config_reader4readEv
   fun:_ZN4adns6config11init_configEv
   fun:main
}
{
   <insert_a_suppression_name_here>
   Memcheck:Free
   fun:free
   fun:_ZN4adns2db14row_dns_serverD0Ev
   fun:_ZNSt15_Sp_counted_ptrIPN4adns2db14row_dns_serverELN9__gnu_cxx12_Lock_policyE2EE10_M_disposeEv
   fun:_ZNSt16_Sp_counted_baseILN9__gnu_cxx12_Lock_policyE2EE10_M_releaseEv
   fun:_ZNSt14__shared_countILN9__gnu_cxx12_Lock_policyE2EED1Ev
   fun:_ZNSt12__shared_ptrIN4adns2db14row_dns_serverELN9__gnu_cxx12_Lock_policyE2EED1Ev
   fun:_ZNSt10shared_ptrIN4adns2db14row_dns_serverEED1Ev
   fun:_ZN4adns13config_reader4readEv
   fun:_ZN4adns6config11init_configEv
   fun:main
}
{
   <insert_a_suppression_name_here>
   Memcheck:Free
   fun:free
   fun:_ZNSt15_Sp_counted_ptrIPN4adns2db14row_dns_serverELN9__gnu_cxx12_Lock_policyE2EED0Ev
   fun:_ZNSt15_Sp_counted_ptrIPN4adns2db14row_dns_serverELN9__gnu_cxx12_Lock_policyE2EE10_M_destroyEv
   fun:_ZNSt16_Sp_counted_baseILN9__gnu_cxx12_Lock_policyE2EE10_M_releaseEv
   fun:_ZNSt14__shared_countILN9__gnu_cxx12_Lock_policyE2EED1Ev
   fun:_ZNSt12__shared_ptrIN4adns2db14row_dns_serverELN9__gnu_cxx12_Lock_policyE2EED1Ev
   fun:_ZNSt10shared_ptrIN4adns2db14row_dns_serverEED1Ev
   fun:_ZN4adns13config_reader4readEv
   fun:_ZN4adns6config11init_configEv
   fun:main
}
{
   <insert_a_suppression_name_here>
   Memcheck:Free
   fun:free
   fun:_ZN9__gnu_cxx13new_allocatorISt10_List_nodeIN4adns13server_config16socket_address_tEEE10deallocateEPS5_m
   fun:_ZNSt16allocator_traitsISaISt10_List_nodeIN4adns13server_config16socket_address_tEEEE10deallocateERS5_PS4_m
   fun:_ZNSt7__cxx1110_List_baseIN4adns13server_config16socket_address_tESaIS3_EE11_M_put_nodeEPSt10_List_nodeIS3_E
   fun:_ZNSt7__cxx1110_List_baseIN4adns13server_config16socket_address_tESaIS3_EE8_M_clearEv
   fun:_ZNSt7__cxx1110_List_baseIN4adns13server_config16socket_address_tESaIS3_EED1Ev
   fun:_ZNSt7__cxx114listIN4adns13server_config16socket_address_tESaIS3_EED1Ev
   fun:_ZN4adns13server_configD1Ev
   fun:_ZN4adns13config_reader4readEv
   fun:_ZN4adns6config11init_configEv
   fun:main
}
{
   <insert_a_suppression_name_here>
   Memcheck:Free
   fun:free
   fun:_ZN4adns2db18row_control_server11init_staticEv
   fun:_ZN4adns2db18row_control_server16get_by_server_idERNS0_10connectionEj
   fun:_ZN4adns13config_reader4readEv
   fun:_ZN4adns6config11init_configEv
   fun:main
}
{
   <insert_a_suppression_name_here>
   Memcheck:Free
   fun:free
   fun:_ZN4adns2db18row_control_server11init_staticEv
   fun:_ZN4adns2db18row_control_server16get_by_server_idERNS0_10connectionEj
   fun:_ZN4adns13config_reader4readEv
   fun:_ZN4adns6config11init_configEv
   fun:main
}
{
   <insert_a_suppression_name_here>
   Memcheck:Free
   fun:free
   fun:_ZN4adns2db18row_control_server11init_staticEv
   fun:_ZN4adns2db18row_control_server16get_by_server_idERNS0_10connectionEj
   fun:_ZN4adns13config_reader4readEv
   fun:_ZN4adns6config11init_configEv
   fun:main
}
{
   <insert_a_suppression_name_here>
   Memcheck:Free
   fun:free
   fun:_ZN4adns2db18row_control_server11init_staticEv
   fun:_ZN4adns2db18row_control_server16get_by_server_idERNS0_10connectionEj
   fun:_ZN4adns13config_reader4readEv
   fun:_ZN4adns6config11init_configEv
   fun:main
}
{
   <insert_a_suppression_name_here>
   Memcheck:Free
   fun:free
   fun:_ZN4adns2db18row_control_serverD0Ev
   fun:_ZNSt15_Sp_counted_ptrIPN4adns2db18row_control_serverELN9__gnu_cxx12_Lock_policyE2EE10_M_disposeEv
   fun:_ZNSt16_Sp_counted_baseILN9__gnu_cxx12_Lock_policyE2EE10_M_releaseEv
   fun:_ZNSt14__shared_countILN9__gnu_cxx12_Lock_policyE2EED1Ev
   fun:_ZNSt12__shared_ptrIN4adns2db18row_control_serverELN9__gnu_cxx12_Lock_policyE2EED1Ev
   fun:_ZNSt10shared_ptrIN4adns2db18row_control_serverEED1Ev
   fun:_ZN4adns13config_reader4readEv
   fun:_ZN4adns6config11init_configEv
   fun:main
}
{
   <insert_a_suppression_name_here>
   Memcheck:Free
   fun:free
   fun:_ZNSt15_Sp_counted_ptrIPN4adns2db18row_control_serverELN9__gnu_cxx12_Lock_policyE2EED0Ev
   fun:_ZNSt15_Sp_counted_ptrIPN4adns2db18row_control_serverELN9__gnu_cxx12_Lock_policyE2EE10_M_destroyEv
   fun:_ZNSt16_Sp_counted_baseILN9__gnu_cxx12_Lock_policyE2EE10_M_releaseEv
   fun:_ZNSt14__shared_countILN9__gnu_cxx12_Lock_policyE2EED1Ev
   fun:_ZNSt12__shared_ptrIN4adns2db18row_control_serverELN9__gnu_cxx12_Lock_policyE2EED1Ev
   fun:_ZNSt10shared_ptrIN4adns2db18row_control_serverEED1Ev
   fun:_ZN4adns13config_reader4readEv
   fun:_ZN4adns6config11init_configEv
   fun:main
}
{
   <insert_a_suppression_name_here>
   Memcheck:Free
   fun:free
   fun:_ZN4adns2db10row_serverD0Ev
   fun:_ZNSt15_Sp_counted_ptrIPN4adns2db10row_serverELN9__gnu_cxx12_Lock_policyE2EE10_M_disposeEv
   fun:_ZNSt16_Sp_counted_baseILN9__gnu_cxx12_Lock_policyE2EE10_M_releaseEv
   fun:_ZNSt14__shared_countILN9__gnu_cxx12_Lock_policyE2EED1Ev
   fun:_ZNSt12__shared_ptrIN4adns2db10row_serverELN9__gnu_cxx12_Lock_policyE2EED1Ev
   fun:_ZNSt10shared_ptrIN4adns2db10row_serverEED1Ev
   fun:_ZSt8_DestroyISt10shared_ptrIN4adns2db10row_serverEEEvPT_
   fun:_ZNSt12_Destroy_auxILb0EE9__destroyIPSt10shared_ptrIN4adns2db10row_serverEEEEvT_S8_
   fun:_ZSt8_DestroyIPSt10shared_ptrIN4adns2db10row_serverEEEvT_S6_
   fun:_ZSt8_DestroyIPSt10shared_ptrIN4adns2db10row_serverEES4_EvT_S6_RSaIT0_E
   fun:_ZNSt6vectorISt10shared_ptrIN4adns2db10row_serverEESaIS4_EED1Ev
}
{
   <insert_a_suppression_name_here>
   Memcheck:Free
   fun:free
   fun:_ZNSt15_Sp_counted_ptrIPN4adns2db10row_serverELN9__gnu_cxx12_Lock_policyE2EED0Ev
   fun:_ZNSt15_Sp_counted_ptrIPN4adns2db10row_serverELN9__gnu_cxx12_Lock_policyE2EE10_M_destroyEv
   fun:_ZNSt16_Sp_counted_baseILN9__gnu_cxx12_Lock_policyE2EE10_M_releaseEv
   fun:_ZNSt14__shared_countILN9__gnu_cxx12_Lock_policyE2EED1Ev
   fun:_ZNSt12__shared_ptrIN4adns2db10row_serverELN9__gnu_cxx12_Lock_policyE2EED1Ev
   fun:_ZNSt10shared_ptrIN4adns2db10row_serverEED1Ev
   fun:_ZSt8_DestroyISt10shared_ptrIN4adns2db10row_serverEEEvPT_
   fun:_ZNSt12_Destroy_auxILb0EE9__destroyIPSt10shared_ptrIN4adns2db10row_serverEEEEvT_S8_
   fun:_ZSt8_DestroyIPSt10shared_ptrIN4adns2db10row_serverEEEvT_S6_
   fun:_ZSt8_DestroyIPSt10shared_ptrIN4adns2db10row_serverEES4_EvT_S6_RSaIT0_E
   fun:_ZNSt6vectorISt10shared_ptrIN4adns2db10row_serverEESaIS4_EED1Ev
}
{
   <insert_a_suppression_name_here>
   Memcheck:Free
   fun:free
   fun:_ZN9__gnu_cxx13new_allocatorISt10shared_ptrIN4adns2db10row_serverEEE10deallocateEPS5_m
   fun:_ZNSt16allocator_traitsISaISt10shared_ptrIN4adns2db10row_serverEEEE10deallocateERS5_PS4_m
   fun:_ZNSt12_Vector_baseISt10shared_ptrIN4adns2db10row_serverEESaIS4_EE13_M_deallocateEPS4_m
   fun:_ZNSt12_Vector_baseISt10shared_ptrIN4adns2db10row_serverEESaIS4_EED1Ev
   fun:_ZNSt6vectorISt10shared_ptrIN4adns2db10row_serverEESaIS4_EED1Ev
   fun:_ZN4adns13config_reader4readEv
   fun:_ZN4adns6config11init_configEv
   fun:main
}
{
   <insert_a_suppression_name_here>
   Memcheck:Free
   fun:free
   fun:_ZN4adns2db3row16json_unserializeEv
   fun:_ZN4adns17json_serializable9from_jsonERKN4argo4jsonE
   fun:_ZN4adns2db18mongodb_row_helper10fetch_rowsERNS0_10connectionERKNS0_3rowE
   fun:_ZN4adns2db3row10fetch_rowsERNS0_10connectionE
   fun:_ZN4adns2db16row_basic_config8get_rowsERNS0_10connectionE
   fun:_ZN4adns13config_reader4readEv
   fun:_ZN4adns6config11init_configEv
   fun:main
}
{
   <insert_a_suppression_name_here>
   Memcheck:Free
   fun:free
   fun:_ZN4adns2db16row_basic_configD1Ev
   fun:_ZN4adns2db16row_basic_configD0Ev
   fun:_ZNSt15_Sp_counted_ptrIPN4adns2db16row_basic_configELN9__gnu_cxx12_Lock_policyE2EE10_M_disposeEv
   fun:_ZNSt16_Sp_counted_baseILN9__gnu_cxx12_Lock_policyE2EE10_M_releaseEv
   fun:_ZNSt14__shared_countILN9__gnu_cxx12_Lock_policyE2EED1Ev
   fun:_ZNSt12__shared_ptrIN4adns2db16row_basic_configELN9__gnu_cxx12_Lock_policyE2EED1Ev
   fun:_ZNSt10shared_ptrIN4adns2db16row_basic_configEED1Ev
   fun:_ZSt8_DestroyISt10shared_ptrIN4adns2db16row_basic_configEEEvPT_
   fun:_ZNSt12_Destroy_auxILb0EE9__destroyIPSt10shared_ptrIN4adns2db16row_basic_configEEEEvT_S8_
   fun:_ZSt8_DestroyIPSt10shared_ptrIN4adns2db16row_basic_configEEEvT_S6_
   fun:_ZSt8_DestroyIPSt10shared_ptrIN4adns2db16row_basic_configEES4_EvT_S6_RSaIT0_E
}
{
   <insert_a_suppression_name_here>
   Memcheck:Free
   fun:free
   fun:_ZN4adns2db16row_basic_configD0Ev
   fun:_ZNSt15_Sp_counted_ptrIPN4adns2db16row_basic_configELN9__gnu_cxx12_Lock_policyE2EE10_M_disposeEv
   fun:_ZNSt16_Sp_counted_baseILN9__gnu_cxx12_Lock_policyE2EE10_M_releaseEv
   fun:_ZNSt14__shared_countILN9__gnu_cxx12_Lock_policyE2EED1Ev
   fun:_ZNSt12__shared_ptrIN4adns2db16row_basic_configELN9__gnu_cxx12_Lock_policyE2EED1Ev
   fun:_ZNSt10shared_ptrIN4adns2db16row_basic_configEED1Ev
   fun:_ZSt8_DestroyISt10shared_ptrIN4adns2db16row_basic_configEEEvPT_
   fun:_ZNSt12_Destroy_auxILb0EE9__destroyIPSt10shared_ptrIN4adns2db16row_basic_configEEEEvT_S8_
   fun:_ZSt8_DestroyIPSt10shared_ptrIN4adns2db16row_basic_configEEEvT_S6_
   fun:_ZSt8_DestroyIPSt10shared_ptrIN4adns2db16row_basic_configEES4_EvT_S6_RSaIT0_E
   fun:_ZNSt6vectorISt10shared_ptrIN4adns2db16row_basic_configEESaIS4_EED1Ev
}
{
   <insert_a_suppression_name_here>
   Memcheck:Free
   fun:free
   fun:_ZNSt15_Sp_counted_ptrIPN4adns2db16row_basic_configELN9__gnu_cxx12_Lock_policyE2EED0Ev
   fun:_ZNSt15_Sp_counted_ptrIPN4adns2db16row_basic_configELN9__gnu_cxx12_Lock_policyE2EE10_M_destroyEv
   fun:_ZNSt16_Sp_counted_baseILN9__gnu_cxx12_Lock_policyE2EE10_M_releaseEv
   fun:_ZNSt14__shared_countILN9__gnu_cxx12_Lock_policyE2EED1Ev
   fun:_ZNSt12__shared_ptrIN4adns2db16row_basic_configELN9__gnu_cxx12_Lock_policyE2EED1Ev
   fun:_ZNSt10shared_ptrIN4adns2db16row_basic_configEED1Ev
   fun:_ZSt8_DestroyISt10shared_ptrIN4adns2db16row_basic_configEEEvPT_
   fun:_ZNSt12_Destroy_auxILb0EE9__destroyIPSt10shared_ptrIN4adns2db16row_basic_configEEEEvT_S8_
   fun:_ZSt8_DestroyIPSt10shared_ptrIN4adns2db16row_basic_configEEEvT_S6_
   fun:_ZSt8_DestroyIPSt10shared_ptrIN4adns2db16row_basic_configEES4_EvT_S6_RSaIT0_E
   fun:_ZNSt6vectorISt10shared_ptrIN4adns2db16row_basic_configEESaIS4_EED1Ev
}
{
   <insert_a_suppression_name_here>
   Memcheck:Free
   fun:free
   fun:_ZN9__gnu_cxx13new_allocatorISt10shared_ptrIN4adns2db16row_basic_configEEE10deallocateEPS5_m
   fun:_ZNSt16allocator_traitsISaISt10shared_ptrIN4adns2db16row_basic_configEEEE10deallocateERS5_PS4_m
   fun:_ZNSt12_Vector_baseISt10shared_ptrIN4adns2db16row_basic_configEESaIS4_EE13_M_deallocateEPS4_m
   fun:_ZNSt12_Vector_baseISt10shared_ptrIN4adns2db16row_basic_configEESaIS4_EED1Ev
   fun:_ZNSt6vectorISt10shared_ptrIN4adns2db16row_basic_configEESaIS4_EED1Ev
   fun:_ZN4adns13config_reader4readEv
   fun:_ZN4adns6config11init_configEv
   fun:main
}
{
   <insert_a_suppression_name_here>
   Memcheck:Free
   fun:free
   fun:_ZN4adns2db16row_cache_configD0Ev
   fun:_ZNSt15_Sp_counted_ptrIPN4adns2db16row_cache_configELN9__gnu_cxx12_Lock_policyE2EE10_M_disposeEv
   fun:_ZNSt16_Sp_counted_baseILN9__gnu_cxx12_Lock_policyE2EE10_M_releaseEv
   fun:_ZNSt14__shared_countILN9__gnu_cxx12_Lock_policyE2EED1Ev
   fun:_ZNSt12__shared_ptrIN4adns2db16row_cache_configELN9__gnu_cxx12_Lock_policyE2EED1Ev
   fun:_ZNSt10shared_ptrIN4adns2db16row_cache_configEED1Ev
   fun:_ZN4adns13config_reader4readEv
   fun:_ZN4adns6config11init_configEv
   fun:main
}
{
   <insert_a_suppression_name_here>
   Memcheck:Free
   fun:free
   fun:_ZNSt15_Sp_counted_ptrIPN4adns2db16row_cache_configELN9__gnu_cxx12_Lock_policyE2EED0Ev
   fun:_ZNSt15_Sp_counted_ptrIPN4adns2db16row_cache_configELN9__gnu_cxx12_Lock_policyE2EE10_M_destroyEv
   fun:_ZNSt16_Sp_counted_baseILN9__gnu_cxx12_Lock_policyE2EE10_M_releaseEv
   fun:_ZNSt14__shared_countILN9__gnu_cxx12_Lock_policyE2EED1Ev
   fun:_ZNSt12__shared_ptrIN4adns2db16row_cache_configELN9__gnu_cxx12_Lock_policyE2EED1Ev
   fun:_ZNSt10shared_ptrIN4adns2db16row_cache_configEED1Ev
   fun:_ZN4adns13config_reader4readEv
   fun:_ZN4adns6config11init_configEv
   fun:main
}
{
   <insert_a_suppression_name_here>
   Memcheck:Free
   fun:free
   fun:_ZN4adns6config11init_configEv
   fun:main
}
{
   <insert_a_suppression_name_here>
   Memcheck:Free
   fun:free
   fun:_ZN4adns6config11init_configEv
   fun:main
}
{
   <insert_a_suppression_name_here>
   Memcheck:Free
   fun:free
   fun:_ZN4adns6config11init_configEv
   fun:main
}
{
   <insert_a_suppression_name_here>
   Memcheck:Free
   fun:free
   fun:_ZN4adns6config11init_configEv
   fun:main
}
{
   <insert_a_suppression_name_here>
   Memcheck:Free
   fun:free
   fun:_ZN4adns6config11init_configEv
   fun:main
}
{
   <insert_a_suppression_name_here>
   Memcheck:Free
   fun:free
   fun:_ZN9__gnu_cxx13new_allocatorIPNSt8__detail15_Hash_node_baseEE10deallocateEPS3_m
   fun:_ZNSt16allocator_traitsISaIPNSt8__detail15_Hash_node_baseEEE10deallocateERS3_PS2_m
   fun:_ZNSt8__detail16_Hashtable_allocISaINS_10_Hash_nodeISt4pairIKtNSt7__cxx1112basic_stringIcSt11char_traitsIcESaIcEEEELb0EEEEE21_M_deallocate_bucketsEPPNS_15_Hash_node_baseEm
   fun:_ZNSt10_HashtableItSt4pairIKtNSt7__cxx1112basic_stringIcSt11char_traitsIcESaIcEEEESaIS8_ENSt8__detail10_Select1stESt8equal_toItESt4hashItENSA_18_Mod_range_hashingENSA_20_Default_ranged_hashENSA_20_Prime_rehash_policyENSA_17_Hashtable_traitsILb0ELb0ELb1EEEE21_M_deallocate_bucketsEPPNSA_15_Hash_node_baseEm
   fun:_ZNSt10_HashtableItSt4pairIKtNSt7__cxx1112basic_stringIcSt11char_traitsIcESaIcEEEESaIS8_ENSt8__detail10_Select1stESt8equal_toItESt4hashItENSA_18_Mod_range_hashingENSA_20_Default_ranged_hashENSA_20_Prime_rehash_policyENSA_17_Hashtable_traitsILb0ELb0ELb1EEEE21_M_deallocate_bucketsEv
   fun:_ZNSt10_HashtableItSt4pairIKtNSt7__cxx1112basic_stringIcSt11char_traitsIcESaIcEEEESaIS8_ENSt8__detail10_Select1stESt8equal_toItESt4hashItENSA_18_Mod_range_hashingENSA_20_Default_ranged_hashENSA_20_Prime_rehash_policyENSA_17_Hashtable_traitsILb0ELb0ELb1EEEE13_M_rehash_auxEmSt17integral_constantIbLb1EE
   fun:_ZNSt10_HashtableItSt4pairIKtNSt7__cxx1112basic_stringIcSt11char_traitsIcESaIcEEEESaIS8_ENSt8__detail10_Select1stESt8equal_toItESt4hashItENSA_18_Mod_range_hashingENSA_20_Default_ranged_hashENSA_20_Prime_rehash_policyENSA_17_Hashtable_traitsILb0ELb0ELb1EEEE9_M_rehashEmRKm
   fun:_ZNSt10_HashtableItSt4pairIKtNSt7__cxx1112basic_stringIcSt11char_traitsIcESaIcEEEESaIS8_ENSt8__detail10_Select1stESt8equal_toItESt4hashItENSA_18_Mod_range_hashingENSA_20_Default_ranged_hashENSA_20_Prime_rehash_policyENSA_17_Hashtable_traitsILb0ELb0ELb1EEEE21_M_insert_unique_nodeEmmPNSA_10_Hash_nodeIS8_Lb0EEEm
   fun:_ZNSt8__detail9_Map_baseItSt4pairIKtNSt7__cxx1112basic_stringIcSt11char_traitsIcESaIcEEEESaIS9_ENS_10_Select1stESt8equal_toItESt4hashItENS_18_Mod_range_hashingENS_20_Default_ranged_hashENS_20_Prime_rehash_policyENS_17_Hashtable_traitsILb0ELb0ELb1EEELb1EEixEOt
   fun:_ZNSt13unordered_mapItNSt7__cxx1112basic_stringIcSt11char_traitsIcESaIcEEESt4hashItESt8equal_toItESaISt4pairIKtS5_EEEixEOt
   fun:_ZN4adns6dns_rr4initEv
}
{
   <insert_a_suppression_name_here>
   Memcheck:Free
   fun:free
   fun:_ZN4adns2db15row_root_server11init_staticEv
   fun:_ZNK4adns2db15row_root_server11get_columnsEv
   fun:_ZN4adns2db3row16json_unserializeEv
   fun:_ZN4adns17json_serializable9from_jsonERKN4argo4jsonE
   fun:_ZN4adns2db18mongodb_row_helper10fetch_rowsERNS0_10connectionERKNS0_3rowE
   fun:_ZN4adns2db3row10fetch_rowsERNS0_10connectionE
   fun:_ZN4adns2db15row_root_server8get_rowsERNS0_10connectionE
   fun:_ZN4adns19dns_recursive_cache15load_root_hintsEv
   fun:_ZN4adns19dns_recursive_cacheC1ERKNS_12cache_configE
   fun:_ZN4adns19dns_recursive_cache4initERKNS_12cache_configE
   fun:_Z10class_initv
}
{
   <insert_a_suppression_name_here>
   Memcheck:Free
   fun:free
   fun:_ZN4adns2db3row16json_unserializeEv
   fun:_ZN4adns17json_serializable9from_jsonERKN4argo4jsonE
   fun:_ZN4adns2db18mongodb_row_helper10fetch_rowsERNS0_10connectionERKNS0_3rowE
   fun:_ZN4adns2db3row10fetch_rowsERNS0_10connectionE
   fun:_ZN4adns2db15row_root_server8get_rowsERNS0_10connectionE
   fun:_ZN4adns19dns_recursive_cache15load_root_hintsEv
   fun:_ZN4adns19dns_recursive_cacheC1ERKNS_12cache_configE
   fun:_ZN4adns19dns_recursive_cache4initERKNS_12cache_configE
   fun:_Z10class_initv
   fun:main
}
{
   <insert_a_suppression_name_here>
   Memcheck:Free
   fun:free
   fun:_ZN5boost6detail8function15functor_managerINS_9algorithm6detail13token_finderFINS4_10is_any_ofFIcEEEEE7managerERKNS1_15function_bufferERSA_NS1_30functor_manager_operation_typeENS_17integral_constantIbLb0EEE
   fun:_ZN5boost6detail8function15functor_managerINS_9algorithm6detail13token_finderFINS4_10is_any_ofFIcEEEEE7managerERKNS1_15function_bufferERSA_NS1_30functor_manager_operation_typeENS1_16function_obj_tagE
   fun:_ZN5boost6detail8function15functor_managerINS_9algorithm6detail13token_finderFINS4_10is_any_ofFIcEEEEE6manageERKNS1_15function_bufferERSA_NS1_30functor_manager_operation_typeE
   fun:_ZNK5boost6detail8function13basic_vtable2INS_14iterator_rangeIN9__gnu_cxx17__normal_iteratorIPcNSt7__cxx1112basic_stringIcSt11char_traitsIcESaIcEEEEEEESD_SD_E5clearERNS1_15function_bufferE
   fun:_ZN5boost9function2INS_14iterator_rangeIN9__gnu_cxx17__normal_iteratorIPcNSt7__cxx1112basic_stringIcSt11char_traitsIcESaIcEEEEEEESB_SB_E5clearEv
   fun:_ZN5boost9function2INS_14iterator_rangeIN9__gnu_cxx17__normal_iteratorIPcNSt7__cxx1112basic_stringIcSt11char_traitsIcESaIcEEEEEEESB_SB_ED1Ev
   fun:_ZN5boost9algorithm6detail18find_iterator_baseIN9__gnu_cxx17__normal_iteratorIPcNSt7__cxx1112basic_stringIcSt11char_traitsIcESaIcEEEEEED1Ev
   fun:_ZN5boost9algorithm14split_iteratorIN9__gnu_cxx17__normal_iteratorIPcNSt7__cxx1112basic_stringIcSt11char_traitsIcESaIcEEEEEED1Ev
   fun:_ZN5boost9algorithm10iter_splitISt6vectorINSt7__cxx1112basic_stringIcSt11char_traitsIcESaIcEEESaIS8_EERS8_NS0_6detail13token_finderFINSC_10is_any_ofFIcEEEEEERT_SI_OT0_T1_
   fun:_ZN5boost9algorithm5splitISt6vectorINSt7__cxx1112basic_stringIcSt11char_traitsIcESaIcEEESaIS8_EERS8_NS0_6detail10is_any_ofFIcEEEERT_SG_OT0_T1_NS0_24token_compress_mode_typeE
   fun:_ZN4adns8dns_nameC1ERKNSt7__cxx1112basic_stringIcSt11char_traitsIcESaIcEEE
}
{
   <insert_a_suppression_name_here>
   Memcheck:Free
   fun:free
   fun:_ZN4adns8dns_nameC1ERKNSt7__cxx1112basic_stringIcSt11char_traitsIcESaIcEEE
   fun:_ZN9__gnu_cxx13new_allocatorIN4adns8dns_nameEE9constructIS2_JNSt7__cxx1112basic_stringIcSt11char_traitsIcESaIcEEEEEEvPT_DpOT0_
   fun:_ZNSt16allocator_traitsISaIN4adns8dns_nameEEE9constructIS1_JNSt7__cxx1112basic_stringIcSt11char_traitsIcESaIcEEEEEEvRS2_PT_DpOT0_
   fun:_ZNSt23_Sp_counted_ptr_inplaceIN4adns8dns_nameESaIS1_ELN9__gnu_cxx12_Lock_policyE2EEC1IJNSt7__cxx1112basic_stringIcSt11char_traitsIcESaIcEEEEEES2_DpOT_
   fun:_ZNSt14__shared_countILN9__gnu_cxx12_Lock_policyE2EEC1IN4adns8dns_nameESaIS5_EJNSt7__cxx1112basic_stringIcSt11char_traitsIcESaIcEEEEEERPT_St20_Sp_alloc_shared_tagIT0_EDpOT1_
   fun:_ZNSt12__shared_ptrIN4adns8dns_nameELN9__gnu_cxx12_Lock_policyE2EEC1ISaIS1_EJNSt7__cxx1112basic_stringIcSt11char_traitsIcESaIcEEEEEESt20_Sp_alloc_shared_tagIT_EDpOT0_
   fun:_ZNSt10shared_ptrIN4adns8dns_nameEEC1ISaIS1_EJNSt7__cxx1112basic_stringIcSt11char_traitsIcESaIcEEEEEESt20_Sp_alloc_shared_tagIT_EDpOT0_
   fun:_ZSt15allocate_sharedIN4adns8dns_nameESaIS1_EJNSt7__cxx1112basic_stringIcSt11char_traitsIcESaIcEEEEESt10shared_ptrIT_ERKT0_DpOT1_
   fun:_ZSt11make_sharedIN4adns8dns_nameEJNSt7__cxx1112basic_stringIcSt11char_traitsIcESaIcEEEEESt10shared_ptrIT_EDpOT0_
   fun:_ZN4adns19dns_recursive_cache15load_root_hintsEv
   fun:_ZN4adns19dns_recursive_cacheC1ERKNS_12cache_configE
}
{
   <insert_a_suppression_name_here>
   Memcheck:Free
   fun:free
   fun:_ZN4adns19dns_recursive_cache15load_root_hintsEv
   fun:_ZN4adns19dns_recursive_cacheC1ERKNS_12cache_configE
   fun:_ZN4adns19dns_recursive_cache4initERKNS_12cache_configE
   fun:_Z10class_initv
   fun:main
}
{
   <insert_a_suppression_name_here>
   Memcheck:Free
   fun:free
   fun:_ZN4adns19dns_recursive_cache15load_root_hintsEv
   fun:_ZN4adns19dns_recursive_cacheC1ERKNS_12cache_configE
   fun:_ZN4adns19dns_recursive_cache4initERKNS_12cache_configE
   fun:_Z10class_initv
   fun:main
}
{
   <insert_a_suppression_name_here>
   Memcheck:Free
   fun:free
   fun:_ZN9__gnu_cxx13new_allocatorISt23_Sp_counted_ptr_inplaceIN4adns9dns_labelESaIS3_ELNS_12_Lock_policyE2EEE10deallocateEPS6_m
   fun:_ZNSt16allocator_traitsISaISt23_Sp_counted_ptr_inplaceIN4adns9dns_labelESaIS2_ELN9__gnu_cxx12_Lock_policyE2EEEE10deallocateERS7_PS6_m
   fun:_ZNSt15__allocated_ptrISaISt23_Sp_counted_ptr_inplaceIN4adns9dns_labelESaIS2_ELN9__gnu_cxx12_Lock_policyE2EEEED1Ev
   fun:_ZNSt23_Sp_counted_ptr_inplaceIN4adns9dns_labelESaIS1_ELN9__gnu_cxx12_Lock_policyE2EE10_M_destroyEv
   fun:_ZNSt16_Sp_counted_baseILN9__gnu_cxx12_Lock_policyE2EE10_M_releaseEv
   fun:_ZNSt14__shared_countILN9__gnu_cxx12_Lock_policyE2EED1Ev
   fun:_ZNSt12__shared_ptrIN4adns9dns_labelELN9__gnu_cxx12_Lock_policyE2EED1Ev
   fun:_ZNSt10shared_ptrIN4adns9dns_labelEED1Ev
   fun:_ZN9__gnu_cxx13new_allocatorISt10_List_nodeISt10shared_ptrIN4adns9dns_labelEEEE7destroyIS5_EEvPT_
   fun:_ZNSt16allocator_traitsISaISt10_List_nodeISt10shared_ptrIN4adns9dns_labelEEEEE7destroyIS4_EEvRS6_PT_
   fun:_ZNSt7__cxx1110_List_baseISt10shared_ptrIN4adns9dns_labelEESaIS4_EE8_M_clearEv
}
{
   <insert_a_suppression_name_here>
   Memcheck:Free
   fun:free
   fun:_ZN9__gnu_cxx13new_allocatorISt10_List_nodeISt10shared_ptrIN4adns9dns_labelEEEE10deallocateEPS6_m
   fun:_ZNSt16allocator_traitsISaISt10_List_nodeISt10shared_ptrIN4adns9dns_labelEEEEE10deallocateERS6_PS5_m
   fun:_ZNSt7__cxx1110_List_baseISt10shared_ptrIN4adns9dns_labelEESaIS4_EE11_M_put_nodeEPSt10_List_nodeIS4_E
   fun:_ZNSt7__cxx1110_List_baseISt10shared_ptrIN4adns9dns_labelEESaIS4_EE8_M_clearEv
   fun:_ZNSt7__cxx1110_List_baseISt10shared_ptrIN4adns9dns_labelEESaIS4_EED1Ev
   fun:_ZNSt7__cxx114listISt10shared_ptrIN4adns9dns_labelEESaIS4_EED1Ev
   fun:_ZN4adns8dns_nameD1Ev
   fun:_ZN9__gnu_cxx13new_allocatorIN4adns8dns_nameEE7destroyIS2_EEvPT_
   fun:_ZNSt16allocator_traitsISaIN4adns8dns_nameEEE7destroyIS1_EEvRS2_PT_
   fun:_ZNSt23_Sp_counted_ptr_inplaceIN4adns8dns_nameESaIS1_ELN9__gnu_cxx12_Lock_policyE2EE10_M_disposeEv
   fun:_ZNSt16_Sp_counted_baseILN9__gnu_cxx12_Lock_policyE2EE10_M_releaseEv
}
{
   <insert_a_suppression_name_here>
   Memcheck:Free
   fun:free
   fun:_ZN9__gnu_cxx13new_allocatorISt23_Sp_counted_ptr_inplaceIN4adns8dns_nameESaIS3_ELNS_12_Lock_policyE2EEE10deallocateEPS6_m
   fun:_ZNSt16allocator_traitsISaISt23_Sp_counted_ptr_inplaceIN4adns8dns_nameESaIS2_ELN9__gnu_cxx12_Lock_policyE2EEEE10deallocateERS7_PS6_m
   fun:_ZNSt15__allocated_ptrISaISt23_Sp_counted_ptr_inplaceIN4adns8dns_nameESaIS2_ELN9__gnu_cxx12_Lock_policyE2EEEED1Ev
   fun:_ZNSt23_Sp_counted_ptr_inplaceIN4adns8dns_nameESaIS1_ELN9__gnu_cxx12_Lock_policyE2EE10_M_destroyEv
   fun:_ZNSt16_Sp_counted_baseILN9__gnu_cxx12_Lock_policyE2EE10_M_releaseEv
   fun:_ZNSt14__shared_countILN9__gnu_cxx12_Lock_policyE2EED1Ev
   fun:_ZNSt12__shared_ptrIN4adns8dns_nameELN9__gnu_cxx12_Lock_policyE2EED1Ev
   fun:_ZNSt10shared_ptrIN4adns8dns_nameEED1Ev
   fun:_ZN4adns9dns_rr_NSD1Ev
   fun:_ZN9__gnu_cxx13new_allocatorIN4adns9dns_rr_NSEE7destroyIS2_EEvPT_
   fun:_ZNSt16allocator_traitsISaIN4adns9dns_rr_NSEEE7destroyIS1_EEvRS2_PT_
}
{
   <insert_a_suppression_name_here>
   Memcheck:Free
   fun:free
   fun:_ZN9__gnu_cxx13new_allocatorISt23_Sp_counted_ptr_inplaceIN4adns9dns_rr_NSESaIS3_ELNS_12_Lock_policyE2EEE10deallocateEPS6_m
   fun:_ZNSt16allocator_traitsISaISt23_Sp_counted_ptr_inplaceIN4adns9dns_rr_NSESaIS2_ELN9__gnu_cxx12_Lock_policyE2EEEE10deallocateERS7_PS6_m
   fun:_ZNSt15__allocated_ptrISaISt23_Sp_counted_ptr_inplaceIN4adns9dns_rr_NSESaIS2_ELN9__gnu_cxx12_Lock_policyE2EEEED1Ev
   fun:_ZNSt23_Sp_counted_ptr_inplaceIN4adns9dns_rr_NSESaIS1_ELN9__gnu_cxx12_Lock_policyE2EE10_M_destroyEv
   fun:_ZNSt16_Sp_counted_baseILN9__gnu_cxx12_Lock_policyE2EE10_M_releaseEv
   fun:_ZNSt14__shared_countILN9__gnu_cxx12_Lock_policyE2EEaSERKS2_
   fun:_ZNSt12__shared_ptrIN4adns6dns_rrELN9__gnu_cxx12_Lock_policyE2EEaSINS0_9dns_rr_NSEEENSt9enable_ifIXsrSt20__sp_compatible_withIPT_PS1_E5valueERS4_E4typeERKS_IS9_LS3_2EE
   fun:_ZNSt10shared_ptrIN4adns6dns_rrEEaSINS0_9dns_rr_NSEEENSt9enable_ifIXsrSt13is_assignableIRSt12__shared_ptrIS1_LN9__gnu_cxx12_Lock_policyE2EERKS_IT_EE5valueERS2_E4typeESF_
   fun:_ZN4adns19dns_recursive_cache15load_root_hintsEv
   fun:_ZN4adns19dns_recursive_cacheC1ERKNS_12cache_configE
   fun:_ZN4adns19dns_recursive_cache4initERKNS_12cache_configE
}
{
   <insert_a_suppression_name_here>
   Memcheck:Free
   fun:free
   fun:_ZN4adns19dns_recursive_cache15load_root_hintsEv
   fun:_ZN4adns19dns_recursive_cacheC1ERKNS_12cache_configE
   fun:_ZN4adns19dns_recursive_cache4initERKNS_12cache_configE
   fun:_Z10class_initv
   fun:main
}
{
   <insert_a_suppression_name_here>
   Memcheck:Free
   fun:free
   fun:_ZN4adns19dns_recursive_cache15load_root_hintsEv
   fun:_ZN4adns19dns_recursive_cacheC1ERKNS_12cache_configE
   fun:_ZN4adns19dns_recursive_cache4initERKNS_12cache_configE
   fun:_Z10class_initv
   fun:main
}
{
   <insert_a_suppression_name_here>
   Memcheck:Free
   fun:free
   fun:_ZN4adns19dns_recursive_cache15load_root_hintsEv
   fun:_ZN4adns19dns_recursive_cacheC1ERKNS_12cache_configE
   fun:_ZN4adns19dns_recursive_cache4initERKNS_12cache_configE
   fun:_Z10class_initv
   fun:main
}
{
   <insert_a_suppression_name_here>
   Memcheck:Free
   fun:free
   fun:_ZN4adns2db15row_root_serverD1Ev
   fun:_ZN4adns2db15row_root_serverD0Ev
   fun:_ZNSt15_Sp_counted_ptrIPN4adns2db15row_root_serverELN9__gnu_cxx12_Lock_policyE2EE10_M_disposeEv
   fun:_ZNSt16_Sp_counted_baseILN9__gnu_cxx12_Lock_policyE2EE10_M_releaseEv
   fun:_ZNSt14__shared_countILN9__gnu_cxx12_Lock_policyE2EED1Ev
   fun:_ZNSt12__shared_ptrIN4adns2db15row_root_serverELN9__gnu_cxx12_Lock_policyE2EED1Ev
   fun:_ZNSt10shared_ptrIN4adns2db15row_root_serverEED1Ev
   fun:_ZSt8_DestroyISt10shared_ptrIN4adns2db15row_root_serverEEEvPT_
   fun:_ZNSt12_Destroy_auxILb0EE9__destroyIPSt10shared_ptrIN4adns2db15row_root_serverEEEEvT_S8_
   fun:_ZSt8_DestroyIPSt10shared_ptrIN4adns2db15row_root_serverEEEvT_S6_
   fun:_ZSt8_DestroyIPSt10shared_ptrIN4adns2db15row_root_serverEES4_EvT_S6_RSaIT0_E
}
{
   <insert_a_suppression_name_here>
   Memcheck:Free
   fun:free
   fun:_ZN4adns2db15row_root_serverD0Ev
   fun:_ZNSt15_Sp_counted_ptrIPN4adns2db15row_root_serverELN9__gnu_cxx12_Lock_policyE2EE10_M_disposeEv
   fun:_ZNSt16_Sp_counted_baseILN9__gnu_cxx12_Lock_policyE2EE10_M_releaseEv
   fun:_ZNSt14__shared_countILN9__gnu_cxx12_Lock_policyE2EED1Ev
   fun:_ZNSt12__shared_ptrIN4adns2db15row_root_serverELN9__gnu_cxx12_Lock_policyE2EED1Ev
   fun:_ZNSt10shared_ptrIN4adns2db15row_root_serverEED1Ev
   fun:_ZSt8_DestroyISt10shared_ptrIN4adns2db15row_root_serverEEEvPT_
   fun:_ZNSt12_Destroy_auxILb0EE9__destroyIPSt10shared_ptrIN4adns2db15row_root_serverEEEEvT_S8_
   fun:_ZSt8_DestroyIPSt10shared_ptrIN4adns2db15row_root_serverEEEvT_S6_
   fun:_ZSt8_DestroyIPSt10shared_ptrIN4adns2db15row_root_serverEES4_EvT_S6_RSaIT0_E
   fun:_ZNSt6vectorISt10shared_ptrIN4adns2db15row_root_serverEESaIS4_EED1Ev
}
{
   <insert_a_suppression_name_here>
   Memcheck:Free
   fun:free
   fun:_ZNSt15_Sp_counted_ptrIPN4adns2db15row_root_serverELN9__gnu_cxx12_Lock_policyE2EED0Ev
   fun:_ZNSt15_Sp_counted_ptrIPN4adns2db15row_root_serverELN9__gnu_cxx12_Lock_policyE2EE10_M_destroyEv
   fun:_ZNSt16_Sp_counted_baseILN9__gnu_cxx12_Lock_policyE2EE10_M_releaseEv
   fun:_ZNSt14__shared_countILN9__gnu_cxx12_Lock_policyE2EED1Ev
   fun:_ZNSt12__shared_ptrIN4adns2db15row_root_serverELN9__gnu_cxx12_Lock_policyE2EED1Ev
   fun:_ZNSt10shared_ptrIN4adns2db15row_root_serverEED1Ev
   fun:_ZSt8_DestroyISt10shared_ptrIN4adns2db15row_root_serverEEEvPT_
   fun:_ZNSt12_Destroy_auxILb0EE9__destroyIPSt10shared_ptrIN4adns2db15row_root_serverEEEEvT_S8_
   fun:_ZSt8_DestroyIPSt10shared_ptrIN4adns2db15row_root_serverEEEvT_S6_
   fun:_ZSt8_DestroyIPSt10shared_ptrIN4adns2db15row_root_serverEES4_EvT_S6_RSaIT0_E
   fun:_ZNSt6vectorISt10shared_ptrIN4adns2db15row_root_serverEESaIS4_EED1Ev
}
{
   <insert_a_suppression_name_here>
   Memcheck:Free
   fun:free
   fun:_ZN4adns2db15row_root_serverD1Ev
   fun:_ZN4adns2db15row_root_serverD0Ev
   fun:_ZNSt15_Sp_counted_ptrIPN4adns2db15row_root_serverELN9__gnu_cxx12_Lock_policyE2EE10_M_disposeEv
   fun:_ZNSt16_Sp_counted_baseILN9__gnu_cxx12_Lock_policyE2EE10_M_releaseEv
   fun:_ZNSt14__shared_countILN9__gnu_cxx12_Lock_policyE2EED1Ev
   fun:_ZNSt12__shared_ptrIN4adns2db15row_root_serverELN9__gnu_cxx12_Lock_policyE2EED1Ev
   fun:_ZNSt10shared_ptrIN4adns2db15row_root_serverEED1Ev
   fun:_ZSt8_DestroyISt10shared_ptrIN4adns2db15row_root_serverEEEvPT_
   fun:_ZNSt12_Destroy_auxILb0EE9__destroyIPSt10shared_ptrIN4adns2db15row_root_serverEEEEvT_S8_
   fun:_ZSt8_DestroyIPSt10shared_ptrIN4adns2db15row_root_serverEEEvT_S6_
   fun:_ZSt8_DestroyIPSt10shared_ptrIN4adns2db15row_root_serverEES4_EvT_S6_RSaIT0_E
}
{
   <insert_a_suppression_name_here>
   Memcheck:Free
   fun:free
   fun:_ZN9__gnu_cxx13new_allocatorISt10shared_ptrIN4adns2db15row_root_serverEEE10deallocateEPS5_m
   fun:_ZNSt16allocator_traitsISaISt10shared_ptrIN4adns2db15row_root_serverEEEE10deallocateERS5_PS4_m
   fun:_ZNSt12_Vector_baseISt10shared_ptrIN4adns2db15row_root_serverEESaIS4_EE13_M_deallocateEPS4_m
   fun:_ZNSt12_Vector_baseISt10shared_ptrIN4adns2db15row_root_serverEESaIS4_EED1Ev
   fun:_ZNSt6vectorISt10shared_ptrIN4adns2db15row_root_serverEESaIS4_EED1Ev
   fun:_ZN4adns19dns_recursive_cache15load_root_hintsEv
   fun:_ZN4adns19dns_recursive_cacheC1ERKNS_12cache_configE
   fun:_ZN4adns19dns_recursive_cache4initERKNS_12cache_configE
   fun:_Z10class_initv
   fun:main
}
{
   <insert_a_suppression_name_here>
   Memcheck:Free
   fun:free
   fun:_ZNSt4pairIKNSt7__cxx1112basic_stringIcSt11char_traitsIcESaIcEEESt10shared_ptrIN4adns6dns_rrEEED1Ev
   fun:_ZN4adns19dns_recursive_cache15load_root_hintsEv
   fun:_ZN4adns19dns_recursive_cacheC1ERKNS_12cache_configE
   fun:_ZN4adns19dns_recursive_cache4initERKNS_12cache_configE
   fun:_Z10class_initv
   fun:main
}
{
   <insert_a_suppression_name_here>
   Memcheck:Free
   fun:free
   fun:_ZN9__gnu_cxx13new_allocatorISt10_List_nodeISt10shared_ptrIN4adns6dns_rrEEEE10deallocateEPS6_m
   fun:_ZNSt16allocator_traitsISaISt10_List_nodeISt10shared_ptrIN4adns6dns_rrEEEEE10deallocateERS6_PS5_m
   fun:_ZNSt7__cxx1110_List_baseISt10shared_ptrIN4adns6dns_rrEESaIS4_EE11_M_put_nodeEPSt10_List_nodeIS4_E
   fun:_ZNSt7__cxx1110_List_baseISt10shared_ptrIN4adns6dns_rrEESaIS4_EE8_M_clearEv
   fun:_ZNSt7__cxx1110_List_baseISt10shared_ptrIN4adns6dns_rrEESaIS4_EED1Ev
   fun:_ZNSt7__cxx114listISt10shared_ptrIN4adns6dns_rrEESaIS4_EED1Ev
   fun:_ZN4adns19dns_recursive_cache12add_referralERKNS_8dns_nameERKSt10shared_ptrINS_26dns_recursive_cache_answerEE
   fun:_ZN4adns19dns_recursive_cache15load_root_hintsEv
   fun:_ZN4adns19dns_recursive_cacheC1ERKNS_12cache_configE
   fun:_ZN4adns19dns_recursive_cache4initERKNS_12cache_configE
   fun:_Z10class_initv
}
{
   <insert_a_suppression_name_here>
   Memcheck:Free
   fun:free
   fun:_ZN9__gnu_cxx13new_allocatorISt13_Rb_tree_nodeIN4adns8dns_nameEEE10deallocateEPS4_m
   fun:_ZNSt16allocator_traitsISaISt13_Rb_tree_nodeIN4adns8dns_nameEEEE10deallocateERS4_PS3_m
   fun:_ZNSt8_Rb_treeIN4adns8dns_nameES1_St9_IdentityIS1_ESt4lessIS1_ESaIS1_EE11_M_put_nodeEPSt13_Rb_tree_nodeIS1_E
   fun:_ZNSt8_Rb_treeIN4adns8dns_nameES1_St9_IdentityIS1_ESt4lessIS1_ESaIS1_EE12_M_drop_nodeEPSt13_Rb_tree_nodeIS1_E
   fun:_ZNSt8_Rb_treeIN4adns8dns_nameES1_St9_IdentityIS1_ESt4lessIS1_ESaIS1_EE8_M_eraseEPSt13_Rb_tree_nodeIS1_E
   fun:_ZNSt8_Rb_treeIN4adns8dns_nameES1_St9_IdentityIS1_ESt4lessIS1_ESaIS1_EED1Ev
   fun:_ZNSt3setIN4adns8dns_nameESt4lessIS1_ESaIS1_EED1Ev
   fun:_ZN4adns19dns_recursive_cache12add_referralERKNS_8dns_nameERKSt10shared_ptrINS_26dns_recursive_cache_answerEE
   fun:_ZN4adns19dns_recursive_cache15load_root_hintsEv
   fun:_ZN4adns19dns_recursive_cacheC1ERKNS_12cache_configE
   fun:_ZN4adns19dns_recursive_cache4initERKNS_12cache_configE
}
{
   <insert_a_suppression_name_here>
   Memcheck:Free
   fun:free
   fun:_ZN9__gnu_cxx13new_allocatorISt13_Rb_tree_nodeISt4pairIKNSt7__cxx1112basic_stringIcSt11char_traitsIcESaIcEEESt10shared_ptrIN4adns6dns_rrEEEEE10deallocateEPSF_m
   fun:_ZNSt16allocator_traitsISaISt13_Rb_tree_nodeISt4pairIKNSt7__cxx1112basic_stringIcSt11char_traitsIcESaIcEEESt10shared_ptrIN4adns6dns_rrEEEEEE10deallocateERSF_PSE_m
   fun:_ZNSt8_Rb_treeINSt7__cxx1112basic_stringIcSt11char_traitsIcESaIcEEESt4pairIKS5_St10shared_ptrIN4adns6dns_rrEEESt10_Select1stISC_ESt4lessIS5_ESaISC_EE11_M_put_nodeEPSt13_Rb_tree_nodeISC_E
   fun:_ZNSt8_Rb_treeINSt7__cxx1112basic_stringIcSt11char_traitsIcESaIcEEESt4pairIKS5_St10shared_ptrIN4adns6dns_rrEEESt10_Select1stISC_ESt4lessIS5_ESaISC_EE12_M_drop_nodeEPSt13_Rb_tree_nodeISC_E
   fun:_ZNSt8_Rb_treeINSt7__cxx1112basic_stringIcSt11char_traitsIcESaIcEEESt4pairIKS5_St10shared_ptrIN4adns6dns_rrEEESt10_Select1stISC_ESt4lessIS5_ESaISC_EE8_M_eraseEPSt13_Rb_tree_nodeISC_E
   fun:_ZNSt8_Rb_treeINSt7__cxx1112basic_stringIcSt11char_traitsIcESaIcEEESt4pairIKS5_St10shared_ptrIN4adns6dns_rrEEESt10_Select1stISC_ESt4lessIS5_ESaISC_EE8_M_eraseEPSt13_Rb_tree_nodeISC_E
   fun:_ZNSt8_Rb_treeINSt7__cxx1112basic_stringIcSt11char_traitsIcESaIcEEESt4pairIKS5_St10shared_ptrIN4adns6dns_rrEEESt10_Select1stISC_ESt4lessIS5_ESaISC_EE8_M_eraseEPSt13_Rb_tree_nodeISC_E
   fun:_ZNSt8_Rb_treeINSt7__cxx1112basic_stringIcSt11char_traitsIcESaIcEEESt4pairIKS5_St10shared_ptrIN4adns6dns_rrEEESt10_Select1stISC_ESt4lessIS5_ESaISC_EE8_M_eraseEPSt13_Rb_tree_nodeISC_E
   fun:_ZNSt8_Rb_treeINSt7__cxx1112basic_stringIcSt11char_traitsIcESaIcEEESt4pairIKS5_St10shared_ptrIN4adns6dns_rrEEESt10_Select1stISC_ESt4lessIS5_ESaISC_EE8_M_eraseEPSt13_Rb_tree_nodeISC_E
   fun:_ZNSt8_Rb_treeINSt7__cxx1112basic_stringIcSt11char_traitsIcESaIcEEESt4pairIKS5_St10shared_ptrIN4adns6dns_rrEEESt10_Select1stISC_ESt4lessIS5_ESaISC_EED1Ev
   fun:_ZNSt3mapINSt7__cxx1112basic_stringIcSt11char_traitsIcESaIcEEESt10shared_ptrIN4adns6dns_rrEESt4lessIS5_ESaISt4pairIKS5_S9_EEED1Ev
}
{
   <insert_a_suppression_name_here>
   Memcheck:Free
   fun:free
   fun:_ZN4adns7monitor6info_tD1Ev
   fun:_ZN4adns7monitor9add_thingERKNSt7__cxx1112basic_stringIcSt11char_traitsIcESaIcEEES8_S8_j
   fun:_ZN4adns13message_queueIPNS_20dns_message_envelopeEEC1ENSt7__cxx1112basic_stringIcSt11char_traitsIcESaIcEEEm
   fun:_ZN4adns12handler_poolIPNS_20dns_message_envelopeENS_18dns_recursive_slotENS3_8params_tEEC1ENSt7__cxx1112basic_stringIcSt11char_traitsIcESaIcEEERKS4_iii
   fun:_ZN4adns22dns_recursive_resolverC1ERKNS_13server_configEb
   fun:_ZN9__gnu_cxx13new_allocatorIN4adns22dns_recursive_resolverEE9constructIS2_JRKNS1_13server_configEbEEEvPT_DpOT0_
   fun:_ZNSt16allocator_traitsISaIN4adns22dns_recursive_resolverEEE9constructIS1_JRKNS0_13server_configEbEEEvRS2_PT_DpOT0_
   fun:_ZNSt23_Sp_counted_ptr_inplaceIN4adns22dns_recursive_resolverESaIS1_ELN9__gnu_cxx12_Lock_policyE2EEC1IJRKNS0_13server_configEbEEES2_DpOT_
   fun:_ZNSt14__shared_countILN9__gnu_cxx12_Lock_policyE2EEC1IN4adns22dns_recursive_resolverESaIS5_EJRKNS4_13server_configEbEEERPT_St20_Sp_alloc_shared_tagIT0_EDpOT1_
   fun:_ZNSt12__shared_ptrIN4adns22dns_recursive_resolverELN9__gnu_cxx12_Lock_policyE2EEC1ISaIS1_EJRKNS0_13server_configEbEEESt20_Sp_alloc_shared_tagIT_EDpOT0_
   fun:_ZNSt10shared_ptrIN4adns22dns_recursive_resolverEEC1ISaIS1_EJRKNS0_13server_configEbEEESt20_Sp_alloc_shared_tagIT_EDpOT0_
}
{
   <insert_a_suppression_name_here>
   Memcheck:Free
   fun:free
   fun:_ZN9__gnu_cxx13new_allocatorIjE10deallocateEPjm
   fun:_ZNSt16allocator_traitsISaIjEE10deallocateERS0_Pjm
   fun:_ZNSt12_Vector_baseIjSaIjEE13_M_deallocateEPjm
   fun:_ZNSt6vectorIjSaIjEE17_M_realloc_insertIJRKjEEEvN9__gnu_cxx17__normal_iteratorIPjS1_EEDpOT_
   fun:_ZNSt6vectorIjSaIjEE9push_backERKj
   fun:_ZN4adns7monitor9add_thingERKNSt7__cxx1112basic_stringIcSt11char_traitsIcESaIcEEES8_S8_j
   fun:_ZN4adns13message_queueIPNS_20dns_message_envelopeEEC1ENSt7__cxx1112basic_stringIcSt11char_traitsIcESaIcEEEm
   fun:_ZN4adns12handler_poolIPNS_20dns_message_envelopeENS_18dns_recursive_slotENS3_8params_tEEC1ENSt7__cxx1112basic_stringIcSt11char_traitsIcESaIcEEERKS4_iii
   fun:_ZN4adns22dns_recursive_resolverC1ERKNS_13server_configEb
   fun:_ZN9__gnu_cxx13new_allocatorIN4adns22dns_recursive_resolverEE9constructIS2_JRKNS1_13server_configEbEEEvPT_DpOT0_
   fun:_ZNSt16allocator_traitsISaIN4adns22dns_recursive_resolverEEE9constructIS1_JRKNS0_13server_configEbEEEvRS2_PT_DpOT0_
}
{
   <insert_a_suppression_name_here>
   Memcheck:Free
   fun:free
   fun:_ZN9__gnu_cxx13new_allocatorIN4adns7monitor6info_tEE10deallocateEPS3_m
   fun:_ZNSt16allocator_traitsISaIN4adns7monitor6info_tEEE10deallocateERS3_PS2_m
   fun:_ZNSt12_Vector_baseIN4adns7monitor6info_tESaIS2_EE13_M_deallocateEPS2_m
   fun:_ZNSt6vectorIN4adns7monitor6info_tESaIS2_EE17_M_realloc_insertIJRKS2_EEEvN9__gnu_cxx17__normal_iteratorIPS2_S4_EEDpOT_
   fun:_ZNSt6vectorIN4adns7monitor6info_tESaIS2_EE9push_backERKS2_
   fun:_ZN4adns7monitor9add_thingERKNSt7__cxx1112basic_stringIcSt11char_traitsIcESaIcEEES8_S8_j
   fun:_ZN4adns13message_queueIPNS_20dns_message_envelopeEEC1ENSt7__cxx1112basic_stringIcSt11char_traitsIcESaIcEEEm
   fun:_ZN4adns12handler_poolIPNS_20dns_message_envelopeENS_18dns_recursive_slotENS3_8params_tEEC1ENSt7__cxx1112basic_stringIcSt11char_traitsIcESaIcEEERKS4_iii
   fun:_ZN4adns22dns_recursive_resolverC1ERKNS_13server_configEb
   fun:_ZN9__gnu_cxx13new_allocatorIN4adns22dns_recursive_resolverEE9constructIS2_JRKNS1_13server_configEbEEEvPT_DpOT0_
   fun:_ZNSt16allocator_traitsISaIN4adns22dns_recursive_resolverEEE9constructIS1_JRKNS0_13server_configEbEEEvRS2_PT_DpOT0_
}
{
   <insert_a_suppression_name_here>
   Memcheck:Free
   fun:free
   fun:_ZN4adns12handler_poolIPNS_20dns_message_envelopeENS_18dns_recursive_slotENS3_8params_tEEC1ENSt7__cxx1112basic_stringIcSt11char_traitsIcESaIcEEERKS4_iii
   fun:_ZN4adns22dns_recursive_resolverC1ERKNS_13server_configEb
   fun:_ZN9__gnu_cxx13new_allocatorIN4adns22dns_recursive_resolverEE9constructIS2_JRKNS1_13server_configEbEEEvPT_DpOT0_
   fun:_ZNSt16allocator_traitsISaIN4adns22dns_recursive_resolverEEE9constructIS1_JRKNS0_13server_configEbEEEvRS2_PT_DpOT0_
   fun:_ZNSt23_Sp_counted_ptr_inplaceIN4adns22dns_recursive_resolverESaIS1_ELN9__gnu_cxx12_Lock_policyE2EEC1IJRKNS0_13server_configEbEEES2_DpOT_
   fun:_ZNSt14__shared_countILN9__gnu_cxx12_Lock_policyE2EEC1IN4adns22dns_recursive_resolverESaIS5_EJRKNS4_13server_configEbEEERPT_St20_Sp_alloc_shared_tagIT0_EDpOT1_
   fun:_ZNSt12__shared_ptrIN4adns22dns_recursive_resolverELN9__gnu_cxx12_Lock_policyE2EEC1ISaIS1_EJRKNS0_13server_configEbEEESt20_Sp_alloc_shared_tagIT_EDpOT0_
   fun:_ZNSt10shared_ptrIN4adns22dns_recursive_resolverEEC1ISaIS1_EJRKNS0_13server_configEbEEESt20_Sp_alloc_shared_tagIT_EDpOT0_
   fun:_ZSt15allocate_sharedIN4adns22dns_recursive_resolverESaIS1_EJRKNS0_13server_configEbEESt10shared_ptrIT_ERKT0_DpOT1_
   fun:_ZSt11make_sharedIN4adns22dns_recursive_resolverEJRKNS0_13server_configEbEESt10shared_ptrIT_EDpOT0_
   fun:_ZN4adns14dns_udp_serverC1ERN5boost4asio10io_contextERKNS_13server_configE
}
{
   <insert_a_suppression_name_here>
   Memcheck:Free
   fun:free
   fun:_ZN4adns12handler_poolIPNS_20dns_message_envelopeENS_18dns_recursive_slotENS3_8params_tEEC1ENSt7__cxx1112basic_stringIcSt11char_traitsIcESaIcEEERKS4_iii
   fun:_ZN4adns22dns_recursive_resolverC1ERKNS_13server_configEb
   fun:_ZN9__gnu_cxx13new_allocatorIN4adns22dns_recursive_resolverEE9constructIS2_JRKNS1_13server_configEbEEEvPT_DpOT0_
   fun:_ZNSt16allocator_traitsISaIN4adns22dns_recursive_resolverEEE9constructIS1_JRKNS0_13server_configEbEEEvRS2_PT_DpOT0_
   fun:_ZNSt23_Sp_counted_ptr_inplaceIN4adns22dns_recursive_resolverESaIS1_ELN9__gnu_cxx12_Lock_policyE2EEC1IJRKNS0_13server_configEbEEES2_DpOT_
   fun:_ZNSt14__shared_countILN9__gnu_cxx12_Lock_policyE2EEC1IN4adns22dns_recursive_resolverESaIS5_EJRKNS4_13server_configEbEEERPT_St20_Sp_alloc_shared_tagIT0_EDpOT1_
   fun:_ZNSt12__shared_ptrIN4adns22dns_recursive_resolverELN9__gnu_cxx12_Lock_policyE2EEC1ISaIS1_EJRKNS0_13server_configEbEEESt20_Sp_alloc_shared_tagIT_EDpOT0_
   fun:_ZNSt10shared_ptrIN4adns22dns_recursive_resolverEEC1ISaIS1_EJRKNS0_13server_configEbEEESt20_Sp_alloc_shared_tagIT_EDpOT0_
   fun:_ZSt15allocate_sharedIN4adns22dns_recursive_resolverESaIS1_EJRKNS0_13server_configEbEESt10shared_ptrIT_ERKT0_DpOT1_
   fun:_ZSt11make_sharedIN4adns22dns_recursive_resolverEJRKNS0_13server_configEbEESt10shared_ptrIT_EDpOT0_
   fun:_ZN4adns14dns_udp_serverC1ERN5boost4asio10io_contextERKNS_13server_configE
}
{
   <insert_a_suppression_name_here>
   Memcheck:Free
   fun:free
   fun:_ZN4adns7monitor6info_tD1Ev
   fun:_ZN4adns7monitor9add_thingERKNSt7__cxx1112basic_stringIcSt11char_traitsIcESaIcEEES8_S8_j
   fun:_ZN4adns12handler_poolIPNS_20dns_message_envelopeENS_18dns_recursive_slotENS3_8params_tEEC1ENSt7__cxx1112basic_stringIcSt11char_traitsIcESaIcEEERKS4_iii
   fun:_ZN4adns22dns_recursive_resolverC1ERKNS_13server_configEb
   fun:_ZN9__gnu_cxx13new_allocatorIN4adns22dns_recursive_resolverEE9constructIS2_JRKNS1_13server_configEbEEEvPT_DpOT0_
   fun:_ZNSt16allocator_traitsISaIN4adns22dns_recursive_resolverEEE9constructIS1_JRKNS0_13server_configEbEEEvRS2_PT_DpOT0_
   fun:_ZNSt23_Sp_counted_ptr_inplaceIN4adns22dns_recursive_resolverESaIS1_ELN9__gnu_cxx12_Lock_policyE2EEC1IJRKNS0_13server_configEbEEES2_DpOT_
   fun:_ZNSt14__shared_countILN9__gnu_cxx12_Lock_policyE2EEC1IN4adns22dns_recursive_resolverESaIS5_EJRKNS4_13server_configEbEEERPT_St20_Sp_alloc_shared_tagIT0_EDpOT1_
   fun:_ZNSt12__shared_ptrIN4adns22dns_recursive_resolverELN9__gnu_cxx12_Lock_policyE2EEC1ISaIS1_EJRKNS0_13server_configEbEEESt20_Sp_alloc_shared_tagIT_EDpOT0_
   fun:_ZNSt10shared_ptrIN4adns22dns_recursive_resolverEEC1ISaIS1_EJRKNS0_13server_configEbEEESt20_Sp_alloc_shared_tagIT_EDpOT0_
   fun:_ZSt15allocate_sharedIN4adns22dns_recursive_resolverESaIS1_EJRKNS0_13server_configEbEESt10shared_ptrIT_ERKT0_DpOT1_
}
{
   <insert_a_suppression_name_here>
   Memcheck:Free
   fun:free
   fun:_ZN4adns12handler_poolIPNS_20dns_message_envelopeENS_18dns_recursive_slotENS3_8params_tEEC1ENSt7__cxx1112basic_stringIcSt11char_traitsIcESaIcEEERKS4_iii
   fun:_ZN4adns22dns_recursive_resolverC1ERKNS_13server_configEb
   fun:_ZN9__gnu_cxx13new_allocatorIN4adns22dns_recursive_resolverEE9constructIS2_JRKNS1_13server_configEbEEEvPT_DpOT0_
   fun:_ZNSt16allocator_traitsISaIN4adns22dns_recursive_resolverEEE9constructIS1_JRKNS0_13server_configEbEEEvRS2_PT_DpOT0_
   fun:_ZNSt23_Sp_counted_ptr_inplaceIN4adns22dns_recursive_resolverESaIS1_ELN9__gnu_cxx12_Lock_policyE2EEC1IJRKNS0_13server_configEbEEES2_DpOT_
   fun:_ZNSt14__shared_countILN9__gnu_cxx12_Lock_policyE2EEC1IN4adns22dns_recursive_resolverESaIS5_EJRKNS4_13server_configEbEEERPT_St20_Sp_alloc_shared_tagIT0_EDpOT1_
   fun:_ZNSt12__shared_ptrIN4adns22dns_recursive_resolverELN9__gnu_cxx12_Lock_policyE2EEC1ISaIS1_EJRKNS0_13server_configEbEEESt20_Sp_alloc_shared_tagIT_EDpOT0_
   fun:_ZNSt10shared_ptrIN4adns22dns_recursive_resolverEEC1ISaIS1_EJRKNS0_13server_configEbEEESt20_Sp_alloc_shared_tagIT_EDpOT0_
   fun:_ZSt15allocate_sharedIN4adns22dns_recursive_resolverESaIS1_EJRKNS0_13server_configEbEESt10shared_ptrIT_ERKT0_DpOT1_
   fun:_ZSt11make_sharedIN4adns22dns_recursive_resolverEJRKNS0_13server_configEbEESt10shared_ptrIT_EDpOT0_
   fun:_ZN4adns14dns_udp_serverC1ERN5boost4asio10io_contextERKNS_13server_configE
}
{
   <insert_a_suppression_name_here>
   Memcheck:Free
   fun:free
   fun:_ZN4adns18dns_message_parser7to_wireERKNS_11dns_messageEbm
   fun:_ZN4adns18dns_message_parser7to_wireERKNS_11dns_messageEm
   fun:_ZN4adns19dns_parallel_client8send_udpERNS_11dns_messageEbRSt3setItSt4lessItESaItEE
   fun:_ZN4adns19dns_parallel_client9query_udpERNS_11dns_messageE
   fun:_ZN4adns19dns_parallel_client5queryERNS_11dns_messageE
   fun:_ZN4adns19dns_recursive_cache21update_root_hints_nowERKSt3setINS_10ip_addressESt4lessIS2_ESaIS2_EE
   fun:_ZN4adns19dns_recursive_cache17update_root_hintsEv
   fun:_ZSt13__invoke_implIvMN4adns19dns_recursive_cacheEFvvEPS1_JEET_St21__invoke_memfun_derefOT0_OT1_DpOT2_
   fun:_ZSt8__invokeIMN4adns19dns_recursive_cacheEFvvEJPS1_EENSt15__invoke_resultIT_JDpT0_EE4typeEOS6_DpOS7_
   fun:_ZNSt6thread8_InvokerISt5tupleIJMN4adns19dns_recursive_cacheEFvvEPS3_EEE9_M_invokeIJLm0ELm1EEEEvSt12_Index_tupleIJXspT_EEE
   fun:_ZNSt6thread8_InvokerISt5tupleIJMN4adns19dns_recursive_cacheEFvvEPS3_EEEclEv
}
{
   <insert_a_suppression_name_here>
   Memcheck:Free
   fun:free
   fun:_ZN9__gnu_cxx13new_allocatorISt4pairINSt6chrono10time_pointINS2_3_V212steady_clockENS2_8durationIlSt5ratioILl1ELl1000000000EEEEEEN4adns10ip_addressEEE10deallocateEPSD_m
   fun:_ZNSt16allocator_traitsISaISt4pairINSt6chrono10time_pointINS1_3_V212steady_clockENS1_8durationIlSt5ratioILl1ELl1000000000EEEEEEN4adns10ip_addressEEEE10deallocateERSD_PSC_m
   fun:_ZNSt12_Vector_baseISt4pairINSt6chrono10time_pointINS1_3_V212steady_clockENS1_8durationIlSt5ratioILl1ELl1000000000EEEEEEN4adns10ip_addressEESaISC_EE13_M_deallocateEPSC_m
   fun:_ZNSt6vectorISt4pairINSt6chrono10time_pointINS1_3_V212steady_clockENS1_8durationIlSt5ratioILl1ELl1000000000EEEEEEN4adns10ip_addressEESaISC_EE17_M_realloc_insertIJSC_EEEvN9__gnu_cxx17__normal_iteratorIPSC_SE_EEDpOT_
   fun:_ZNSt6vectorISt4pairINSt6chrono10time_pointINS1_3_V212steady_clockENS1_8durationIlSt5ratioILl1ELl1000000000EEEEEEN4adns10ip_addressEESaISC_EE12emplace_backIJSC_EEERSC_DpOT_
   fun:_ZNSt6vectorISt4pairINSt6chrono10time_pointINS1_3_V212steady_clockENS1_8durationIlSt5ratioILl1ELl1000000000EEEEEEN4adns10ip_addressEESaISC_EE9push_backEOSC_
   fun:_ZN4adns15dns_ip_selector8find_ipsERKSt3setINS_10ip_addressESt4lessIS2_ESaIS2_EERSt6vectorISt4pairINSt6chrono10time_pointINSB_3_V212steady_clockENSB_8durationIlSt5ratioILl1ELl1000000000EEEEEES2_ESaISK_EEb
   fun:_ZN4adns15dns_ip_selector10select_ipsERKSt3setINS_10ip_addressESt4lessIS2_ESaIS2_EERS6_bj
   fun:_ZN4adns19dns_parallel_client8send_udpERNS_11dns_messageEbRSt3setItSt4lessItESaItEE
   fun:_ZN4adns19dns_parallel_client9query_udpERNS_11dns_messageE
   fun:_ZN4adns19dns_parallel_client5queryERNS_11dns_messageE
}
{
   <insert_a_suppression_name_here>
   Memcheck:Free
   fun:free
   fun:_ZN4adns22dns_recursive_resolverC1ERKNS_13server_configEb
   fun:_ZN9__gnu_cxx13new_allocatorIN4adns22dns_recursive_resolverEE9constructIS2_JRKNS1_13server_configEbEEEvPT_DpOT0_
   fun:_ZNSt16allocator_traitsISaIN4adns22dns_recursive_resolverEEE9constructIS1_JRKNS0_13server_configEbEEEvRS2_PT_DpOT0_
   fun:_ZNSt23_Sp_counted_ptr_inplaceIN4adns22dns_recursive_resolverESaIS1_ELN9__gnu_cxx12_Lock_policyE2EEC1IJRKNS0_13server_configEbEEES2_DpOT_
   fun:_ZNSt14__shared_countILN9__gnu_cxx12_Lock_policyE2EEC1IN4adns22dns_recursive_resolverESaIS5_EJRKNS4_13server_configEbEEERPT_St20_Sp_alloc_shared_tagIT0_EDpOT1_
   fun:_ZNSt12__shared_ptrIN4adns22dns_recursive_resolverELN9__gnu_cxx12_Lock_policyE2EEC1ISaIS1_EJRKNS0_13server_configEbEEESt20_Sp_alloc_shared_tagIT_EDpOT0_
   fun:_ZNSt10shared_ptrIN4adns22dns_recursive_resolverEEC1ISaIS1_EJRKNS0_13server_configEbEEESt20_Sp_alloc_shared_tagIT_EDpOT0_
   fun:_ZSt15allocate_sharedIN4adns22dns_recursive_resolverESaIS1_EJRKNS0_13server_configEbEESt10shared_ptrIT_ERKT0_DpOT1_
   fun:_ZSt11make_sharedIN4adns22dns_recursive_resolverEJRKNS0_13server_configEbEESt10shared_ptrIT_EDpOT0_
   fun:_ZN4adns14dns_udp_serverC1ERN5boost4asio10io_contextERKNS_13server_configE
   fun:_Z11run_serversv
}
{
   <insert_a_suppression_name_here>
   Memcheck:Free
   fun:free
   fun:_ZN4adns12handler_poolIPNS_20dns_message_envelopeENS_19dns_forwarding_slotENS3_8params_tEEC1ENSt7__cxx1112basic_stringIcSt11char_traitsIcESaIcEEERKS4_iii
   fun:_ZN4adns23dns_forwarding_resolverC1ERKNS_13server_configE
   fun:_ZN9__gnu_cxx13new_allocatorIN4adns23dns_forwarding_resolverEE9constructIS2_JRNS1_13server_configEEEEvPT_DpOT0_
   fun:_ZNSt16allocator_traitsISaIN4adns23dns_forwarding_resolverEEE9constructIS1_JRNS0_13server_configEEEEvRS2_PT_DpOT0_
   fun:_ZNSt23_Sp_counted_ptr_inplaceIN4adns23dns_forwarding_resolverESaIS1_ELN9__gnu_cxx12_Lock_policyE2EEC1IJRNS0_13server_configEEEES2_DpOT_
   fun:_ZNSt14__shared_countILN9__gnu_cxx12_Lock_policyE2EEC1IN4adns23dns_forwarding_resolverESaIS5_EJRNS4_13server_configEEEERPT_St20_Sp_alloc_shared_tagIT0_EDpOT1_
   fun:_ZNSt12__shared_ptrIN4adns23dns_forwarding_resolverELN9__gnu_cxx12_Lock_policyE2EEC1ISaIS1_EJRNS0_13server_configEEEESt20_Sp_alloc_shared_tagIT_EDpOT0_
   fun:_ZNSt10shared_ptrIN4adns23dns_forwarding_resolverEEC1ISaIS1_EJRNS0_13server_configEEEESt20_Sp_alloc_shared_tagIT_EDpOT0_
   fun:_ZSt15allocate_sharedIN4adns23dns_forwarding_resolverESaIS1_EJRNS0_13server_configEEESt10shared_ptrIT_ERKT0_DpOT1_
   fun:_ZSt11make_sharedIN4adns23dns_forwarding_resolverEJRNS0_13server_configEEESt10shared_ptrIT_EDpOT0_
   fun:_ZN4adns14dns_udp_serverC1ERN5boost4asio10io_contextERKNS_13server_configE
}
{
   <insert_a_suppression_name_here>
   Memcheck:Free
   fun:free
   fun:_ZN4adns12handler_poolIPNS_20dns_message_envelopeENS_19dns_forwarding_slotENS3_8params_tEEC1ENSt7__cxx1112basic_stringIcSt11char_traitsIcESaIcEEERKS4_iii
   fun:_ZN4adns23dns_forwarding_resolverC1ERKNS_13server_configE
   fun:_ZN9__gnu_cxx13new_allocatorIN4adns23dns_forwarding_resolverEE9constructIS2_JRNS1_13server_configEEEEvPT_DpOT0_
   fun:_ZNSt16allocator_traitsISaIN4adns23dns_forwarding_resolverEEE9constructIS1_JRNS0_13server_configEEEEvRS2_PT_DpOT0_
   fun:_ZNSt23_Sp_counted_ptr_inplaceIN4adns23dns_forwarding_resolverESaIS1_ELN9__gnu_cxx12_Lock_policyE2EEC1IJRNS0_13server_configEEEES2_DpOT_
   fun:_ZNSt14__shared_countILN9__gnu_cxx12_Lock_policyE2EEC1IN4adns23dns_forwarding_resolverESaIS5_EJRNS4_13server_configEEEERPT_St20_Sp_alloc_shared_tagIT0_EDpOT1_
   fun:_ZNSt12__shared_ptrIN4adns23dns_forwarding_resolverELN9__gnu_cxx12_Lock_policyE2EEC1ISaIS1_EJRNS0_13server_configEEEESt20_Sp_alloc_shared_tagIT_EDpOT0_
   fun:_ZNSt10shared_ptrIN4adns23dns_forwarding_resolverEEC1ISaIS1_EJRNS0_13server_configEEEESt20_Sp_alloc_shared_tagIT_EDpOT0_
   fun:_ZSt15allocate_sharedIN4adns23dns_forwarding_resolverESaIS1_EJRNS0_13server_configEEESt10shared_ptrIT_ERKT0_DpOT1_
   fun:_ZSt11make_sharedIN4adns23dns_forwarding_resolverEJRNS0_13server_configEEESt10shared_ptrIT_EDpOT0_
   fun:_ZN4adns14dns_udp_serverC1ERN5boost4asio10io_contextERKNS_13server_configE
}
{
   <insert_a_suppression_name_here>
   Memcheck:Free
   fun:free
   fun:_ZN4adns12handler_poolIPNS_20dns_message_envelopeENS_19dns_forwarding_slotENS3_8params_tEEC1ENSt7__cxx1112basic_stringIcSt11char_traitsIcESaIcEEERKS4_iii
   fun:_ZN4adns23dns_forwarding_resolverC1ERKNS_13server_configE
   fun:_ZN9__gnu_cxx13new_allocatorIN4adns23dns_forwarding_resolverEE9constructIS2_JRNS1_13server_configEEEEvPT_DpOT0_
   fun:_ZNSt16allocator_traitsISaIN4adns23dns_forwarding_resolverEEE9constructIS1_JRNS0_13server_configEEEEvRS2_PT_DpOT0_
   fun:_ZNSt23_Sp_counted_ptr_inplaceIN4adns23dns_forwarding_resolverESaIS1_ELN9__gnu_cxx12_Lock_policyE2EEC1IJRNS0_13server_configEEEES2_DpOT_
   fun:_ZNSt14__shared_countILN9__gnu_cxx12_Lock_policyE2EEC1IN4adns23dns_forwarding_resolverESaIS5_EJRNS4_13server_configEEEERPT_St20_Sp_alloc_shared_tagIT0_EDpOT1_
   fun:_ZNSt12__shared_ptrIN4adns23dns_forwarding_resolverELN9__gnu_cxx12_Lock_policyE2EEC1ISaIS1_EJRNS0_13server_configEEEESt20_Sp_alloc_shared_tagIT_EDpOT0_
   fun:_ZNSt10shared_ptrIN4adns23dns_forwarding_resolverEEC1ISaIS1_EJRNS0_13server_configEEEESt20_Sp_alloc_shared_tagIT_EDpOT0_
   fun:_ZSt15allocate_sharedIN4adns23dns_forwarding_resolverESaIS1_EJRNS0_13server_configEEESt10shared_ptrIT_ERKT0_DpOT1_
   fun:_ZSt11make_sharedIN4adns23dns_forwarding_resolverEJRNS0_13server_configEEESt10shared_ptrIT_EDpOT0_
   fun:_ZN4adns14dns_udp_serverC1ERN5boost4asio10io_contextERKNS_13server_configE
}
{
   <insert_a_suppression_name_here>
   Memcheck:Free
   fun:free
   fun:_ZN5boost20checked_array_deleteIhEEvPT_
   fun:_ZNK5boost21checked_array_deleterIhEclEPh
   fun:_ZN5boost6detail18sp_counted_impl_pdIPhNS_21checked_array_deleterIhEEE7disposeEv
   fun:_ZN5boost6detail15sp_counted_base7releaseEv
   fun:_ZN5boost6detail12shared_countD1Ev
   fun:_ZN5boost12shared_arrayIhED1Ev
   fun:_ZN4adns6bufferD1Ev
   fun:_ZN4adns19dns_parallel_client8send_udpERNS_11dns_messageEbRSt3setItSt4lessItESaItEE
   fun:_ZN4adns19dns_parallel_client9query_udpERNS_11dns_messageE
   fun:_ZN4adns19dns_parallel_client5queryERNS_11dns_messageE
   fun:_ZN4adns19dns_recursive_cache21update_root_hints_nowERKSt3setINS_10ip_addressESt4lessIS2_ESaIS2_EE
}
{
   <insert_a_suppression_name_here>
   Memcheck:Free
   fun:free
   fun:_ZN5boost6detail18sp_counted_impl_pdIPhNS_21checked_array_deleterIhEEED0Ev
   fun:_ZN5boost6detail15sp_counted_base7destroyEv
   fun:_ZN5boost6detail15sp_counted_base12weak_releaseEv
   fun:_ZN5boost6detail15sp_counted_base7releaseEv
   fun:_ZN5boost6detail12shared_countD1Ev
   fun:_ZN5boost12shared_arrayIhED1Ev
   fun:_ZN4adns6bufferD1Ev
   fun:_ZN4adns19dns_parallel_client8send_udpERNS_11dns_messageEbRSt3setItSt4lessItESaItEE
   fun:_ZN4adns19dns_parallel_client9query_udpERNS_11dns_messageE
   fun:_ZN4adns19dns_parallel_client5queryERNS_11dns_messageE
   fun:_ZN4adns19dns_recursive_cache21update_root_hints_nowERKSt3setINS_10ip_addressESt4lessIS2_ESaIS2_EE
}
{
   <insert_a_suppression_name_here>
   Memcheck:Free
   fun:free
   fun:_ZN9__gnu_cxx13new_allocatorISt23_Sp_counted_ptr_inplaceIN4adns10dns_rr_OPTESaIS3_ELNS_12_Lock_policyE2EEE10deallocateEPS6_m
   fun:_ZNSt16allocator_traitsISaISt23_Sp_counted_ptr_inplaceIN4adns10dns_rr_OPTESaIS2_ELN9__gnu_cxx12_Lock_policyE2EEEE10deallocateERS7_PS6_m
   fun:_ZNSt15__allocated_ptrISaISt23_Sp_counted_ptr_inplaceIN4adns10dns_rr_OPTESaIS2_ELN9__gnu_cxx12_Lock_policyE2EEEED1Ev
   fun:_ZNSt23_Sp_counted_ptr_inplaceIN4adns10dns_rr_OPTESaIS1_ELN9__gnu_cxx12_Lock_policyE2EE10_M_destroyEv
   fun:_ZNSt16_Sp_counted_baseILN9__gnu_cxx12_Lock_policyE2EE10_M_releaseEv
   fun:_ZNSt14__shared_countILN9__gnu_cxx12_Lock_policyE2EED1Ev
   fun:_ZNSt12__shared_ptrIN4adns6dns_rrELN9__gnu_cxx12_Lock_policyE2EED1Ev
   fun:_ZNSt10shared_ptrIN4adns6dns_rrEED1Ev
   fun:_ZN4adns18dns_message_parser9from_wireERKNS_6bufferE
   fun:_ZN4adns19dns_parallel_client25extract_matching_responseEPPNS_10udp_socket7messageEiSt3setItSt4lessItESaItEERKNS_8dns_nameERb
   fun:_ZN4adns19dns_parallel_client11receive_udpERNS_11dns_messageERSt3setItSt4lessItESaItEERb
}
{
   <insert_a_suppression_name_here>
   Memcheck:Free
   fun:free
   fun:_ZN9__gnu_cxx13new_allocatorISt13_Rb_tree_nodeItEE10deallocateEPS2_m
   fun:_ZNSt16allocator_traitsISaISt13_Rb_tree_nodeItEEE10deallocateERS2_PS1_m
   fun:_ZNSt8_Rb_treeIttSt9_IdentityItESt4lessItESaItEE11_M_put_nodeEPSt13_Rb_tree_nodeItE
   fun:_ZNSt8_Rb_treeIttSt9_IdentityItESt4lessItESaItEE12_M_drop_nodeEPSt13_Rb_tree_nodeItE
   fun:_ZNSt8_Rb_treeIttSt9_IdentityItESt4lessItESaItEE8_M_eraseEPSt13_Rb_tree_nodeItE
   fun:_ZNSt8_Rb_treeIttSt9_IdentityItESt4lessItESaItEE8_M_eraseEPSt13_Rb_tree_nodeItE
   fun:_ZNSt8_Rb_treeIttSt9_IdentityItESt4lessItESaItEED1Ev
   fun:_ZNSt3setItSt4lessItESaItEED1Ev
   fun:_ZN4adns19dns_parallel_client11receive_udpERNS_11dns_messageERSt3setItSt4lessItESaItEERb
   fun:_ZN4adns19dns_parallel_client9query_udpERNS_11dns_messageE
   fun:_ZN4adns19dns_parallel_client5queryERNS_11dns_messageE
}
{
   <insert_a_suppression_name_here>
   Memcheck:Free
   fun:free
   fun:_ZN4adns19dns_parallel_client11receive_udpERNS_11dns_messageERSt3setItSt4lessItESaItEERb
   fun:_ZN4adns19dns_parallel_client9query_udpERNS_11dns_messageE
   fun:_ZN4adns19dns_parallel_client5queryERNS_11dns_messageE
   fun:_ZN4adns19dns_recursive_cache21update_root_hints_nowERKSt3setINS_10ip_addressESt4lessIS2_ESaIS2_EE
   fun:_ZN4adns19dns_recursive_cache17update_root_hintsEv
   fun:_ZSt13__invoke_implIvMN4adns19dns_recursive_cacheEFvvEPS1_JEET_St21__invoke_memfun_derefOT0_OT1_DpOT2_
   fun:_ZSt8__invokeIMN4adns19dns_recursive_cacheEFvvEJPS1_EENSt15__invoke_resultIT_JDpT0_EE4typeEOS6_DpOS7_
   fun:_ZNSt6thread8_InvokerISt5tupleIJMN4adns19dns_recursive_cacheEFvvEPS3_EEE9_M_invokeIJLm0ELm1EEEEvSt12_Index_tupleIJXspT_EEE
   fun:_ZNSt6thread8_InvokerISt5tupleIJMN4adns19dns_recursive_cacheEFvvEPS3_EEEclEv
   fun:_ZNSt6thread11_State_implINS_8_InvokerISt5tupleIJMN4adns19dns_recursive_cacheEFvvEPS4_EEEEE6_M_runEv
   obj:/usr/lib/x86_64-linux-gnu/libstdc++.so.6.0.28
}
{
   <insert_a_suppression_name_here>
   Memcheck:Free
   fun:free
   fun:_ZN9__gnu_cxx13new_allocatorINSt8__detail10_Hash_nodeISt4pairIKiSt10shared_ptrIN4adns6socketEEELb0EEEE10deallocateEPSA_m
   fun:_ZNSt16allocator_traitsISaINSt8__detail10_Hash_nodeISt4pairIKiSt10shared_ptrIN4adns6socketEEELb0EEEEE10deallocateERSA_PS9_m
   fun:_ZNSt8__detail16_Hashtable_allocISaINS_10_Hash_nodeISt4pairIKiSt10shared_ptrIN4adns6socketEEELb0EEEEE22_M_deallocate_node_ptrEPS9_
   fun:_ZNSt8__detail16_Hashtable_allocISaINS_10_Hash_nodeISt4pairIKiSt10shared_ptrIN4adns6socketEEELb0EEEEE18_M_deallocate_nodeEPS9_
   fun:_ZNSt8__detail16_Hashtable_allocISaINS_10_Hash_nodeISt4pairIKiSt10shared_ptrIN4adns6socketEEELb0EEEEE19_M_deallocate_nodesEPS9_
   fun:_ZNSt10_HashtableIiSt4pairIKiSt10shared_ptrIN4adns6socketEEESaIS6_ENSt8__detail10_Select1stESt8equal_toIiESt4hashIiENS8_18_Mod_range_hashingENS8_20_Default_ranged_hashENS8_20_Prime_rehash_policyENS8_17_Hashtable_traitsILb0ELb0ELb1EEEE5clearEv
   fun:_ZNSt10_HashtableIiSt4pairIKiSt10shared_ptrIN4adns6socketEEESaIS6_ENSt8__detail10_Select1stESt8equal_toIiESt4hashIiENS8_18_Mod_range_hashingENS8_20_Default_ranged_hashENS8_20_Prime_rehash_policyENS8_17_Hashtable_traitsILb0ELb0ELb1EEEED1Ev
   fun:_ZNSt13unordered_mapIiSt10shared_ptrIN4adns6socketEESt4hashIiESt8equal_toIiESaISt4pairIKiS3_EEED1Ev
   fun:_ZN4adns10socket_setD1Ev
   fun:_ZN4adns19dns_parallel_client11receive_udpERNS_11dns_messageERSt3setItSt4lessItESaItEERb
   fun:_ZN4adns19dns_parallel_client9query_udpERNS_11dns_messageE
}
{
   <insert_a_suppression_name_here>
   Memcheck:Free
   fun:free
   fun:_ZN9__gnu_cxx13new_allocatorISt23_Sp_counted_ptr_inplaceIN4adns12dns_questionESaIS3_ELNS_12_Lock_policyE2EEE10deallocateEPS6_m
   fun:_ZNSt16allocator_traitsISaISt23_Sp_counted_ptr_inplaceIN4adns12dns_questionESaIS2_ELN9__gnu_cxx12_Lock_policyE2EEEE10deallocateERS7_PS6_m
   fun:_ZNSt15__allocated_ptrISaISt23_Sp_counted_ptr_inplaceIN4adns12dns_questionESaIS2_ELN9__gnu_cxx12_Lock_policyE2EEEED1Ev
   fun:_ZNSt23_Sp_counted_ptr_inplaceIN4adns12dns_questionESaIS1_ELN9__gnu_cxx12_Lock_policyE2EE10_M_destroyEv
   fun:_ZNSt16_Sp_counted_baseILN9__gnu_cxx12_Lock_policyE2EE10_M_releaseEv
   fun:_ZNSt14__shared_countILN9__gnu_cxx12_Lock_policyE2EED1Ev
   fun:_ZNSt12__shared_ptrIN4adns12dns_questionELN9__gnu_cxx12_Lock_policyE2EED1Ev
   fun:_ZNSt10shared_ptrIN4adns12dns_questionEED1Ev
   fun:_ZN4adns11dns_messageD1Ev
   fun:_ZN4adns11dns_messageD0Ev
   fun:_ZN4adns19dns_recursive_cache21update_root_hints_nowERKSt3setINS_10ip_addressESt4lessIS2_ESaIS2_EE
}
{
   <insert_a_suppression_name_here>
   Memcheck:Free
   fun:free
   fun:_ZN4adns11dns_messageD0Ev
   fun:_ZN4adns19dns_recursive_cache21update_root_hints_nowERKSt3setINS_10ip_addressESt4lessIS2_ESaIS2_EE
   fun:_ZN4adns19dns_recursive_cache17update_root_hintsEv
   fun:_ZSt13__invoke_implIvMN4adns19dns_recursive_cacheEFvvEPS1_JEET_St21__invoke_memfun_derefOT0_OT1_DpOT2_
   fun:_ZSt8__invokeIMN4adns19dns_recursive_cacheEFvvEJPS1_EENSt15__invoke_resultIT_JDpT0_EE4typeEOS6_DpOS7_
   fun:_ZNSt6thread8_InvokerISt5tupleIJMN4adns19dns_recursive_cacheEFvvEPS3_EEE9_M_invokeIJLm0ELm1EEEEvSt12_Index_tupleIJXspT_EEE
   fun:_ZNSt6thread8_InvokerISt5tupleIJMN4adns19dns_recursive_cacheEFvvEPS3_EEEclEv
   fun:_ZNSt6thread11_State_implINS_8_InvokerISt5tupleIJMN4adns19dns_recursive_cacheEFvvEPS4_EEEEE6_M_runEv
   obj:/usr/lib/x86_64-linux-gnu/libstdc++.so.6.0.28
   fun:start_thread
   fun:clone
}
{
   <insert_a_suppression_name_here>
   Memcheck:Free
   fun:free
   fun:_ZN9__gnu_cxx13new_allocatorISt13_Rb_tree_nodeIN4adns10ip_addressEEE10deallocateEPS4_m
   fun:_ZNSt16allocator_traitsISaISt13_Rb_tree_nodeIN4adns10ip_addressEEEE10deallocateERS4_PS3_m
   fun:_ZNSt8_Rb_treeIN4adns10ip_addressES1_St9_IdentityIS1_ESt4lessIS1_ESaIS1_EE11_M_put_nodeEPSt13_Rb_tree_nodeIS1_E
   fun:_ZNSt8_Rb_treeIN4adns10ip_addressES1_St9_IdentityIS1_ESt4lessIS1_ESaIS1_EE12_M_drop_nodeEPSt13_Rb_tree_nodeIS1_E
   fun:_ZNSt8_Rb_treeIN4adns10ip_addressES1_St9_IdentityIS1_ESt4lessIS1_ESaIS1_EE8_M_eraseEPSt13_Rb_tree_nodeIS1_E
   fun:_ZNSt8_Rb_treeIN4adns10ip_addressES1_St9_IdentityIS1_ESt4lessIS1_ESaIS1_EE8_M_eraseEPSt13_Rb_tree_nodeIS1_E
   fun:_ZNSt8_Rb_treeIN4adns10ip_addressES1_St9_IdentityIS1_ESt4lessIS1_ESaIS1_EED1Ev
   fun:_ZNSt3setIN4adns10ip_addressESt4lessIS1_ESaIS1_EED1Ev
   fun:_ZN4adns19dns_parallel_clientD1Ev
   fun:_ZN4adns19dns_recursive_cache21update_root_hints_nowERKSt3setINS_10ip_addressESt4lessIS2_ESaIS2_EE
   fun:_ZN4adns19dns_recursive_cache17update_root_hintsEv
}
{
   <insert_a_suppression_name_here>
   Memcheck:Free
   fun:free
   fun:_ZN4adns10udp_socketD0Ev
   fun:_ZNSt15_Sp_counted_ptrIPN4adns10udp_socketELN9__gnu_cxx12_Lock_policyE2EE10_M_disposeEv
   fun:_ZNSt16_Sp_counted_baseILN9__gnu_cxx12_Lock_policyE2EE10_M_releaseEv
   fun:_ZNSt14__shared_countILN9__gnu_cxx12_Lock_policyE2EED1Ev
   fun:_ZNSt12__shared_ptrIN4adns10udp_socketELN9__gnu_cxx12_Lock_policyE2EED1Ev
   fun:_ZNSt10shared_ptrIN4adns10udp_socketEED1Ev
   fun:_ZN4adns19dns_parallel_clientD1Ev
   fun:_ZN4adns19dns_recursive_cache21update_root_hints_nowERKSt3setINS_10ip_addressESt4lessIS2_ESaIS2_EE
   fun:_ZN4adns19dns_recursive_cache17update_root_hintsEv
   fun:_ZSt13__invoke_implIvMN4adns19dns_recursive_cacheEFvvEPS1_JEET_St21__invoke_memfun_derefOT0_OT1_DpOT2_
   fun:_ZSt8__invokeIMN4adns19dns_recursive_cacheEFvvEJPS1_EENSt15__invoke_resultIT_JDpT0_EE4typeEOS6_DpOS7_
}
{
   <insert_a_suppression_name_here>
   Memcheck:Free
   fun:free
   fun:_ZNSt15_Sp_counted_ptrIPN4adns10udp_socketELN9__gnu_cxx12_Lock_policyE2EED0Ev
   fun:_ZNSt15_Sp_counted_ptrIPN4adns10udp_socketELN9__gnu_cxx12_Lock_policyE2EE10_M_destroyEv
   fun:_ZNSt16_Sp_counted_baseILN9__gnu_cxx12_Lock_policyE2EE10_M_releaseEv
   fun:_ZNSt14__shared_countILN9__gnu_cxx12_Lock_policyE2EED1Ev
   fun:_ZNSt12__shared_ptrIN4adns10udp_socketELN9__gnu_cxx12_Lock_policyE2EED1Ev
   fun:_ZNSt10shared_ptrIN4adns10udp_socketEED1Ev
   fun:_ZN4adns19dns_parallel_clientD1Ev
   fun:_ZN4adns19dns_recursive_cache21update_root_hints_nowERKSt3setINS_10ip_addressESt4lessIS2_ESaIS2_EE
   fun:_ZN4adns19dns_recursive_cache17update_root_hintsEv
   fun:_ZSt13__invoke_implIvMN4adns19dns_recursive_cacheEFvvEPS1_JEET_St21__invoke_memfun_derefOT0_OT1_DpOT2_
   fun:_ZSt8__invokeIMN4adns19dns_recursive_cacheEFvvEJPS1_EENSt15__invoke_resultIT_JDpT0_EE4typeEOS6_DpOS7_
}
{
   <insert_a_suppression_name_here>
   Memcheck:Free
   fun:free
   fun:_ZN9__gnu_cxx13new_allocatorISt23_Sp_counted_ptr_inplaceIN4adns8dns_rr_AESaIS3_ELNS_12_Lock_policyE2EEE10deallocateEPS6_m
   fun:_ZNSt16allocator_traitsISaISt23_Sp_counted_ptr_inplaceIN4adns8dns_rr_AESaIS2_ELN9__gnu_cxx12_Lock_policyE2EEEE10deallocateERS7_PS6_m
   fun:_ZNSt15__allocated_ptrISaISt23_Sp_counted_ptr_inplaceIN4adns8dns_rr_AESaIS2_ELN9__gnu_cxx12_Lock_policyE2EEEED1Ev
   fun:_ZNSt23_Sp_counted_ptr_inplaceIN4adns8dns_rr_AESaIS1_ELN9__gnu_cxx12_Lock_policyE2EE10_M_destroyEv
   fun:_ZNSt16_Sp_counted_baseILN9__gnu_cxx12_Lock_policyE2EE10_M_releaseEv
   fun:_ZNSt14__shared_countILN9__gnu_cxx12_Lock_policyE2EED1Ev
   fun:_ZNSt12__shared_ptrIN4adns6dns_rrELN9__gnu_cxx12_Lock_policyE2EED1Ev
   fun:_ZNSt10shared_ptrIN4adns6dns_rrEED1Ev
   fun:_ZN9__gnu_cxx13new_allocatorISt10_List_nodeISt10shared_ptrIN4adns6dns_rrEEEE7destroyIS5_EEvPT_
   fun:_ZNSt16allocator_traitsISaISt10_List_nodeISt10shared_ptrIN4adns6dns_rrEEEEE7destroyIS4_EEvRS6_PT_
   fun:_ZNSt7__cxx1110_List_baseISt10shared_ptrIN4adns6dns_rrEESaIS4_EE8_M_clearEv
}
{
   <insert_a_suppression_name_here>
   Memcheck:Free
   fun:free
   fun:_ZN9__gnu_cxx13new_allocatorISt23_Sp_counted_ptr_inplaceIN4adns11dns_rr_AAAAESaIS3_ELNS_12_Lock_policyE2EEE10deallocateEPS6_m
   fun:_ZNSt16allocator_traitsISaISt23_Sp_counted_ptr_inplaceIN4adns11dns_rr_AAAAESaIS2_ELN9__gnu_cxx12_Lock_policyE2EEEE10deallocateERS7_PS6_m
   fun:_ZNSt15__allocated_ptrISaISt23_Sp_counted_ptr_inplaceIN4adns11dns_rr_AAAAESaIS2_ELN9__gnu_cxx12_Lock_policyE2EEEED1Ev
   fun:_ZNSt23_Sp_counted_ptr_inplaceIN4adns11dns_rr_AAAAESaIS1_ELN9__gnu_cxx12_Lock_policyE2EE10_M_destroyEv
   fun:_ZNSt16_Sp_counted_baseILN9__gnu_cxx12_Lock_policyE2EE10_M_releaseEv
   fun:_ZNSt14__shared_countILN9__gnu_cxx12_Lock_policyE2EED1Ev
   fun:_ZNSt12__shared_ptrIN4adns6dns_rrELN9__gnu_cxx12_Lock_policyE2EED1Ev
   fun:_ZNSt10shared_ptrIN4adns6dns_rrEED1Ev
   fun:_ZN9__gnu_cxx13new_allocatorISt10_List_nodeISt10shared_ptrIN4adns6dns_rrEEEE7destroyIS5_EEvPT_
   fun:_ZNSt16allocator_traitsISaISt10_List_nodeISt10shared_ptrIN4adns6dns_rrEEEEE7destroyIS4_EEvRS6_PT_
   fun:_ZNSt7__cxx1110_List_baseISt10shared_ptrIN4adns6dns_rrEESaIS4_EE8_M_clearEv
}
{
   <insert_a_suppression_name_here>
   Memcheck:Free
   fun:free
   fun:_ZN9__gnu_cxx13new_allocatorISt23_Sp_counted_ptr_inplaceIN4adns26dns_recursive_cache_answerESaIS3_ELNS_12_Lock_policyE2EEE10deallocateEPS6_m
   fun:_ZNSt16allocator_traitsISaISt23_Sp_counted_ptr_inplaceIN4adns26dns_recursive_cache_answerESaIS2_ELN9__gnu_cxx12_Lock_policyE2EEEE10deallocateERS7_PS6_m
   fun:_ZNSt15__allocated_ptrISaISt23_Sp_counted_ptr_inplaceIN4adns26dns_recursive_cache_answerESaIS2_ELN9__gnu_cxx12_Lock_policyE2EEEED1Ev
   fun:_ZNSt23_Sp_counted_ptr_inplaceIN4adns26dns_recursive_cache_answerESaIS1_ELN9__gnu_cxx12_Lock_policyE2EE10_M_destroyEv
   fun:_ZNSt16_Sp_counted_baseILN9__gnu_cxx12_Lock_policyE2EE10_M_releaseEv
   fun:_ZNSt14__shared_countILN9__gnu_cxx12_Lock_policyE2EED1Ev
   fun:_ZNSt12__shared_ptrIN4adns26dns_recursive_cache_answerELN9__gnu_cxx12_Lock_policyE2EED1Ev
   fun:_ZNSt10shared_ptrIN4adns26dns_recursive_cache_answerEED1Ev
   fun:_ZN4adns19dns_recursive_cache17update_root_hintsEv
   fun:_ZSt13__invoke_implIvMN4adns19dns_recursive_cacheEFvvEPS1_JEET_St21__invoke_memfun_derefOT0_OT1_DpOT2_
   fun:_ZSt8__invokeIMN4adns19dns_recursive_cacheEFvvEJPS1_EENSt15__invoke_resultIT_JDpT0_EE4typeEOS6_DpOS7_
}
{
   <insert_a_suppression_name_here>
   Memcheck:Free
   fun:free
   fun:_ZN4adns23dns_forwarding_resolverC1ERKNS_13server_configE
   fun:_ZN9__gnu_cxx13new_allocatorIN4adns23dns_forwarding_resolverEE9constructIS2_JRNS1_13server_configEEEEvPT_DpOT0_
   fun:_ZNSt16allocator_traitsISaIN4adns23dns_forwarding_resolverEEE9constructIS1_JRNS0_13server_configEEEEvRS2_PT_DpOT0_
   fun:_ZNSt23_Sp_counted_ptr_inplaceIN4adns23dns_forwarding_resolverESaIS1_ELN9__gnu_cxx12_Lock_policyE2EEC1IJRNS0_13server_configEEEES2_DpOT_
   fun:_ZNSt14__shared_countILN9__gnu_cxx12_Lock_policyE2EEC1IN4adns23dns_forwarding_resolverESaIS5_EJRNS4_13server_configEEEERPT_St20_Sp_alloc_shared_tagIT0_EDpOT1_
   fun:_ZNSt12__shared_ptrIN4adns23dns_forwarding_resolverELN9__gnu_cxx12_Lock_policyE2EEC1ISaIS1_EJRNS0_13server_configEEEESt20_Sp_alloc_shared_tagIT_EDpOT0_
   fun:_ZNSt10shared_ptrIN4adns23dns_forwarding_resolverEEC1ISaIS1_EJRNS0_13server_configEEEESt20_Sp_alloc_shared_tagIT_EDpOT0_
   fun:_ZSt15allocate_sharedIN4adns23dns_forwarding_resolverESaIS1_EJRNS0_13server_configEEESt10shared_ptrIT_ERKT0_DpOT1_
   fun:_ZSt11make_sharedIN4adns23dns_forwarding_resolverEJRNS0_13server_configEEESt10shared_ptrIT_EDpOT0_
   fun:_ZN4adns14dns_udp_serverC1ERN5boost4asio10io_contextERKNS_13server_configE
   fun:_Z11run_serversv
}
{
   <insert_a_suppression_name_here>
   Memcheck:Free
   fun:free
   fun:_ZN4adns12handler_poolIPNS_20dns_message_envelopeENS_11dns_handlerENS3_8params_tEEC1ENSt7__cxx1112basic_stringIcSt11char_traitsIcESaIcEEERKS4_iii
   fun:_ZN4adns14dns_udp_serverC1ERN5boost4asio10io_contextERKNS_13server_configE
   fun:_Z11run_serversv
   fun:main
}
{
   <insert_a_suppression_name_here>
   Memcheck:Free
   fun:free
   fun:_ZN4adns12handler_poolIPNS_20dns_message_envelopeENS_11dns_handlerENS3_8params_tEEC1ENSt7__cxx1112basic_stringIcSt11char_traitsIcESaIcEEERKS4_iii
   fun:_ZN4adns14dns_udp_serverC1ERN5boost4asio10io_contextERKNS_13server_configE
   fun:_Z11run_serversv
   fun:main
}
{
   <insert_a_suppression_name_here>
   Memcheck:Free
   fun:free
   fun:_ZN4adns12handler_poolIPNS_20dns_message_envelopeENS_11dns_handlerENS3_8params_tEEC1ENSt7__cxx1112basic_stringIcSt11char_traitsIcESaIcEEERKS4_iii
   fun:_ZN4adns14dns_udp_serverC1ERN5boost4asio10io_contextERKNS_13server_configE
   fun:_Z11run_serversv
   fun:main
}
{
   <insert_a_suppression_name_here>
   Memcheck:Free
   fun:free
   fun:_ZN4adns14dns_udp_serverC1ERN5boost4asio10io_contextERKNS_13server_configE
   fun:_Z11run_serversv
   fun:main
}
{
   <insert_a_suppression_name_here>
   Memcheck:Free
   fun:free
   fun:_ZN4adns2db11row_horizonD0Ev
   fun:_ZNSt15_Sp_counted_ptrIPN4adns2db11row_horizonELN9__gnu_cxx12_Lock_policyE2EE10_M_disposeEv
   fun:_ZNSt16_Sp_counted_baseILN9__gnu_cxx12_Lock_policyE2EE10_M_releaseEv
   fun:_ZNSt14__shared_countILN9__gnu_cxx12_Lock_policyE2EED1Ev
   fun:_ZNSt12__shared_ptrIN4adns2db11row_horizonELN9__gnu_cxx12_Lock_policyE2EED1Ev
   fun:_ZNSt10shared_ptrIN4adns2db11row_horizonEED1Ev
   fun:_ZSt8_DestroyISt10shared_ptrIN4adns2db11row_horizonEEEvPT_
   fun:_ZNSt12_Destroy_auxILb0EE9__destroyIPSt10shared_ptrIN4adns2db11row_horizonEEEEvT_S8_
   fun:_ZSt8_DestroyIPSt10shared_ptrIN4adns2db11row_horizonEEEvT_S6_
   fun:_ZSt8_DestroyIPSt10shared_ptrIN4adns2db11row_horizonEES4_EvT_S6_RSaIT0_E
   fun:_ZNSt6vectorISt10shared_ptrIN4adns2db11row_horizonEESaIS4_EED1Ev
}
{
   <insert_a_suppression_name_here>
   Memcheck:Free
   fun:free
   fun:_ZNSt15_Sp_counted_ptrIPN4adns2db11row_horizonELN9__gnu_cxx12_Lock_policyE2EED0Ev
   fun:_ZNSt15_Sp_counted_ptrIPN4adns2db11row_horizonELN9__gnu_cxx12_Lock_policyE2EE10_M_destroyEv
   fun:_ZNSt16_Sp_counted_baseILN9__gnu_cxx12_Lock_policyE2EE10_M_releaseEv
   fun:_ZNSt14__shared_countILN9__gnu_cxx12_Lock_policyE2EED1Ev
   fun:_ZNSt12__shared_ptrIN4adns2db11row_horizonELN9__gnu_cxx12_Lock_policyE2EED1Ev
   fun:_ZNSt10shared_ptrIN4adns2db11row_horizonEED1Ev
   fun:_ZSt8_DestroyISt10shared_ptrIN4adns2db11row_horizonEEEvPT_
   fun:_ZNSt12_Destroy_auxILb0EE9__destroyIPSt10shared_ptrIN4adns2db11row_horizonEEEEvT_S8_
   fun:_ZSt8_DestroyIPSt10shared_ptrIN4adns2db11row_horizonEEEvT_S6_
   fun:_ZSt8_DestroyIPSt10shared_ptrIN4adns2db11row_horizonEES4_EvT_S6_RSaIT0_E
   fun:_ZNSt6vectorISt10shared_ptrIN4adns2db11row_horizonEESaIS4_EED1Ev
}
{
   <insert_a_suppression_name_here>
   Memcheck:Free
   fun:free
   fun:_ZN9__gnu_cxx13new_allocatorISt10shared_ptrIN4adns2db11row_horizonEEE10deallocateEPS5_m
   fun:_ZNSt16allocator_traitsISaISt10shared_ptrIN4adns2db11row_horizonEEEE10deallocateERS5_PS4_m
   fun:_ZNSt12_Vector_baseISt10shared_ptrIN4adns2db11row_horizonEESaIS4_EE13_M_deallocateEPS4_m
   fun:_ZNSt12_Vector_baseISt10shared_ptrIN4adns2db11row_horizonEESaIS4_EED1Ev
   fun:_ZNSt6vectorISt10shared_ptrIN4adns2db11row_horizonEESaIS4_EED1Ev
   fun:_ZN4adns11dns_horizon10load_cacheEv
   fun:_ZN4adns5cacheINS_11dns_horizonEE8validateEv
   fun:_ZN4adns5cacheINS_11dns_horizonEE5itemsEv
   fun:_ZN4adns11dns_horizon7get_allEv
   fun:_ZN4adns8dns_zone4initEv
   fun:_ZN4adns14dns_udp_serverC1ERN5boost4asio10io_contextERKNS_13server_configE
}
{
   <insert_a_suppression_name_here>
   Memcheck:Free
   fun:free
   fun:_ZN4adns2db8row_zone11init_staticEv
   fun:_ZN4adns2db8row_zone17get_by_horizon_idERNS0_10connectionEj
   fun:_ZN4adns14dns_zone_cache9read_dataERKNS_11dns_horizonE
   fun:_ZN4adns14dns_zone_cacheC1ERKNS_11dns_horizonE
   fun:_ZN9__gnu_cxx13new_allocatorIN4adns14dns_zone_cacheEE9constructIS2_JRNS1_11dns_horizonEEEEvPT_DpOT0_
   fun:_ZNSt16allocator_traitsISaIN4adns14dns_zone_cacheEEE9constructIS1_JRNS0_11dns_horizonEEEEvRS2_PT_DpOT0_
   fun:_ZNSt23_Sp_counted_ptr_inplaceIN4adns14dns_zone_cacheESaIS1_ELN9__gnu_cxx12_Lock_policyE2EEC1IJRNS0_11dns_horizonEEEES2_DpOT_
   fun:_ZNSt14__shared_countILN9__gnu_cxx12_Lock_policyE2EEC1IN4adns14dns_zone_cacheESaIS5_EJRNS4_11dns_horizonEEEERPT_St20_Sp_alloc_shared_tagIT0_EDpOT1_
   fun:_ZNSt12__shared_ptrIN4adns14dns_zone_cacheELN9__gnu_cxx12_Lock_policyE2EEC1ISaIS1_EJRNS0_11dns_horizonEEEESt20_Sp_alloc_shared_tagIT_EDpOT0_
   fun:_ZNSt10shared_ptrIN4adns14dns_zone_cacheEEC1ISaIS1_EJRNS0_11dns_horizonEEEESt20_Sp_alloc_shared_tagIT_EDpOT0_
   fun:_ZSt15allocate_sharedIN4adns14dns_zone_cacheESaIS1_EJRNS0_11dns_horizonEEESt10shared_ptrIT_ERKT0_DpOT1_
}
{
   <insert_a_suppression_name_here>
   Memcheck:Free
   fun:free
   fun:_ZN4adns2db8row_zone11init_staticEv
   fun:_ZN4adns2db8row_zone17get_by_horizon_idERNS0_10connectionEj
   fun:_ZN4adns14dns_zone_cache9read_dataERKNS_11dns_horizonE
   fun:_ZN4adns14dns_zone_cacheC1ERKNS_11dns_horizonE
   fun:_ZN9__gnu_cxx13new_allocatorIN4adns14dns_zone_cacheEE9constructIS2_JRNS1_11dns_horizonEEEEvPT_DpOT0_
   fun:_ZNSt16allocator_traitsISaIN4adns14dns_zone_cacheEEE9constructIS1_JRNS0_11dns_horizonEEEEvRS2_PT_DpOT0_
   fun:_ZNSt23_Sp_counted_ptr_inplaceIN4adns14dns_zone_cacheESaIS1_ELN9__gnu_cxx12_Lock_policyE2EEC1IJRNS0_11dns_horizonEEEES2_DpOT_
   fun:_ZNSt14__shared_countILN9__gnu_cxx12_Lock_policyE2EEC1IN4adns14dns_zone_cacheESaIS5_EJRNS4_11dns_horizonEEEERPT_St20_Sp_alloc_shared_tagIT0_EDpOT1_
   fun:_ZNSt12__shared_ptrIN4adns14dns_zone_cacheELN9__gnu_cxx12_Lock_policyE2EEC1ISaIS1_EJRNS0_11dns_horizonEEEESt20_Sp_alloc_shared_tagIT_EDpOT0_
   fun:_ZNSt10shared_ptrIN4adns14dns_zone_cacheEEC1ISaIS1_EJRNS0_11dns_horizonEEEESt20_Sp_alloc_shared_tagIT_EDpOT0_
   fun:_ZSt15allocate_sharedIN4adns14dns_zone_cacheESaIS1_EJRNS0_11dns_horizonEEESt10shared_ptrIT_ERKT0_DpOT1_
}
{
   <insert_a_suppression_name_here>
   Memcheck:Free
   fun:free
   fun:_ZN4adns2db8row_zone11init_staticEv
   fun:_ZN4adns2db8row_zone17get_by_horizon_idERNS0_10connectionEj
   fun:_ZN4adns14dns_zone_cache9read_dataERKNS_11dns_horizonE
   fun:_ZN4adns14dns_zone_cacheC1ERKNS_11dns_horizonE
   fun:_ZN9__gnu_cxx13new_allocatorIN4adns14dns_zone_cacheEE9constructIS2_JRNS1_11dns_horizonEEEEvPT_DpOT0_
   fun:_ZNSt16allocator_traitsISaIN4adns14dns_zone_cacheEEE9constructIS1_JRNS0_11dns_horizonEEEEvRS2_PT_DpOT0_
   fun:_ZNSt23_Sp_counted_ptr_inplaceIN4adns14dns_zone_cacheESaIS1_ELN9__gnu_cxx12_Lock_policyE2EEC1IJRNS0_11dns_horizonEEEES2_DpOT_
   fun:_ZNSt14__shared_countILN9__gnu_cxx12_Lock_policyE2EEC1IN4adns14dns_zone_cacheESaIS5_EJRNS4_11dns_horizonEEEERPT_St20_Sp_alloc_shared_tagIT0_EDpOT1_
   fun:_ZNSt12__shared_ptrIN4adns14dns_zone_cacheELN9__gnu_cxx12_Lock_policyE2EEC1ISaIS1_EJRNS0_11dns_horizonEEEESt20_Sp_alloc_shared_tagIT_EDpOT0_
   fun:_ZNSt10shared_ptrIN4adns14dns_zone_cacheEEC1ISaIS1_EJRNS0_11dns_horizonEEEESt20_Sp_alloc_shared_tagIT_EDpOT0_
   fun:_ZSt15allocate_sharedIN4adns14dns_zone_cacheESaIS1_EJRNS0_11dns_horizonEEESt10shared_ptrIT_ERKT0_DpOT1_
}
{
   <insert_a_suppression_name_here>
   Memcheck:Free
   fun:free
   fun:_ZN4adns2db8row_zone11init_staticEv
   fun:_ZN4adns2db8row_zone17get_by_horizon_idERNS0_10connectionEj
   fun:_ZN4adns14dns_zone_cache9read_dataERKNS_11dns_horizonE
   fun:_ZN4adns14dns_zone_cacheC1ERKNS_11dns_horizonE
   fun:_ZN9__gnu_cxx13new_allocatorIN4adns14dns_zone_cacheEE9constructIS2_JRNS1_11dns_horizonEEEEvPT_DpOT0_
   fun:_ZNSt16allocator_traitsISaIN4adns14dns_zone_cacheEEE9constructIS1_JRNS0_11dns_horizonEEEEvRS2_PT_DpOT0_
   fun:_ZNSt23_Sp_counted_ptr_inplaceIN4adns14dns_zone_cacheESaIS1_ELN9__gnu_cxx12_Lock_policyE2EEC1IJRNS0_11dns_horizonEEEES2_DpOT_
   fun:_ZNSt14__shared_countILN9__gnu_cxx12_Lock_policyE2EEC1IN4adns14dns_zone_cacheESaIS5_EJRNS4_11dns_horizonEEEERPT_St20_Sp_alloc_shared_tagIT0_EDpOT1_
   fun:_ZNSt12__shared_ptrIN4adns14dns_zone_cacheELN9__gnu_cxx12_Lock_policyE2EEC1ISaIS1_EJRNS0_11dns_horizonEEEESt20_Sp_alloc_shared_tagIT_EDpOT0_
   fun:_ZNSt10shared_ptrIN4adns14dns_zone_cacheEEC1ISaIS1_EJRNS0_11dns_horizonEEEESt20_Sp_alloc_shared_tagIT_EDpOT0_
   fun:_ZSt15allocate_sharedIN4adns14dns_zone_cacheESaIS1_EJRNS0_11dns_horizonEEESt10shared_ptrIT_ERKT0_DpOT1_
}
{
   <insert_a_suppression_name_here>
   Memcheck:Free
   fun:free
   fun:_ZN4adns2db8row_zone11init_staticEv
   fun:_ZN4adns2db8row_zone17get_by_horizon_idERNS0_10connectionEj
   fun:_ZN4adns14dns_zone_cache9read_dataERKNS_11dns_horizonE
   fun:_ZN4adns14dns_zone_cacheC1ERKNS_11dns_horizonE
   fun:_ZN9__gnu_cxx13new_allocatorIN4adns14dns_zone_cacheEE9constructIS2_JRNS1_11dns_horizonEEEEvPT_DpOT0_
   fun:_ZNSt16allocator_traitsISaIN4adns14dns_zone_cacheEEE9constructIS1_JRNS0_11dns_horizonEEEEvRS2_PT_DpOT0_
   fun:_ZNSt23_Sp_counted_ptr_inplaceIN4adns14dns_zone_cacheESaIS1_ELN9__gnu_cxx12_Lock_policyE2EEC1IJRNS0_11dns_horizonEEEES2_DpOT_
   fun:_ZNSt14__shared_countILN9__gnu_cxx12_Lock_policyE2EEC1IN4adns14dns_zone_cacheESaIS5_EJRNS4_11dns_horizonEEEERPT_St20_Sp_alloc_shared_tagIT0_EDpOT1_
   fun:_ZNSt12__shared_ptrIN4adns14dns_zone_cacheELN9__gnu_cxx12_Lock_policyE2EEC1ISaIS1_EJRNS0_11dns_horizonEEEESt20_Sp_alloc_shared_tagIT_EDpOT0_
   fun:_ZNSt10shared_ptrIN4adns14dns_zone_cacheEEC1ISaIS1_EJRNS0_11dns_horizonEEEESt20_Sp_alloc_shared_tagIT_EDpOT0_
   fun:_ZSt15allocate_sharedIN4adns14dns_zone_cacheESaIS1_EJRNS0_11dns_horizonEEESt10shared_ptrIT_ERKT0_DpOT1_
}
{
   <insert_a_suppression_name_here>
   Memcheck:Free
   fun:free
   fun:_ZN4adns2db8row_zone11init_staticEv
   fun:_ZN4adns2db8row_zone17get_by_horizon_idERNS0_10connectionEj
   fun:_ZN4adns14dns_zone_cache9read_dataERKNS_11dns_horizonE
   fun:_ZN4adns14dns_zone_cacheC1ERKNS_11dns_horizonE
   fun:_ZN9__gnu_cxx13new_allocatorIN4adns14dns_zone_cacheEE9constructIS2_JRNS1_11dns_horizonEEEEvPT_DpOT0_
   fun:_ZNSt16allocator_traitsISaIN4adns14dns_zone_cacheEEE9constructIS1_JRNS0_11dns_horizonEEEEvRS2_PT_DpOT0_
   fun:_ZNSt23_Sp_counted_ptr_inplaceIN4adns14dns_zone_cacheESaIS1_ELN9__gnu_cxx12_Lock_policyE2EEC1IJRNS0_11dns_horizonEEEES2_DpOT_
   fun:_ZNSt14__shared_countILN9__gnu_cxx12_Lock_policyE2EEC1IN4adns14dns_zone_cacheESaIS5_EJRNS4_11dns_horizonEEEERPT_St20_Sp_alloc_shared_tagIT0_EDpOT1_
   fun:_ZNSt12__shared_ptrIN4adns14dns_zone_cacheELN9__gnu_cxx12_Lock_policyE2EEC1ISaIS1_EJRNS0_11dns_horizonEEEESt20_Sp_alloc_shared_tagIT_EDpOT0_
   fun:_ZNSt10shared_ptrIN4adns14dns_zone_cacheEEC1ISaIS1_EJRNS0_11dns_horizonEEEESt20_Sp_alloc_shared_tagIT_EDpOT0_
   fun:_ZSt15allocate_sharedIN4adns14dns_zone_cacheESaIS1_EJRNS0_11dns_horizonEEESt10shared_ptrIT_ERKT0_DpOT1_
}
{
   <insert_a_suppression_name_here>
   Memcheck:Free
   fun:free
   fun:_ZN4adns2db8row_zone11init_staticEv
   fun:_ZN4adns2db8row_zone17get_by_horizon_idERNS0_10connectionEj
   fun:_ZN4adns14dns_zone_cache9read_dataERKNS_11dns_horizonE
   fun:_ZN4adns14dns_zone_cacheC1ERKNS_11dns_horizonE
   fun:_ZN9__gnu_cxx13new_allocatorIN4adns14dns_zone_cacheEE9constructIS2_JRNS1_11dns_horizonEEEEvPT_DpOT0_
   fun:_ZNSt16allocator_traitsISaIN4adns14dns_zone_cacheEEE9constructIS1_JRNS0_11dns_horizonEEEEvRS2_PT_DpOT0_
   fun:_ZNSt23_Sp_counted_ptr_inplaceIN4adns14dns_zone_cacheESaIS1_ELN9__gnu_cxx12_Lock_policyE2EEC1IJRNS0_11dns_horizonEEEES2_DpOT_
   fun:_ZNSt14__shared_countILN9__gnu_cxx12_Lock_policyE2EEC1IN4adns14dns_zone_cacheESaIS5_EJRNS4_11dns_horizonEEEERPT_St20_Sp_alloc_shared_tagIT0_EDpOT1_
   fun:_ZNSt12__shared_ptrIN4adns14dns_zone_cacheELN9__gnu_cxx12_Lock_policyE2EEC1ISaIS1_EJRNS0_11dns_horizonEEEESt20_Sp_alloc_shared_tagIT_EDpOT0_
   fun:_ZNSt10shared_ptrIN4adns14dns_zone_cacheEEC1ISaIS1_EJRNS0_11dns_horizonEEEESt20_Sp_alloc_shared_tagIT_EDpOT0_
   fun:_ZSt15allocate_sharedIN4adns14dns_zone_cacheESaIS1_EJRNS0_11dns_horizonEEESt10shared_ptrIT_ERKT0_DpOT1_
}
{
   <insert_a_suppression_name_here>
   Memcheck:Free
   fun:free
   fun:_ZN4adns2db8row_zone11init_staticEv
   fun:_ZN4adns2db8row_zone17get_by_horizon_idERNS0_10connectionEj
   fun:_ZN4adns14dns_zone_cache9read_dataERKNS_11dns_horizonE
   fun:_ZN4adns14dns_zone_cacheC1ERKNS_11dns_horizonE
   fun:_ZN9__gnu_cxx13new_allocatorIN4adns14dns_zone_cacheEE9constructIS2_JRNS1_11dns_horizonEEEEvPT_DpOT0_
   fun:_ZNSt16allocator_traitsISaIN4adns14dns_zone_cacheEEE9constructIS1_JRNS0_11dns_horizonEEEEvRS2_PT_DpOT0_
   fun:_ZNSt23_Sp_counted_ptr_inplaceIN4adns14dns_zone_cacheESaIS1_ELN9__gnu_cxx12_Lock_policyE2EEC1IJRNS0_11dns_horizonEEEES2_DpOT_
   fun:_ZNSt14__shared_countILN9__gnu_cxx12_Lock_policyE2EEC1IN4adns14dns_zone_cacheESaIS5_EJRNS4_11dns_horizonEEEERPT_St20_Sp_alloc_shared_tagIT0_EDpOT1_
   fun:_ZNSt12__shared_ptrIN4adns14dns_zone_cacheELN9__gnu_cxx12_Lock_policyE2EEC1ISaIS1_EJRNS0_11dns_horizonEEEESt20_Sp_alloc_shared_tagIT_EDpOT0_
   fun:_ZNSt10shared_ptrIN4adns14dns_zone_cacheEEC1ISaIS1_EJRNS0_11dns_horizonEEEESt20_Sp_alloc_shared_tagIT_EDpOT0_
   fun:_ZSt15allocate_sharedIN4adns14dns_zone_cacheESaIS1_EJRNS0_11dns_horizonEEESt10shared_ptrIT_ERKT0_DpOT1_
}
{
   <insert_a_suppression_name_here>
   Memcheck:Free
   fun:free
   fun:_ZN9__gnu_cxx13new_allocatorIN4adns13message_queueIPNS1_20dns_message_envelopeEEEE9constructIS5_JRA22_KcRjEEEvPT_DpOT0_
   fun:_ZNSt16allocator_traitsISaIN4adns13message_queueIPNS0_20dns_message_envelopeEEEEE9constructIS4_JRA22_KcRjEEEvRS5_PT_DpOT0_
   fun:_ZNSt23_Sp_counted_ptr_inplaceIN4adns13message_queueIPNS0_20dns_message_envelopeEEESaIS4_ELN9__gnu_cxx12_Lock_policyE2EEC1IJRA22_KcRjEEES5_DpOT_
   fun:_ZNSt14__shared_countILN9__gnu_cxx12_Lock_policyE2EEC1IN4adns13message_queueIPNS4_20dns_message_envelopeEEESaIS8_EJRA22_KcRjEEERPT_St20_Sp_alloc_shared_tagIT0_EDpOT1_
   fun:_ZNSt12__shared_ptrIN4adns13message_queueIPNS0_20dns_message_envelopeEEELN9__gnu_cxx12_Lock_policyE2EEC1ISaIS4_EJRA22_KcRjEEESt20_Sp_alloc_shared_tagIT_EDpOT0_
   fun:_ZNSt10shared_ptrIN4adns13message_queueIPNS0_20dns_message_envelopeEEEEC1ISaIS4_EJRA22_KcRjEEESt20_Sp_alloc_shared_tagIT_EDpOT0_
   fun:_ZSt15allocate_sharedIN4adns13message_queueIPNS0_20dns_message_envelopeEEESaIS4_EJRA22_KcRjEESt10shared_ptrIT_ERKT0_DpOT1_
   fun:_ZSt11make_sharedIN4adns13message_queueIPNS0_20dns_message_envelopeEEEJRA22_KcRjEESt10shared_ptrIT_EDpOT0_
   fun:_ZN4adns11dns_handlerC1ERKNS0_8params_tERNS_13message_queueIPNS_20dns_message_envelopeEEE
   fun:_ZN4adns12handler_poolIPNS_20dns_message_envelopeENS_11dns_handlerENS3_8params_tEEC1ENSt7__cxx1112basic_stringIcSt11char_traitsIcESaIcEEERKS4_iii
   fun:_ZN4adns18dns_tcp_connectionC1ERNS_13server_configESt10shared_ptrINS_17dns_auth_resolverEES3_INS_22dns_recursive_resolverEES3_INS_23dns_forwarding_resolverEERNS_11thread_poolIS0_EE
}
{
   <insert_a_suppression_name_here>
   Memcheck:Free
   fun:free
   fun:_ZN9__gnu_cxx13new_allocatorIN4adns13message_queueIPNS1_20dns_message_envelopeEEEE9constructIS5_JRA24_KcRjEEEvPT_DpOT0_
   fun:_ZNSt16allocator_traitsISaIN4adns13message_queueIPNS0_20dns_message_envelopeEEEEE9constructIS4_JRA24_KcRjEEEvRS5_PT_DpOT0_
   fun:_ZNSt23_Sp_counted_ptr_inplaceIN4adns13message_queueIPNS0_20dns_message_envelopeEEESaIS4_ELN9__gnu_cxx12_Lock_policyE2EEC1IJRA24_KcRjEEES5_DpOT_
   fun:_ZNSt14__shared_countILN9__gnu_cxx12_Lock_policyE2EEC1IN4adns13message_queueIPNS4_20dns_message_envelopeEEESaIS8_EJRA24_KcRjEEERPT_St20_Sp_alloc_shared_tagIT0_EDpOT1_
   fun:_ZNSt12__shared_ptrIN4adns13message_queueIPNS0_20dns_message_envelopeEEELN9__gnu_cxx12_Lock_policyE2EEC1ISaIS4_EJRA24_KcRjEEESt20_Sp_alloc_shared_tagIT_EDpOT0_
   fun:_ZNSt10shared_ptrIN4adns13message_queueIPNS0_20dns_message_envelopeEEEEC1ISaIS4_EJRA24_KcRjEEESt20_Sp_alloc_shared_tagIT_EDpOT0_
   fun:_ZSt15allocate_sharedIN4adns13message_queueIPNS0_20dns_message_envelopeEEESaIS4_EJRA24_KcRjEESt10shared_ptrIT_ERKT0_DpOT1_
   fun:_ZSt11make_sharedIN4adns13message_queueIPNS0_20dns_message_envelopeEEEJRA24_KcRjEESt10shared_ptrIT_EDpOT0_
   fun:_ZN4adns11dns_handlerC1ERKNS0_8params_tERNS_13message_queueIPNS_20dns_message_envelopeEEE
   fun:_ZN4adns12handler_poolIPNS_20dns_message_envelopeENS_11dns_handlerENS3_8params_tEEC1ENSt7__cxx1112basic_stringIcSt11char_traitsIcESaIcEEERKS4_iii
   fun:_ZN4adns18dns_tcp_connectionC1ERNS_13server_configESt10shared_ptrINS_17dns_auth_resolverEES3_INS_22dns_recursive_resolverEES3_INS_23dns_forwarding_resolverEERNS_11thread_poolIS0_EE
}
{
   <insert_a_suppression_name_here>
   Memcheck:Free
   fun:free
   fun:_ZN4adns18dns_tcp_connectionC1ERNS_13server_configESt10shared_ptrINS_17dns_auth_resolverEES3_INS_22dns_recursive_resolverEES3_INS_23dns_forwarding_resolverEERNS_11thread_poolIS0_EE
   fun:_ZN4adns14dns_tcp_serverC1ERN5boost4asio10io_contextERKNS_13server_configE
   fun:_Z11run_serversv
   fun:main
}
{
   <insert_a_suppression_name_here>
   Memcheck:Free
   fun:free
   fun:_ZN9__gnu_cxx13new_allocatorISt10shared_ptrIN4adns13message_queueIPNS2_20dns_message_envelopeEEEEE10deallocateEPS7_m
   fun:_ZNSt16allocator_traitsISaISt10shared_ptrIN4adns13message_queueIPNS1_20dns_message_envelopeEEEEEE10deallocateERS7_PS6_m
   fun:_ZNSt12_Vector_baseISt10shared_ptrIN4adns13message_queueIPNS1_20dns_message_envelopeEEEESaIS6_EE13_M_deallocateEPS6_m
   fun:_ZNSt6vectorISt10shared_ptrIN4adns13message_queueIPNS1_20dns_message_envelopeEEEESaIS6_EE17_M_realloc_insertIJRKS6_EEEvN9__gnu_cxx17__normal_iteratorIPS6_S8_EEDpOT_
   fun:_ZNSt6vectorISt10shared_ptrIN4adns13message_queueIPNS1_20dns_message_envelopeEEEESaIS6_EE9push_backERKS6_
   fun:_ZN4adns17queue_multiplexerIPNS_20dns_message_envelopeEE11add_channelESt10shared_ptrINS_13message_queueIS2_EEES7_
   fun:_ZN4adns22dns_recursive_resolver11add_channelESt10shared_ptrINS_13message_queueIPNS_20dns_message_envelopeEEEES6_
   fun:_ZN4adns11dns_handlerC1ERKNS0_8params_tERNS_13message_queueIPNS_20dns_message_envelopeEEE
   fun:_ZN4adns12handler_poolIPNS_20dns_message_envelopeENS_11dns_handlerENS3_8params_tEEC1ENSt7__cxx1112basic_stringIcSt11char_traitsIcESaIcEEERKS4_iii
   fun:_ZN4adns18dns_tcp_connectionC1ERNS_13server_configESt10shared_ptrINS_17dns_auth_resolverEES3_INS_22dns_recursive_resolverEES3_INS_23dns_forwarding_resolverEERNS_11thread_poolIS0_EE
   fun:_ZN4adns14dns_tcp_serverC1ERN5boost4asio10io_contextERKNS_13server_configE
}
{
   <insert_a_suppression_name_here>
   Memcheck:Free
   fun:free
   fun:_ZN9__gnu_cxx13new_allocatorISt10shared_ptrISt6threadEE10deallocateEPS3_m
   fun:_ZNSt16allocator_traitsISaISt10shared_ptrISt6threadEEE10deallocateERS3_PS2_m
   fun:_ZNSt12_Vector_baseISt10shared_ptrISt6threadESaIS2_EE13_M_deallocateEPS2_m
   fun:_ZNSt6vectorISt10shared_ptrISt6threadESaIS2_EE17_M_realloc_insertIJS2_EEEvN9__gnu_cxx17__normal_iteratorIPS2_S4_EEDpOT_
   fun:_ZNSt6vectorISt10shared_ptrISt6threadESaIS2_EE12emplace_backIJS2_EEERS2_DpOT_
   fun:_ZNSt6vectorISt10shared_ptrISt6threadESaIS2_EE9push_backEOS2_
   fun:_ZN4adns17queue_multiplexerIPNS_20dns_message_envelopeEE11add_channelESt10shared_ptrINS_13message_queueIS2_EEES7_
   fun:_ZN4adns22dns_recursive_resolver11add_channelESt10shared_ptrINS_13message_queueIPNS_20dns_message_envelopeEEEES6_
   fun:_ZN4adns11dns_handlerC1ERKNS0_8params_tERNS_13message_queueIPNS_20dns_message_envelopeEEE
   fun:_ZN4adns12handler_poolIPNS_20dns_message_envelopeENS_11dns_handlerENS3_8params_tEEC1ENSt7__cxx1112basic_stringIcSt11char_traitsIcESaIcEEERKS4_iii
   fun:_ZN4adns18dns_tcp_connectionC1ERNS_13server_configESt10shared_ptrINS_17dns_auth_resolverEES3_INS_22dns_recursive_resolverEES3_INS_23dns_forwarding_resolverEERNS_11thread_poolIS0_EE
}
{
   <insert_a_suppression_name_here>
   Memcheck:Free
   fun:free
   fun:_ZN5boost13property_tree11string_pathINSt7__cxx1112basic_stringIcSt11char_traitsIcESaIcEEENS0_13id_translatorIS7_EEE6reduceEv
   fun:_ZNK5boost13property_tree11basic_ptreeINSt7__cxx1112basic_stringIcSt11char_traitsIcESaIcEEES7_St4lessIS7_EE9walk_pathERNS0_11string_pathIS7_NS0_13id_translatorIS7_EEEE
   fun:_ZNK5boost13property_tree11basic_ptreeINSt7__cxx1112basic_stringIcSt11char_traitsIcESaIcEEES7_St4lessIS7_EE9walk_pathERNS0_11string_pathIS7_NS0_13id_translatorIS7_EEEE
   fun:_ZNK5boost13property_tree11basic_ptreeINSt7__cxx1112basic_stringIcSt11char_traitsIcESaIcEEES7_St4lessIS7_EE18get_child_optionalERKNS0_11string_pathIS7_NS0_13id_translatorIS7_EEEE
   fun:_ZNK5boost13property_tree11basic_ptreeINSt7__cxx1112basic_stringIcSt11char_traitsIcESaIcEEES7_St4lessIS7_EE12get_optionalIS7_EENS_8optionalIT_EERKNS0_11string_pathIS7_NS0_13id_translatorIS7_EEEE
   fun:_ZNK5boost13property_tree11basic_ptreeINSt7__cxx1112basic_stringIcSt11char_traitsIcESaIcEEES7_St4lessIS7_EE3getIS7_EENS_10disable_ifINS0_6detail13is_translatorIT_EESF_E4typeERKNS0_11string_pathIS7_NS0_13id_translatorIS7_EEEERKSF_
   fun:_ZN4adns6config15get_tree_stringERKNSt7__cxx1112basic_stringIcSt11char_traitsIcESaIcEEES8_
   fun:_ZN4adns6config17ssl_root_pem_fileB5cxx11Ev
   fun:_ZN4adns17ssl_server_socket4initEv
   fun:_ZN4adns17ssl_server_socketC1Ev
   fun:_ZN4adns14control_server7connectEv
}
{
   <insert_a_suppression_name_here>
   Memcheck:Free
   fun:free
   fun:_ZNK5boost13property_tree11basic_ptreeINSt7__cxx1112basic_stringIcSt11char_traitsIcESaIcEEES7_St4lessIS7_EE9walk_pathERNS0_11string_pathIS7_NS0_13id_translatorIS7_EEEE
   fun:_ZNK5boost13property_tree11basic_ptreeINSt7__cxx1112basic_stringIcSt11char_traitsIcESaIcEEES7_St4lessIS7_EE9walk_pathERNS0_11string_pathIS7_NS0_13id_translatorIS7_EEEE
   fun:_ZNK5boost13property_tree11basic_ptreeINSt7__cxx1112basic_stringIcSt11char_traitsIcESaIcEEES7_St4lessIS7_EE18get_child_optionalERKNS0_11string_pathIS7_NS0_13id_translatorIS7_EEEE
   fun:_ZNK5boost13property_tree11basic_ptreeINSt7__cxx1112basic_stringIcSt11char_traitsIcESaIcEEES7_St4lessIS7_EE12get_optionalIS7_EENS_8optionalIT_EERKNS0_11string_pathIS7_NS0_13id_translatorIS7_EEEE
   fun:_ZNK5boost13property_tree11basic_ptreeINSt7__cxx1112basic_stringIcSt11char_traitsIcESaIcEEES7_St4lessIS7_EE3getIS7_EENS_10disable_ifINS0_6detail13is_translatorIT_EESF_E4typeERKNS0_11string_pathIS7_NS0_13id_translatorIS7_EEEERKSF_
   fun:_ZN4adns6config15get_tree_stringERKNSt7__cxx1112basic_stringIcSt11char_traitsIcESaIcEEES8_
   fun:_ZN4adns6config17ssl_root_pem_fileB5cxx11Ev
   fun:_ZN4adns17ssl_server_socket4initEv
   fun:_ZN4adns17ssl_server_socketC1Ev
   fun:_ZN4adns14control_server7connectEv
   fun:_ZN4adns14control_server14accept_inboundEv
}
{
   <insert_a_suppression_name_here>
   Memcheck:Free
   fun:free
   fun:_ZN4adns6config17ssl_root_pem_fileB5cxx11Ev
   fun:_ZN4adns17ssl_server_socket4initEv
   fun:_ZN4adns17ssl_server_socketC1Ev
   fun:_ZN4adns14control_server7connectEv
   fun:_ZN4adns14control_server14accept_inboundEv
   fun:_ZSt13__invoke_implIvMN4adns14control_serverEFvvEPS1_JEET_St21__invoke_memfun_derefOT0_OT1_DpOT2_
   fun:_ZSt8__invokeIMN4adns14control_serverEFvvEJPS1_EENSt15__invoke_resultIT_JDpT0_EE4typeEOS6_DpOS7_
   fun:_ZNSt6thread8_InvokerISt5tupleIJMN4adns14control_serverEFvvEPS3_EEE9_M_invokeIJLm0ELm1EEEEvSt12_Index_tupleIJXspT_EEE
   fun:_ZNSt6thread8_InvokerISt5tupleIJMN4adns14control_serverEFvvEPS3_EEEclEv
   fun:_ZNSt6thread11_State_implINS_8_InvokerISt5tupleIJMN4adns14control_serverEFvvEPS4_EEEEE6_M_runEv
   obj:/usr/lib/x86_64-linux-gnu/libstdc++.so.6.0.28
}
{
   <insert_a_suppression_name_here>
   Memcheck:Free
   fun:free
   fun:_ZN4adns6config17ssl_root_pem_fileB5cxx11Ev
   fun:_ZN4adns17ssl_server_socket4initEv
   fun:_ZN4adns17ssl_server_socketC1Ev
   fun:_ZN4adns14control_server7connectEv
   fun:_ZN4adns14control_server14accept_inboundEv
   fun:_ZSt13__invoke_implIvMN4adns14control_serverEFvvEPS1_JEET_St21__invoke_memfun_derefOT0_OT1_DpOT2_
   fun:_ZSt8__invokeIMN4adns14control_serverEFvvEJPS1_EENSt15__invoke_resultIT_JDpT0_EE4typeEOS6_DpOS7_
   fun:_ZNSt6thread8_InvokerISt5tupleIJMN4adns14control_serverEFvvEPS3_EEE9_M_invokeIJLm0ELm1EEEEvSt12_Index_tupleIJXspT_EEE
   fun:_ZNSt6thread8_InvokerISt5tupleIJMN4adns14control_serverEFvvEPS3_EEEclEv
   fun:_ZNSt6thread11_State_implINS_8_InvokerISt5tupleIJMN4adns14control_serverEFvvEPS4_EEEEE6_M_runEv
   obj:/usr/lib/x86_64-linux-gnu/libstdc++.so.6.0.28
}
{
   <insert_a_suppression_name_here>
   Memcheck:Free
   fun:free
   fun:_ZN4adns17ssl_server_socket4initEv
   fun:_ZN4adns17ssl_server_socketC1Ev
   fun:_ZN4adns14control_server7connectEv
   fun:_ZN4adns14control_server14accept_inboundEv
   fun:_ZSt13__invoke_implIvMN4adns14control_serverEFvvEPS1_JEET_St21__invoke_memfun_derefOT0_OT1_DpOT2_
   fun:_ZSt8__invokeIMN4adns14control_serverEFvvEJPS1_EENSt15__invoke_resultIT_JDpT0_EE4typeEOS6_DpOS7_
   fun:_ZNSt6thread8_InvokerISt5tupleIJMN4adns14control_serverEFvvEPS3_EEE9_M_invokeIJLm0ELm1EEEEvSt12_Index_tupleIJXspT_EEE
   fun:_ZNSt6thread8_InvokerISt5tupleIJMN4adns14control_serverEFvvEPS3_EEEclEv
   fun:_ZNSt6thread11_State_implINS_8_InvokerISt5tupleIJMN4adns14control_serverEFvvEPS4_EEEEE6_M_runEv
   obj:/usr/lib/x86_64-linux-gnu/libstdc++.so.6.0.28
   fun:start_thread
}
{
   <insert_a_suppression_name_here>
   Memcheck:Free
   fun:free
   fun:_ZN4adns6config19ssl_server_pem_fileB5cxx11Ev
   fun:_ZN4adns17ssl_server_socket4initEv
   fun:_ZN4adns17ssl_server_socketC1Ev
   fun:_ZN4adns14control_server7connectEv
   fun:_ZN4adns14control_server14accept_inboundEv
   fun:_ZSt13__invoke_implIvMN4adns14control_serverEFvvEPS1_JEET_St21__invoke_memfun_derefOT0_OT1_DpOT2_
   fun:_ZSt8__invokeIMN4adns14control_serverEFvvEJPS1_EENSt15__invoke_resultIT_JDpT0_EE4typeEOS6_DpOS7_
   fun:_ZNSt6thread8_InvokerISt5tupleIJMN4adns14control_serverEFvvEPS3_EEE9_M_invokeIJLm0ELm1EEEEvSt12_Index_tupleIJXspT_EEE
   fun:_ZNSt6thread8_InvokerISt5tupleIJMN4adns14control_serverEFvvEPS3_EEEclEv
   fun:_ZNSt6thread11_State_implINS_8_InvokerISt5tupleIJMN4adns14control_serverEFvvEPS4_EEEEE6_M_runEv
   obj:/usr/lib/x86_64-linux-gnu/libstdc++.so.6.0.28
}
{
   <insert_a_suppression_name_here>
   Memcheck:Free
   fun:free
   fun:_ZN4adns6config19ssl_server_pem_fileB5cxx11Ev
   fun:_ZN4adns17ssl_server_socket4initEv
   fun:_ZN4adns17ssl_server_socketC1Ev
   fun:_ZN4adns14control_server7connectEv
   fun:_ZN4adns14control_server14accept_inboundEv
   fun:_ZSt13__invoke_implIvMN4adns14control_serverEFvvEPS1_JEET_St21__invoke_memfun_derefOT0_OT1_DpOT2_
   fun:_ZSt8__invokeIMN4adns14control_serverEFvvEJPS1_EENSt15__invoke_resultIT_JDpT0_EE4typeEOS6_DpOS7_
   fun:_ZNSt6thread8_InvokerISt5tupleIJMN4adns14control_serverEFvvEPS3_EEE9_M_invokeIJLm0ELm1EEEEvSt12_Index_tupleIJXspT_EEE
   fun:_ZNSt6thread8_InvokerISt5tupleIJMN4adns14control_serverEFvvEPS3_EEEclEv
   fun:_ZNSt6thread11_State_implINS_8_InvokerISt5tupleIJMN4adns14control_serverEFvvEPS4_EEEEE6_M_runEv
   obj:/usr/lib/x86_64-linux-gnu/libstdc++.so.6.0.28
}
{
   <insert_a_suppression_name_here>
   Memcheck:Free
   fun:free
   fun:_ZN4adns17ssl_server_socket4initEv
   fun:_ZN4adns17ssl_server_socketC1Ev
   fun:_ZN4adns14control_server7connectEv
   fun:_ZN4adns14control_server14accept_inboundEv
   fun:_ZSt13__invoke_implIvMN4adns14control_serverEFvvEPS1_JEET_St21__invoke_memfun_derefOT0_OT1_DpOT2_
   fun:_ZSt8__invokeIMN4adns14control_serverEFvvEJPS1_EENSt15__invoke_resultIT_JDpT0_EE4typeEOS6_DpOS7_
   fun:_ZNSt6thread8_InvokerISt5tupleIJMN4adns14control_serverEFvvEPS3_EEE9_M_invokeIJLm0ELm1EEEEvSt12_Index_tupleIJXspT_EEE
   fun:_ZNSt6thread8_InvokerISt5tupleIJMN4adns14control_serverEFvvEPS3_EEEclEv
   fun:_ZNSt6thread11_State_implINS_8_InvokerISt5tupleIJMN4adns14control_serverEFvvEPS4_EEEEE6_M_runEv
   obj:/usr/lib/x86_64-linux-gnu/libstdc++.so.6.0.28
   fun:start_thread
}
{
   <insert_a_suppression_name_here>
   Memcheck:Free
   fun:free
   fun:_ZN4adns6config16ssl_key_passwordB5cxx11Ev
   fun:_ZN4adns10ssl_socket11password_cbEPciiPv
   fun:PEM_do_header
   obj:/usr/lib/x86_64-linux-gnu/libcrypto.so.1.1
   fun:PEM_bytes_read_bio_secmem
   fun:PEM_read_bio_PrivateKey
   fun:SSL_CTX_use_PrivateKey_file
   fun:_ZN4adns17ssl_server_socket4initEv
   fun:_ZN4adns17ssl_server_socketC1Ev
   fun:_ZN4adns14control_server7connectEv
   fun:_ZN4adns14control_server14accept_inboundEv
}
{
   <insert_a_suppression_name_here>
   Memcheck:Free
   fun:free
   fun:_ZN4adns6config16ssl_key_passwordB5cxx11Ev
   fun:_ZN4adns10ssl_socket11password_cbEPciiPv
   fun:PEM_do_header
   obj:/usr/lib/x86_64-linux-gnu/libcrypto.so.1.1
   fun:PEM_bytes_read_bio_secmem
   fun:PEM_read_bio_PrivateKey
   fun:SSL_CTX_use_PrivateKey_file
   fun:_ZN4adns17ssl_server_socket4initEv
   fun:_ZN4adns17ssl_server_socketC1Ev
   fun:_ZN4adns14control_server7connectEv
   fun:_ZN4adns14control_server14accept_inboundEv
}
{
   <insert_a_suppression_name_here>
   Memcheck:Free
   fun:free
   fun:_ZN4adns17ssl_server_socket4initEv
   fun:_ZN4adns17ssl_server_socketC1Ev
   fun:_ZN4adns14control_server7connectEv
   fun:_ZN4adns14control_server14accept_inboundEv
   fun:_ZSt13__invoke_implIvMN4adns14control_serverEFvvEPS1_JEET_St21__invoke_memfun_derefOT0_OT1_DpOT2_
   fun:_ZSt8__invokeIMN4adns14control_serverEFvvEJPS1_EENSt15__invoke_resultIT_JDpT0_EE4typeEOS6_DpOS7_
   fun:_ZNSt6thread8_InvokerISt5tupleIJMN4adns14control_serverEFvvEPS3_EEE9_M_invokeIJLm0ELm1EEEEvSt12_Index_tupleIJXspT_EEE
   fun:_ZNSt6thread8_InvokerISt5tupleIJMN4adns14control_serverEFvvEPS3_EEEclEv
   fun:_ZNSt6thread11_State_implINS_8_InvokerISt5tupleIJMN4adns14control_serverEFvvEPS4_EEEEE6_M_runEv
   obj:/usr/lib/x86_64-linux-gnu/libstdc++.so.6.0.28
   fun:start_thread
}
{
   <insert_a_suppression_name_here>
   Memcheck:Free
   fun:free
   fun:_ZN4adns6config15ssl_cypher_listB5cxx11Ev
   fun:_ZN4adns17ssl_server_socket4initEv
   fun:_ZN4adns17ssl_server_socketC1Ev
   fun:_ZN4adns14control_server7connectEv
   fun:_ZN4adns14control_server14accept_inboundEv
   fun:_ZSt13__invoke_implIvMN4adns14control_serverEFvvEPS1_JEET_St21__invoke_memfun_derefOT0_OT1_DpOT2_
   fun:_ZSt8__invokeIMN4adns14control_serverEFvvEJPS1_EENSt15__invoke_resultIT_JDpT0_EE4typeEOS6_DpOS7_
   fun:_ZNSt6thread8_InvokerISt5tupleIJMN4adns14control_serverEFvvEPS3_EEE9_M_invokeIJLm0ELm1EEEEvSt12_Index_tupleIJXspT_EEE
   fun:_ZNSt6thread8_InvokerISt5tupleIJMN4adns14control_serverEFvvEPS3_EEEclEv
   fun:_ZNSt6thread11_State_implINS_8_InvokerISt5tupleIJMN4adns14control_serverEFvvEPS4_EEEEE6_M_runEv
   obj:/usr/lib/x86_64-linux-gnu/libstdc++.so.6.0.28
}
{
   <insert_a_suppression_name_here>
   Memcheck:Free
   fun:free
   fun:_ZN4adns6config15ssl_cypher_listB5cxx11Ev
   fun:_ZN4adns17ssl_server_socket4initEv
   fun:_ZN4adns17ssl_server_socketC1Ev
   fun:_ZN4adns14control_server7connectEv
   fun:_ZN4adns14control_server14accept_inboundEv
   fun:_ZSt13__invoke_implIvMN4adns14control_serverEFvvEPS1_JEET_St21__invoke_memfun_derefOT0_OT1_DpOT2_
   fun:_ZSt8__invokeIMN4adns14control_serverEFvvEJPS1_EENSt15__invoke_resultIT_JDpT0_EE4typeEOS6_DpOS7_
   fun:_ZNSt6thread8_InvokerISt5tupleIJMN4adns14control_serverEFvvEPS3_EEE9_M_invokeIJLm0ELm1EEEEvSt12_Index_tupleIJXspT_EEE
   fun:_ZNSt6thread8_InvokerISt5tupleIJMN4adns14control_serverEFvvEPS3_EEEclEv
   fun:_ZNSt6thread11_State_implINS_8_InvokerISt5tupleIJMN4adns14control_serverEFvvEPS4_EEEEE6_M_runEv
   obj:/usr/lib/x86_64-linux-gnu/libstdc++.so.6.0.28
}
{
   <insert_a_suppression_name_here>
   Memcheck:Free
   fun:free
   fun:_ZN4adns17ssl_server_socket4initEv
   fun:_ZN4adns17ssl_server_socketC1Ev
   fun:_ZN4adns14control_server7connectEv
   fun:_ZN4adns14control_server14accept_inboundEv
   fun:_ZSt13__invoke_implIvMN4adns14control_serverEFvvEPS1_JEET_St21__invoke_memfun_derefOT0_OT1_DpOT2_
   fun:_ZSt8__invokeIMN4adns14control_serverEFvvEJPS1_EENSt15__invoke_resultIT_JDpT0_EE4typeEOS6_DpOS7_
   fun:_ZNSt6thread8_InvokerISt5tupleIJMN4adns14control_serverEFvvEPS3_EEE9_M_invokeIJLm0ELm1EEEEvSt12_Index_tupleIJXspT_EEE
   fun:_ZNSt6thread8_InvokerISt5tupleIJMN4adns14control_serverEFvvEPS3_EEEclEv
   fun:_ZNSt6thread11_State_implINS_8_InvokerISt5tupleIJMN4adns14control_serverEFvvEPS4_EEEEE6_M_runEv
   obj:/usr/lib/x86_64-linux-gnu/libstdc++.so.6.0.28
   fun:start_thread
}
{
   <insert_a_suppression_name_here>
   Memcheck:Free
   fun:free
   fun:_ZN4adns10socket_set8wait_oneEj
   fun:_ZN4adns14dns_tcp_server14accept_inboundEv
   fun:_ZSt13__invoke_implIvMN4adns14dns_tcp_serverEFvvEPS1_JEET_St21__invoke_memfun_derefOT0_OT1_DpOT2_
   fun:_ZSt8__invokeIMN4adns14dns_tcp_serverEFvvEJPS1_EENSt15__invoke_resultIT_JDpT0_EE4typeEOS6_DpOS7_
   fun:_ZNSt6thread8_InvokerISt5tupleIJMN4adns14dns_tcp_serverEFvvEPS3_EEE9_M_invokeIJLm0ELm1EEEEvSt12_Index_tupleIJXspT_EEE
   fun:_ZNSt6thread8_InvokerISt5tupleIJMN4adns14dns_tcp_serverEFvvEPS3_EEEclEv
   fun:_ZNSt6thread11_State_implINS_8_InvokerISt5tupleIJMN4adns14dns_tcp_serverEFvvEPS4_EEEEE6_M_runEv
   obj:/usr/lib/x86_64-linux-gnu/libstdc++.so.6.0.28
   fun:start_thread
   fun:clone
}
{
   <insert_a_suppression_name_here>
   Memcheck:Free
   fun:free
   fun:_ZN5boost4asio6detail16thread_info_baseD1Ev
   fun:_ZN5boost4asio6detail21scheduler_thread_infoD1Ev
   fun:_ZN5boost4asio6detail9scheduler8poll_oneERNS_6system10error_codeE
   fun:_ZN5boost4asio10io_context8poll_oneEv
   fun:_ZN4adns16server_container3runEv
   fun:_Z11run_serversv
   fun:main
}
{
   <insert_a_suppression_name_here>
   Memcheck:Free
   fun:free
   fun:_ZNSt6thread11_State_implINS_8_InvokerISt5tupleIJMN4adns12handler_poolIPNS3_20dns_message_envelopeENS3_18dns_recursive_slotENS7_8params_tEEEFvPS7_EPS9_SA_EEEEED0Ev
   obj:/usr/lib/x86_64-linux-gnu/libstdc++.so.6.0.28
   fun:start_thread
   fun:clone
}
{
   <insert_a_suppression_name_here>
   Memcheck:Free
   fun:free
   fun:_ZNSt6thread11_State_implINS_8_InvokerISt5tupleIJMN4adns12handler_poolIPNS3_20dns_message_envelopeENS3_19dns_forwarding_slotENS7_8params_tEEEFvPS7_EPS9_SA_EEEEED0Ev
   obj:/usr/lib/x86_64-linux-gnu/libstdc++.so.6.0.28
   fun:start_thread
   fun:clone
}
{
   <insert_a_suppression_name_here>
   Memcheck:Free
   fun:free
   fun:_ZNSt6thread11_State_implINS_8_InvokerISt5tupleIJMN4adns12handler_poolIPNS3_20dns_message_envelopeENS3_11dns_handlerENS7_8params_tEEEFvPS7_EPS9_SA_EEEEED0Ev
   obj:/usr/lib/x86_64-linux-gnu/libstdc++.so.6.0.28
   fun:start_thread
   fun:clone
}
{
   <insert_a_suppression_name_here>
   Memcheck:Free
   fun:free
   fun:_ZNSt6thread11_State_implINS_8_InvokerISt5tupleIJMN4adns11dns_handlerEFvvEPS4_EEEEED0Ev
   obj:/usr/lib/x86_64-linux-gnu/libstdc++.so.6.0.28
   fun:start_thread
   fun:clone
}
{
   <insert_a_suppression_name_here>
   Memcheck:Free
   fun:free
   fun:_ZNSt6thread11_State_implINS_8_InvokerISt5tupleIJMN4adns14control_serverEFvvEPS4_EEEEED0Ev
   obj:/usr/lib/x86_64-linux-gnu/libstdc++.so.6.0.28
   fun:start_thread
   fun:clone
}
{
   <insert_a_suppression_name_here>
   Memcheck:Free
   fun:free
   fun:_ZNSt6thread11_State_implINS_8_InvokerISt5tupleIJMN4adns19dns_recursive_cacheEFvvEPS4_EEEEED0Ev
   obj:/usr/lib/x86_64-linux-gnu/libstdc++.so.6.0.28
   fun:start_thread
   fun:clone
}
{
   <insert_a_suppression_name_here>
   Memcheck:Free
   fun:free
   fun:_ZNSt6thread11_State_implINS_8_InvokerISt5tupleIJMN4adns17queue_multiplexerIPNS3_20dns_message_envelopeEEEFvvEPS7_EEEEED0Ev
   obj:/usr/lib/x86_64-linux-gnu/libstdc++.so.6.0.28
   fun:start_thread
   fun:clone
}
{
   <insert_a_suppression_name_here>
   Memcheck:Free
   fun:free
   fun:_ZNSt6thread11_State_implINS_8_InvokerISt5tupleIJMN4adns17queue_multiplexerIPNS3_20dns_message_envelopeEEEFvSt10shared_ptrINS3_13message_queueIS6_EEEiEPS7_SB_iEEEEED0Ev
   obj:/usr/lib/x86_64-linux-gnu/libstdc++.so.6.0.28
   fun:start_thread
   fun:clone
}
{
   <insert_a_suppression_name_here>
   Memcheck:Free
   fun:free
   fun:_ZNSt6thread11_State_implINS_8_InvokerISt5tupleIJMN4adns18dns_tcp_connectionEFvvEPS4_EEEEED0Ev
   obj:/usr/lib/x86_64-linux-gnu/libstdc++.so.6.0.28
   fun:start_thread
   fun:clone
}
{
   <insert_a_suppression_name_here>
   Memcheck:Free
   fun:free
   fun:_ZNSt6thread11_State_implINS_8_InvokerISt5tupleIJMN4adns18control_connectionEFvvEPS4_EEEEED0Ev
   obj:/usr/lib/x86_64-linux-gnu/libstdc++.so.6.0.28
   fun:start_thread
   fun:clone
}
{
   <insert_a_suppression_name_here>
   Memcheck:Free
   fun:free
   fun:_ZNSt6thread11_State_implINS_8_InvokerISt5tupleIJMN4adns14dns_udp_serverEFvvEPS4_EEEEED0Ev
   obj:/usr/lib/x86_64-linux-gnu/libstdc++.so.6.0.28
   fun:start_thread
   fun:clone
}
{
   <insert_a_suppression_name_here>
   Memcheck:Free
   fun:free
   obj:/usr/lib/x86_64-linux-gnu/libboost_thread.so.1.71.0
   fun:__nptl_deallocate_tsd.part.0
   fun:__nptl_deallocate_tsd
   fun:start_thread
   fun:clone
}
{
   <insert_a_suppression_name_here>
   Memcheck:Free
   fun:free
   obj:/usr/lib/x86_64-linux-gnu/libboost_thread.so.1.71.0
   fun:__nptl_deallocate_tsd.part.0
   fun:__nptl_deallocate_tsd
   fun:start_thread
   fun:clone
}
{
   <insert_a_suppression_name_here>
   Memcheck:Free
   fun:free
   obj:/usr/lib/x86_64-linux-gnu/libboost_thread.so.1.71.0
   fun:__nptl_deallocate_tsd.part.0
   fun:__nptl_deallocate_tsd
   fun:start_thread
   fun:clone
}
{
   <insert_a_suppression_name_here>
   Memcheck:Free
   fun:free
   obj:/usr/lib/x86_64-linux-gnu/libboost_log.so.1.71.0
   obj:/usr/lib/x86_64-linux-gnu/libboost_thread.so.1.71.0
   fun:__nptl_deallocate_tsd.part.0
   fun:__nptl_deallocate_tsd
   fun:start_thread
   fun:clone
}
{
   <insert_a_suppression_name_here>
   Memcheck:Free
   fun:free
   obj:/usr/lib/x86_64-linux-gnu/libboost_thread.so.1.71.0
   fun:__nptl_deallocate_tsd.part.0
   fun:__nptl_deallocate_tsd
   fun:start_thread
   fun:clone
}
{
   <insert_a_suppression_name_here>
   Memcheck:Free
   fun:free
   obj:/usr/lib/x86_64-linux-gnu/libboost_thread.so.1.71.0
   fun:__nptl_deallocate_tsd.part.0
   fun:__nptl_deallocate_tsd
   fun:start_thread
   fun:clone
}
{
   <insert_a_suppression_name_here>
   Memcheck:Free
   fun:free
   obj:/usr/lib/x86_64-linux-gnu/libboost_log.so.1.71.0
   obj:/usr/lib/x86_64-linux-gnu/libboost_thread.so.1.71.0
   fun:__nptl_deallocate_tsd.part.0
   fun:__nptl_deallocate_tsd
   fun:start_thread
   fun:clone
}
{
   <insert_a_suppression_name_here>
   Memcheck:Free
   fun:free
   obj:/usr/lib/x86_64-linux-gnu/libboost_thread.so.1.71.0
   obj:/usr/lib/x86_64-linux-gnu/libboost_thread.so.1.71.0
   fun:__nptl_deallocate_tsd.part.0
   fun:__nptl_deallocate_tsd
   fun:start_thread
   fun:clone
}
{
   <insert_a_suppression_name_here>
   Memcheck:Free
   fun:free
   obj:/usr/lib/x86_64-linux-gnu/libboost_thread.so.1.71.0
   fun:__nptl_deallocate_tsd.part.0
   fun:__nptl_deallocate_tsd
   fun:start_thread
   fun:clone
}
{
   <insert_a_suppression_name_here>
   Memcheck:Free
   fun:free
   fun:__nptl_deallocate_tsd.part.0
   fun:__nptl_deallocate_tsd
   fun:start_thread
   fun:clone
}
{
   <insert_a_suppression_name_here>
   Memcheck:Free
   fun:free
   fun:_ZNSt6thread11_State_implINS_8_InvokerISt5tupleIJMN4adns14dns_tcp_serverEFvvEPS4_EEEEED0Ev
   obj:/usr/lib/x86_64-linux-gnu/libstdc++.so.6.0.28
   fun:start_thread
   fun:clone
}
{
   <insert_a_suppression_name_here>
   Memcheck:Free
   fun:free
   fun:_ZN9__gnu_cxx13new_allocatorISt23_Sp_counted_ptr_inplaceISt6threadSaIS2_ELNS_12_Lock_policyE2EEE10deallocateEPS5_m
   fun:_ZNSt16allocator_traitsISaISt23_Sp_counted_ptr_inplaceISt6threadSaIS1_ELN9__gnu_cxx12_Lock_policyE2EEEE10deallocateERS6_PS5_m
   fun:_ZNSt15__allocated_ptrISaISt23_Sp_counted_ptr_inplaceISt6threadSaIS1_ELN9__gnu_cxx12_Lock_policyE2EEEED1Ev
   fun:_ZNSt23_Sp_counted_ptr_inplaceISt6threadSaIS0_ELN9__gnu_cxx12_Lock_policyE2EE10_M_destroyEv
   fun:_ZNSt16_Sp_counted_baseILN9__gnu_cxx12_Lock_policyE2EE10_M_releaseEv
   fun:_ZNSt14__shared_countILN9__gnu_cxx12_Lock_policyE2EED1Ev
   fun:_ZNSt12__shared_ptrISt6threadLN9__gnu_cxx12_Lock_policyE2EED1Ev
   fun:_ZNSt10shared_ptrISt6threadED1Ev
   fun:_ZN9__gnu_cxx13new_allocatorISt10_List_nodeISt10shared_ptrISt6threadEEE7destroyIS4_EEvPT_
   fun:_ZNSt16allocator_traitsISaISt10_List_nodeISt10shared_ptrISt6threadEEEE7destroyIS3_EEvRS5_PT_
   fun:_ZNSt7__cxx114listISt10shared_ptrISt6threadESaIS3_EE8_M_eraseESt14_List_iteratorIS3_E
}
{
   <insert_a_suppression_name_here>
   Memcheck:Free
   fun:free
   fun:_ZN9__gnu_cxx13new_allocatorISt10_List_nodeISt10shared_ptrISt6threadEEE10deallocateEPS5_m
   fun:_ZNSt16allocator_traitsISaISt10_List_nodeISt10shared_ptrISt6threadEEEE10deallocateERS5_PS4_m
   fun:_ZNSt7__cxx1110_List_baseISt10shared_ptrISt6threadESaIS3_EE11_M_put_nodeEPSt10_List_nodeIS3_E
   fun:_ZNSt7__cxx114listISt10shared_ptrISt6threadESaIS3_EE8_M_eraseESt14_List_iteratorIS3_E
   fun:_ZNSt7__cxx114listISt10shared_ptrISt6threadESaIS3_EE9pop_frontEv
   fun:_ZN4adns14dns_udp_server4joinEv
   fun:_ZN4adns16server_container4joinEv
   fun:_Z11run_serversv
   fun:main
}
{
   <insert_a_suppression_name_here>
   Memcheck:Free
   fun:free
   fun:_ZNSt15_Sp_counted_ptrIPSt6threadLN9__gnu_cxx12_Lock_policyE2EE10_M_disposeEv
   fun:_ZNSt16_Sp_counted_baseILN9__gnu_cxx12_Lock_policyE2EE10_M_releaseEv
   fun:_ZNSt14__shared_countILN9__gnu_cxx12_Lock_policyE2EED1Ev
   fun:_ZNSt12__shared_ptrISt6threadLN9__gnu_cxx12_Lock_policyE2EED1Ev
   fun:_ZNSt12__shared_ptrISt6threadLN9__gnu_cxx12_Lock_policyE2EEaSEOS3_
   fun:_ZNSt10shared_ptrISt6threadEaSEOS1_
   fun:_ZN4adns19dns_recursive_cache4joinEv
   fun:_ZN4adns14dns_udp_server4joinEv
   fun:_ZN4adns16server_container4joinEv
   fun:_Z11run_serversv
   fun:main
}
{
   <insert_a_suppression_name_here>
   Memcheck:Free
   fun:free
   fun:_ZNSt15_Sp_counted_ptrIPSt6threadLN9__gnu_cxx12_Lock_policyE2EED0Ev
   fun:_ZNSt15_Sp_counted_ptrIPSt6threadLN9__gnu_cxx12_Lock_policyE2EE10_M_destroyEv
   fun:_ZNSt16_Sp_counted_baseILN9__gnu_cxx12_Lock_policyE2EE10_M_releaseEv
   fun:_ZNSt14__shared_countILN9__gnu_cxx12_Lock_policyE2EED1Ev
   fun:_ZNSt12__shared_ptrISt6threadLN9__gnu_cxx12_Lock_policyE2EED1Ev
   fun:_ZNSt12__shared_ptrISt6threadLN9__gnu_cxx12_Lock_policyE2EEaSEOS3_
   fun:_ZNSt10shared_ptrISt6threadEaSEOS1_
   fun:_ZN4adns19dns_recursive_cache4joinEv
   fun:_ZN4adns14dns_udp_server4joinEv
   fun:_ZN4adns16server_container4joinEv
   fun:_Z11run_serversv
}
{
   <insert_a_suppression_name_here>
   Memcheck:Free
   fun:free
   fun:_ZN9__gnu_cxx13new_allocatorISt10_List_nodeIN4adns13server_configEEE10deallocateEPS4_m
   fun:_ZNSt16allocator_traitsISaISt10_List_nodeIN4adns13server_configEEEE10deallocateERS4_PS3_m
   fun:_ZNSt7__cxx1110_List_baseIN4adns13server_configESaIS2_EE11_M_put_nodeEPSt10_List_nodeIS2_E
   fun:_ZNSt7__cxx1110_List_baseIN4adns13server_configESaIS2_EE8_M_clearEv
   fun:_ZNSt7__cxx1110_List_baseIN4adns13server_configESaIS2_EED1Ev
   fun:_ZNSt7__cxx114listIN4adns13server_configESaIS2_EED1Ev
   fun:_Z11run_serversv
   fun:main
}
{
   <insert_a_suppression_name_here>
   Memcheck:Free
   fun:free
   fun:_ZN4adns13message_queueIPNS_20dns_message_envelopeEED1Ev
   fun:_ZN4adns13message_queueIPNS_20dns_message_envelopeEED0Ev
   fun:_ZN4adns12handler_poolIPNS_20dns_message_envelopeENS_11dns_handlerENS3_8params_tEED1Ev
   fun:_ZN4adns12handler_poolIPNS_20dns_message_envelopeENS_11dns_handlerENS3_8params_tEED0Ev
   fun:_ZN4adns14dns_udp_serverD1Ev
   fun:_ZN4adns14dns_udp_serverD0Ev
   fun:_ZNSt15_Sp_counted_ptrIPN4adns6serverELN9__gnu_cxx12_Lock_policyE2EE10_M_disposeEv
   fun:_ZNSt16_Sp_counted_baseILN9__gnu_cxx12_Lock_policyE2EE10_M_releaseEv
   fun:_ZNSt14__shared_countILN9__gnu_cxx12_Lock_policyE2EED1Ev
   fun:_ZNSt12__shared_ptrIN4adns6serverELN9__gnu_cxx12_Lock_policyE2EED1Ev
   fun:_ZNSt10shared_ptrIN4adns6serverEED1Ev
}
{
   <insert_a_suppression_name_here>
   Memcheck:Free
   fun:free
   fun:_ZN4adns13message_queueIPNS_20dns_message_envelopeEED0Ev
   fun:_ZN4adns12handler_poolIPNS_20dns_message_envelopeENS_11dns_handlerENS3_8params_tEED1Ev
   fun:_ZN4adns12handler_poolIPNS_20dns_message_envelopeENS_11dns_handlerENS3_8params_tEED0Ev
   fun:_ZN4adns14dns_udp_serverD1Ev
   fun:_ZN4adns14dns_udp_serverD0Ev
   fun:_ZNSt15_Sp_counted_ptrIPN4adns6serverELN9__gnu_cxx12_Lock_policyE2EE10_M_disposeEv
   fun:_ZNSt16_Sp_counted_baseILN9__gnu_cxx12_Lock_policyE2EE10_M_releaseEv
   fun:_ZNSt14__shared_countILN9__gnu_cxx12_Lock_policyE2EED1Ev
   fun:_ZNSt12__shared_ptrIN4adns6serverELN9__gnu_cxx12_Lock_policyE2EED1Ev
   fun:_ZNSt10shared_ptrIN4adns6serverEED1Ev
   fun:_ZN9__gnu_cxx13new_allocatorISt10_List_nodeISt10shared_ptrIN4adns6serverEEEE7destroyIS5_EEvPT_
}
{
   <insert_a_suppression_name_here>
   Memcheck:Free
   fun:free
   fun:_ZN4adns11dns_handlerD0Ev
   fun:_ZNSt15_Sp_counted_ptrIPN4adns11dns_handlerELN9__gnu_cxx12_Lock_policyE2EE10_M_disposeEv
   fun:_ZNSt16_Sp_counted_baseILN9__gnu_cxx12_Lock_policyE2EE10_M_releaseEv
   fun:_ZNSt14__shared_countILN9__gnu_cxx12_Lock_policyE2EED1Ev
   fun:_ZNSt12__shared_ptrIN4adns11dns_handlerELN9__gnu_cxx12_Lock_policyE2EED1Ev
   fun:_ZNSt10shared_ptrIN4adns11dns_handlerEED1Ev
   fun:_ZN9__gnu_cxx13new_allocatorISt10_List_nodeISt10shared_ptrIN4adns11dns_handlerEEEE7destroyIS5_EEvPT_
   fun:_ZNSt16allocator_traitsISaISt10_List_nodeISt10shared_ptrIN4adns11dns_handlerEEEEE7destroyIS4_EEvRS6_PT_
   fun:_ZNSt7__cxx1110_List_baseISt10shared_ptrIN4adns11dns_handlerEESaIS4_EE8_M_clearEv
   fun:_ZNSt7__cxx1110_List_baseISt10shared_ptrIN4adns11dns_handlerEESaIS4_EED1Ev
   fun:_ZNSt7__cxx114listISt10shared_ptrIN4adns11dns_handlerEESaIS4_EED1Ev
}
{
   <insert_a_suppression_name_here>
   Memcheck:Free
   fun:free
   fun:_ZNSt15_Sp_counted_ptrIPN4adns11dns_handlerELN9__gnu_cxx12_Lock_policyE2EED0Ev
   fun:_ZNSt15_Sp_counted_ptrIPN4adns11dns_handlerELN9__gnu_cxx12_Lock_policyE2EE10_M_destroyEv
   fun:_ZNSt16_Sp_counted_baseILN9__gnu_cxx12_Lock_policyE2EE10_M_releaseEv
   fun:_ZNSt14__shared_countILN9__gnu_cxx12_Lock_policyE2EED1Ev
   fun:_ZNSt12__shared_ptrIN4adns11dns_handlerELN9__gnu_cxx12_Lock_policyE2EED1Ev
   fun:_ZNSt10shared_ptrIN4adns11dns_handlerEED1Ev
   fun:_ZN9__gnu_cxx13new_allocatorISt10_List_nodeISt10shared_ptrIN4adns11dns_handlerEEEE7destroyIS5_EEvPT_
   fun:_ZNSt16allocator_traitsISaISt10_List_nodeISt10shared_ptrIN4adns11dns_handlerEEEEE7destroyIS4_EEvRS6_PT_
   fun:_ZNSt7__cxx1110_List_baseISt10shared_ptrIN4adns11dns_handlerEESaIS4_EE8_M_clearEv
   fun:_ZNSt7__cxx1110_List_baseISt10shared_ptrIN4adns11dns_handlerEESaIS4_EED1Ev
   fun:_ZNSt7__cxx114listISt10shared_ptrIN4adns11dns_handlerEESaIS4_EED1Ev
}
{
   <insert_a_suppression_name_here>
   Memcheck:Free
   fun:free
   fun:_ZN9__gnu_cxx13new_allocatorISt10_List_nodeISt10shared_ptrIN4adns11dns_handlerEEEE10deallocateEPS6_m
   fun:_ZNSt16allocator_traitsISaISt10_List_nodeISt10shared_ptrIN4adns11dns_handlerEEEEE10deallocateERS6_PS5_m
   fun:_ZNSt7__cxx1110_List_baseISt10shared_ptrIN4adns11dns_handlerEESaIS4_EE11_M_put_nodeEPSt10_List_nodeIS4_E
   fun:_ZNSt7__cxx1110_List_baseISt10shared_ptrIN4adns11dns_handlerEESaIS4_EE8_M_clearEv
   fun:_ZNSt7__cxx1110_List_baseISt10shared_ptrIN4adns11dns_handlerEESaIS4_EED1Ev
   fun:_ZNSt7__cxx114listISt10shared_ptrIN4adns11dns_handlerEESaIS4_EED1Ev
   fun:_ZN4adns12handler_poolIPNS_20dns_message_envelopeENS_11dns_handlerENS3_8params_tEED1Ev
   fun:_ZN4adns12handler_poolIPNS_20dns_message_envelopeENS_11dns_handlerENS3_8params_tEED0Ev
   fun:_ZN4adns14dns_udp_serverD1Ev
   fun:_ZN4adns14dns_udp_serverD0Ev
   fun:_ZNSt15_Sp_counted_ptrIPN4adns6serverELN9__gnu_cxx12_Lock_policyE2EE10_M_disposeEv
}
{
   <insert_a_suppression_name_here>
   Memcheck:Free
   fun:free
   fun:_ZN4adns12handler_poolIPNS_20dns_message_envelopeENS_11dns_handlerENS3_8params_tEED1Ev
   fun:_ZN4adns12handler_poolIPNS_20dns_message_envelopeENS_11dns_handlerENS3_8params_tEED0Ev
   fun:_ZN4adns14dns_udp_serverD1Ev
   fun:_ZN4adns14dns_udp_serverD0Ev
   fun:_ZNSt15_Sp_counted_ptrIPN4adns6serverELN9__gnu_cxx12_Lock_policyE2EE10_M_disposeEv
   fun:_ZNSt16_Sp_counted_baseILN9__gnu_cxx12_Lock_policyE2EE10_M_releaseEv
   fun:_ZNSt14__shared_countILN9__gnu_cxx12_Lock_policyE2EED1Ev
   fun:_ZNSt12__shared_ptrIN4adns6serverELN9__gnu_cxx12_Lock_policyE2EED1Ev
   fun:_ZNSt10shared_ptrIN4adns6serverEED1Ev
   fun:_ZN9__gnu_cxx13new_allocatorISt10_List_nodeISt10shared_ptrIN4adns6serverEEEE7destroyIS5_EEvPT_
   fun:_ZNSt16allocator_traitsISaISt10_List_nodeISt10shared_ptrIN4adns6serverEEEEE7destroyIS4_EEvRS6_PT_
}
{
   <insert_a_suppression_name_here>
   Memcheck:Free
   fun:free
   fun:_ZN4adns12handler_poolIPNS_20dns_message_envelopeENS_11dns_handlerENS3_8params_tEED0Ev
   fun:_ZN4adns14dns_udp_serverD1Ev
   fun:_ZN4adns14dns_udp_serverD0Ev
   fun:_ZNSt15_Sp_counted_ptrIPN4adns6serverELN9__gnu_cxx12_Lock_policyE2EE10_M_disposeEv
   fun:_ZNSt16_Sp_counted_baseILN9__gnu_cxx12_Lock_policyE2EE10_M_releaseEv
   fun:_ZNSt14__shared_countILN9__gnu_cxx12_Lock_policyE2EED1Ev
   fun:_ZNSt12__shared_ptrIN4adns6serverELN9__gnu_cxx12_Lock_policyE2EED1Ev
   fun:_ZNSt10shared_ptrIN4adns6serverEED1Ev
   fun:_ZN9__gnu_cxx13new_allocatorISt10_List_nodeISt10shared_ptrIN4adns6serverEEEE7destroyIS5_EEvPT_
   fun:_ZNSt16allocator_traitsISaISt10_List_nodeISt10shared_ptrIN4adns6serverEEEEE7destroyIS4_EEvRS6_PT_
   fun:_ZNSt7__cxx1110_List_baseISt10shared_ptrIN4adns6serverEESaIS4_EE8_M_clearEv
}
{
   <insert_a_suppression_name_here>
   Memcheck:Free
   fun:free
   fun:_ZN4adns19dns_forwarding_slotD0Ev
   fun:_ZNSt15_Sp_counted_ptrIPN4adns19dns_forwarding_slotELN9__gnu_cxx12_Lock_policyE2EE10_M_disposeEv
   fun:_ZNSt16_Sp_counted_baseILN9__gnu_cxx12_Lock_policyE2EE10_M_releaseEv
   fun:_ZNSt14__shared_countILN9__gnu_cxx12_Lock_policyE2EED1Ev
   fun:_ZNSt12__shared_ptrIN4adns19dns_forwarding_slotELN9__gnu_cxx12_Lock_policyE2EED1Ev
   fun:_ZNSt10shared_ptrIN4adns19dns_forwarding_slotEED1Ev
   fun:_ZN9__gnu_cxx13new_allocatorISt10_List_nodeISt10shared_ptrIN4adns19dns_forwarding_slotEEEE7destroyIS5_EEvPT_
   fun:_ZNSt16allocator_traitsISaISt10_List_nodeISt10shared_ptrIN4adns19dns_forwarding_slotEEEEE7destroyIS4_EEvRS6_PT_
   fun:_ZNSt7__cxx1110_List_baseISt10shared_ptrIN4adns19dns_forwarding_slotEESaIS4_EE8_M_clearEv
   fun:_ZNSt7__cxx1110_List_baseISt10shared_ptrIN4adns19dns_forwarding_slotEESaIS4_EED1Ev
   fun:_ZNSt7__cxx114listISt10shared_ptrIN4adns19dns_forwarding_slotEESaIS4_EED1Ev
}
{
   <insert_a_suppression_name_here>
   Memcheck:Free
   fun:free
   fun:_ZNSt15_Sp_counted_ptrIPN4adns19dns_forwarding_slotELN9__gnu_cxx12_Lock_policyE2EED0Ev
   fun:_ZNSt15_Sp_counted_ptrIPN4adns19dns_forwarding_slotELN9__gnu_cxx12_Lock_policyE2EE10_M_destroyEv
   fun:_ZNSt16_Sp_counted_baseILN9__gnu_cxx12_Lock_policyE2EE10_M_releaseEv
   fun:_ZNSt14__shared_countILN9__gnu_cxx12_Lock_policyE2EED1Ev
   fun:_ZNSt12__shared_ptrIN4adns19dns_forwarding_slotELN9__gnu_cxx12_Lock_policyE2EED1Ev
   fun:_ZNSt10shared_ptrIN4adns19dns_forwarding_slotEED1Ev
   fun:_ZN9__gnu_cxx13new_allocatorISt10_List_nodeISt10shared_ptrIN4adns19dns_forwarding_slotEEEE7destroyIS5_EEvPT_
   fun:_ZNSt16allocator_traitsISaISt10_List_nodeISt10shared_ptrIN4adns19dns_forwarding_slotEEEEE7destroyIS4_EEvRS6_PT_
   fun:_ZNSt7__cxx1110_List_baseISt10shared_ptrIN4adns19dns_forwarding_slotEESaIS4_EE8_M_clearEv
   fun:_ZNSt7__cxx1110_List_baseISt10shared_ptrIN4adns19dns_forwarding_slotEESaIS4_EED1Ev
   fun:_ZNSt7__cxx114listISt10shared_ptrIN4adns19dns_forwarding_slotEESaIS4_EED1Ev
}
{
   <insert_a_suppression_name_here>
   Memcheck:Free
   fun:free
   fun:_ZN9__gnu_cxx13new_allocatorISt10_List_nodeISt10shared_ptrIN4adns19dns_forwarding_slotEEEE10deallocateEPS6_m
   fun:_ZNSt16allocator_traitsISaISt10_List_nodeISt10shared_ptrIN4adns19dns_forwarding_slotEEEEE10deallocateERS6_PS5_m
   fun:_ZNSt7__cxx1110_List_baseISt10shared_ptrIN4adns19dns_forwarding_slotEESaIS4_EE11_M_put_nodeEPSt10_List_nodeIS4_E
   fun:_ZNSt7__cxx1110_List_baseISt10shared_ptrIN4adns19dns_forwarding_slotEESaIS4_EE8_M_clearEv
   fun:_ZNSt7__cxx1110_List_baseISt10shared_ptrIN4adns19dns_forwarding_slotEESaIS4_EED1Ev
   fun:_ZNSt7__cxx114listISt10shared_ptrIN4adns19dns_forwarding_slotEESaIS4_EED1Ev
   fun:_ZN4adns12handler_poolIPNS_20dns_message_envelopeENS_19dns_forwarding_slotENS3_8params_tEED1Ev
   fun:_ZN4adns12handler_poolIPNS_20dns_message_envelopeENS_19dns_forwarding_slotENS3_8params_tEED0Ev
   fun:_ZN4adns23dns_forwarding_resolverD1Ev
   fun:_ZN9__gnu_cxx13new_allocatorIN4adns23dns_forwarding_resolverEE7destroyIS2_EEvPT_
   fun:_ZNSt16allocator_traitsISaIN4adns23dns_forwarding_resolverEEE7destroyIS1_EEvRS2_PT_
}
{
   <insert_a_suppression_name_here>
   Memcheck:Free
   fun:free
   fun:_ZN4adns12handler_poolIPNS_20dns_message_envelopeENS_19dns_forwarding_slotENS3_8params_tEED1Ev
   fun:_ZN4adns12handler_poolIPNS_20dns_message_envelopeENS_19dns_forwarding_slotENS3_8params_tEED0Ev
   fun:_ZN4adns23dns_forwarding_resolverD1Ev
   fun:_ZN9__gnu_cxx13new_allocatorIN4adns23dns_forwarding_resolverEE7destroyIS2_EEvPT_
   fun:_ZNSt16allocator_traitsISaIN4adns23dns_forwarding_resolverEEE7destroyIS1_EEvRS2_PT_
   fun:_ZNSt23_Sp_counted_ptr_inplaceIN4adns23dns_forwarding_resolverESaIS1_ELN9__gnu_cxx12_Lock_policyE2EE10_M_disposeEv
   fun:_ZNSt16_Sp_counted_baseILN9__gnu_cxx12_Lock_policyE2EE10_M_releaseEv
   fun:_ZNSt14__shared_countILN9__gnu_cxx12_Lock_policyE2EED1Ev
   fun:_ZNSt12__shared_ptrIN4adns23dns_forwarding_resolverELN9__gnu_cxx12_Lock_policyE2EED1Ev
   fun:_ZNSt10shared_ptrIN4adns23dns_forwarding_resolverEED1Ev
   fun:_ZN4adns14dns_udp_serverD1Ev
}
{
   <insert_a_suppression_name_here>
   Memcheck:Free
   fun:free
   fun:_ZN4adns12handler_poolIPNS_20dns_message_envelopeENS_19dns_forwarding_slotENS3_8params_tEED0Ev
   fun:_ZN4adns23dns_forwarding_resolverD1Ev
   fun:_ZN9__gnu_cxx13new_allocatorIN4adns23dns_forwarding_resolverEE7destroyIS2_EEvPT_
   fun:_ZNSt16allocator_traitsISaIN4adns23dns_forwarding_resolverEEE7destroyIS1_EEvRS2_PT_
   fun:_ZNSt23_Sp_counted_ptr_inplaceIN4adns23dns_forwarding_resolverESaIS1_ELN9__gnu_cxx12_Lock_policyE2EE10_M_disposeEv
   fun:_ZNSt16_Sp_counted_baseILN9__gnu_cxx12_Lock_policyE2EE10_M_releaseEv
   fun:_ZNSt14__shared_countILN9__gnu_cxx12_Lock_policyE2EED1Ev
   fun:_ZNSt12__shared_ptrIN4adns23dns_forwarding_resolverELN9__gnu_cxx12_Lock_policyE2EED1Ev
   fun:_ZNSt10shared_ptrIN4adns23dns_forwarding_resolverEED1Ev
   fun:_ZN4adns14dns_udp_serverD1Ev
   fun:_ZN4adns14dns_udp_serverD0Ev
}
{
   <insert_a_suppression_name_here>
   Memcheck:Free
   fun:free
   fun:_ZN9__gnu_cxx13new_allocatorISt23_Sp_counted_ptr_inplaceIN4adns23dns_forwarding_resolverESaIS3_ELNS_12_Lock_policyE2EEE10deallocateEPS6_m
   fun:_ZNSt16allocator_traitsISaISt23_Sp_counted_ptr_inplaceIN4adns23dns_forwarding_resolverESaIS2_ELN9__gnu_cxx12_Lock_policyE2EEEE10deallocateERS7_PS6_m
   fun:_ZNSt15__allocated_ptrISaISt23_Sp_counted_ptr_inplaceIN4adns23dns_forwarding_resolverESaIS2_ELN9__gnu_cxx12_Lock_policyE2EEEED1Ev
   fun:_ZNSt23_Sp_counted_ptr_inplaceIN4adns23dns_forwarding_resolverESaIS1_ELN9__gnu_cxx12_Lock_policyE2EE10_M_destroyEv
   fun:_ZNSt16_Sp_counted_baseILN9__gnu_cxx12_Lock_policyE2EE10_M_releaseEv
   fun:_ZNSt14__shared_countILN9__gnu_cxx12_Lock_policyE2EED1Ev
   fun:_ZNSt12__shared_ptrIN4adns23dns_forwarding_resolverELN9__gnu_cxx12_Lock_policyE2EED1Ev
   fun:_ZNSt10shared_ptrIN4adns23dns_forwarding_resolverEED1Ev
   fun:_ZN4adns14dns_udp_serverD1Ev
   fun:_ZN4adns14dns_udp_serverD0Ev
   fun:_ZNSt15_Sp_counted_ptrIPN4adns6serverELN9__gnu_cxx12_Lock_policyE2EE10_M_disposeEv
}
{
   <insert_a_suppression_name_here>
   Memcheck:Free
   fun:free
   fun:_ZN4adns18dns_recursive_slotD0Ev
   fun:_ZNSt15_Sp_counted_ptrIPN4adns18dns_recursive_slotELN9__gnu_cxx12_Lock_policyE2EE10_M_disposeEv
   fun:_ZNSt16_Sp_counted_baseILN9__gnu_cxx12_Lock_policyE2EE10_M_releaseEv
   fun:_ZNSt14__shared_countILN9__gnu_cxx12_Lock_policyE2EED1Ev
   fun:_ZNSt12__shared_ptrIN4adns18dns_recursive_slotELN9__gnu_cxx12_Lock_policyE2EED1Ev
   fun:_ZNSt10shared_ptrIN4adns18dns_recursive_slotEED1Ev
   fun:_ZN9__gnu_cxx13new_allocatorISt10_List_nodeISt10shared_ptrIN4adns18dns_recursive_slotEEEE7destroyIS5_EEvPT_
   fun:_ZNSt16allocator_traitsISaISt10_List_nodeISt10shared_ptrIN4adns18dns_recursive_slotEEEEE7destroyIS4_EEvRS6_PT_
   fun:_ZNSt7__cxx1110_List_baseISt10shared_ptrIN4adns18dns_recursive_slotEESaIS4_EE8_M_clearEv
   fun:_ZNSt7__cxx1110_List_baseISt10shared_ptrIN4adns18dns_recursive_slotEESaIS4_EED1Ev
   fun:_ZNSt7__cxx114listISt10shared_ptrIN4adns18dns_recursive_slotEESaIS4_EED1Ev
}
{
   <insert_a_suppression_name_here>
   Memcheck:Free
   fun:free
   fun:_ZNSt15_Sp_counted_ptrIPN4adns18dns_recursive_slotELN9__gnu_cxx12_Lock_policyE2EED0Ev
   fun:_ZNSt15_Sp_counted_ptrIPN4adns18dns_recursive_slotELN9__gnu_cxx12_Lock_policyE2EE10_M_destroyEv
   fun:_ZNSt16_Sp_counted_baseILN9__gnu_cxx12_Lock_policyE2EE10_M_releaseEv
   fun:_ZNSt14__shared_countILN9__gnu_cxx12_Lock_policyE2EED1Ev
   fun:_ZNSt12__shared_ptrIN4adns18dns_recursive_slotELN9__gnu_cxx12_Lock_policyE2EED1Ev
   fun:_ZNSt10shared_ptrIN4adns18dns_recursive_slotEED1Ev
   fun:_ZN9__gnu_cxx13new_allocatorISt10_List_nodeISt10shared_ptrIN4adns18dns_recursive_slotEEEE7destroyIS5_EEvPT_
   fun:_ZNSt16allocator_traitsISaISt10_List_nodeISt10shared_ptrIN4adns18dns_recursive_slotEEEEE7destroyIS4_EEvRS6_PT_
   fun:_ZNSt7__cxx1110_List_baseISt10shared_ptrIN4adns18dns_recursive_slotEESaIS4_EE8_M_clearEv
   fun:_ZNSt7__cxx1110_List_baseISt10shared_ptrIN4adns18dns_recursive_slotEESaIS4_EED1Ev
   fun:_ZNSt7__cxx114listISt10shared_ptrIN4adns18dns_recursive_slotEESaIS4_EED1Ev
}
{
   <insert_a_suppression_name_here>
   Memcheck:Free
   fun:free
   fun:_ZN9__gnu_cxx13new_allocatorISt10_List_nodeISt10shared_ptrIN4adns18dns_recursive_slotEEEE10deallocateEPS6_m
   fun:_ZNSt16allocator_traitsISaISt10_List_nodeISt10shared_ptrIN4adns18dns_recursive_slotEEEEE10deallocateERS6_PS5_m
   fun:_ZNSt7__cxx1110_List_baseISt10shared_ptrIN4adns18dns_recursive_slotEESaIS4_EE11_M_put_nodeEPSt10_List_nodeIS4_E
   fun:_ZNSt7__cxx1110_List_baseISt10shared_ptrIN4adns18dns_recursive_slotEESaIS4_EE8_M_clearEv
   fun:_ZNSt7__cxx1110_List_baseISt10shared_ptrIN4adns18dns_recursive_slotEESaIS4_EED1Ev
   fun:_ZNSt7__cxx114listISt10shared_ptrIN4adns18dns_recursive_slotEESaIS4_EED1Ev
   fun:_ZN4adns12handler_poolIPNS_20dns_message_envelopeENS_18dns_recursive_slotENS3_8params_tEED1Ev
   fun:_ZN4adns12handler_poolIPNS_20dns_message_envelopeENS_18dns_recursive_slotENS3_8params_tEED0Ev
   fun:_ZN4adns22dns_recursive_resolverD1Ev
   fun:_ZN9__gnu_cxx13new_allocatorIN4adns22dns_recursive_resolverEE7destroyIS2_EEvPT_
   fun:_ZNSt16allocator_traitsISaIN4adns22dns_recursive_resolverEEE7destroyIS1_EEvRS2_PT_
}
{
   <insert_a_suppression_name_here>
   Memcheck:Free
   fun:free
   fun:_ZN4adns12handler_poolIPNS_20dns_message_envelopeENS_18dns_recursive_slotENS3_8params_tEED1Ev
   fun:_ZN4adns12handler_poolIPNS_20dns_message_envelopeENS_18dns_recursive_slotENS3_8params_tEED0Ev
   fun:_ZN4adns22dns_recursive_resolverD1Ev
   fun:_ZN9__gnu_cxx13new_allocatorIN4adns22dns_recursive_resolverEE7destroyIS2_EEvPT_
   fun:_ZNSt16allocator_traitsISaIN4adns22dns_recursive_resolverEEE7destroyIS1_EEvRS2_PT_
   fun:_ZNSt23_Sp_counted_ptr_inplaceIN4adns22dns_recursive_resolverESaIS1_ELN9__gnu_cxx12_Lock_policyE2EE10_M_disposeEv
   fun:_ZNSt16_Sp_counted_baseILN9__gnu_cxx12_Lock_policyE2EE10_M_releaseEv
   fun:_ZNSt14__shared_countILN9__gnu_cxx12_Lock_policyE2EED1Ev
   fun:_ZNSt12__shared_ptrIN4adns22dns_recursive_resolverELN9__gnu_cxx12_Lock_policyE2EED1Ev
   fun:_ZNSt10shared_ptrIN4adns22dns_recursive_resolverEED1Ev
   fun:_ZN4adns14dns_udp_serverD1Ev
}
{
   <insert_a_suppression_name_here>
   Memcheck:Free
   fun:free
   fun:_ZN4adns12handler_poolIPNS_20dns_message_envelopeENS_18dns_recursive_slotENS3_8params_tEED0Ev
   fun:_ZN4adns22dns_recursive_resolverD1Ev
   fun:_ZN9__gnu_cxx13new_allocatorIN4adns22dns_recursive_resolverEE7destroyIS2_EEvPT_
   fun:_ZNSt16allocator_traitsISaIN4adns22dns_recursive_resolverEEE7destroyIS1_EEvRS2_PT_
   fun:_ZNSt23_Sp_counted_ptr_inplaceIN4adns22dns_recursive_resolverESaIS1_ELN9__gnu_cxx12_Lock_policyE2EE10_M_disposeEv
   fun:_ZNSt16_Sp_counted_baseILN9__gnu_cxx12_Lock_policyE2EE10_M_releaseEv
   fun:_ZNSt14__shared_countILN9__gnu_cxx12_Lock_policyE2EED1Ev
   fun:_ZNSt12__shared_ptrIN4adns22dns_recursive_resolverELN9__gnu_cxx12_Lock_policyE2EED1Ev
   fun:_ZNSt10shared_ptrIN4adns22dns_recursive_resolverEED1Ev
   fun:_ZN4adns14dns_udp_serverD1Ev
   fun:_ZN4adns14dns_udp_serverD0Ev
}
{
   <insert_a_suppression_name_here>
   Memcheck:Free
   fun:free
   fun:_ZN9__gnu_cxx13new_allocatorISt23_Sp_counted_ptr_inplaceIN4adns22dns_recursive_resolverESaIS3_ELNS_12_Lock_policyE2EEE10deallocateEPS6_m
   fun:_ZNSt16allocator_traitsISaISt23_Sp_counted_ptr_inplaceIN4adns22dns_recursive_resolverESaIS2_ELN9__gnu_cxx12_Lock_policyE2EEEE10deallocateERS7_PS6_m
   fun:_ZNSt15__allocated_ptrISaISt23_Sp_counted_ptr_inplaceIN4adns22dns_recursive_resolverESaIS2_ELN9__gnu_cxx12_Lock_policyE2EEEED1Ev
   fun:_ZNSt23_Sp_counted_ptr_inplaceIN4adns22dns_recursive_resolverESaIS1_ELN9__gnu_cxx12_Lock_policyE2EE10_M_destroyEv
   fun:_ZNSt16_Sp_counted_baseILN9__gnu_cxx12_Lock_policyE2EE10_M_releaseEv
   fun:_ZNSt14__shared_countILN9__gnu_cxx12_Lock_policyE2EED1Ev
   fun:_ZNSt12__shared_ptrIN4adns22dns_recursive_resolverELN9__gnu_cxx12_Lock_policyE2EED1Ev
   fun:_ZNSt10shared_ptrIN4adns22dns_recursive_resolverEED1Ev
   fun:_ZN4adns14dns_udp_serverD1Ev
   fun:_ZN4adns14dns_udp_serverD0Ev
   fun:_ZNSt15_Sp_counted_ptrIPN4adns6serverELN9__gnu_cxx12_Lock_policyE2EE10_M_disposeEv
}
{
   <insert_a_suppression_name_here>
   Memcheck:Free
   fun:free
   fun:_ZN9__gnu_cxx13new_allocatorISt23_Sp_counted_ptr_inplaceIN4adns10udp_socketESaIS3_ELNS_12_Lock_policyE2EEE10deallocateEPS6_m
   fun:_ZNSt16allocator_traitsISaISt23_Sp_counted_ptr_inplaceIN4adns10udp_socketESaIS2_ELN9__gnu_cxx12_Lock_policyE2EEEE10deallocateERS7_PS6_m
   fun:_ZNSt15__allocated_ptrISaISt23_Sp_counted_ptr_inplaceIN4adns10udp_socketESaIS2_ELN9__gnu_cxx12_Lock_policyE2EEEED1Ev
   fun:_ZNSt23_Sp_counted_ptr_inplaceIN4adns10udp_socketESaIS1_ELN9__gnu_cxx12_Lock_policyE2EE10_M_destroyEv
   fun:_ZNSt16_Sp_counted_baseILN9__gnu_cxx12_Lock_policyE2EE10_M_releaseEv
   fun:_ZNSt14__shared_countILN9__gnu_cxx12_Lock_policyE2EED1Ev
   fun:_ZNSt12__shared_ptrIN4adns6socketELN9__gnu_cxx12_Lock_policyE2EED1Ev
   fun:_ZNSt10shared_ptrIN4adns6socketEED1Ev
   fun:_ZNSt4pairIKiSt10shared_ptrIN4adns6socketEEED1Ev
   fun:_ZN9__gnu_cxx13new_allocatorINSt8__detail10_Hash_nodeISt4pairIKiSt10shared_ptrIN4adns6socketEEELb0EEEE7destroyIS9_EEvPT_
   fun:_ZNSt16allocator_traitsISaINSt8__detail10_Hash_nodeISt4pairIKiSt10shared_ptrIN4adns6socketEEELb0EEEEE7destroyIS8_EEvRSA_PT_
}
{
   <insert_a_suppression_name_here>
   Memcheck:Free
   fun:free
   fun:_ZN4adns14dns_udp_serverD0Ev
   fun:_ZNSt15_Sp_counted_ptrIPN4adns6serverELN9__gnu_cxx12_Lock_policyE2EE10_M_disposeEv
   fun:_ZNSt16_Sp_counted_baseILN9__gnu_cxx12_Lock_policyE2EE10_M_releaseEv
   fun:_ZNSt14__shared_countILN9__gnu_cxx12_Lock_policyE2EED1Ev
   fun:_ZNSt12__shared_ptrIN4adns6serverELN9__gnu_cxx12_Lock_policyE2EED1Ev
   fun:_ZNSt10shared_ptrIN4adns6serverEED1Ev
   fun:_ZN9__gnu_cxx13new_allocatorISt10_List_nodeISt10shared_ptrIN4adns6serverEEEE7destroyIS5_EEvPT_
   fun:_ZNSt16allocator_traitsISaISt10_List_nodeISt10shared_ptrIN4adns6serverEEEEE7destroyIS4_EEvRS6_PT_
   fun:_ZNSt7__cxx1110_List_baseISt10shared_ptrIN4adns6serverEESaIS4_EE8_M_clearEv
   fun:_ZNSt7__cxx1110_List_baseISt10shared_ptrIN4adns6serverEESaIS4_EED1Ev
   fun:_ZNSt7__cxx114listISt10shared_ptrIN4adns6serverEESaIS4_EED1Ev
}
{
   <insert_a_suppression_name_here>
   Memcheck:Free
   fun:free
   fun:_ZNSt15_Sp_counted_ptrIPN4adns6serverELN9__gnu_cxx12_Lock_policyE2EED0Ev
   fun:_ZNSt15_Sp_counted_ptrIPN4adns6serverELN9__gnu_cxx12_Lock_policyE2EE10_M_destroyEv
   fun:_ZNSt16_Sp_counted_baseILN9__gnu_cxx12_Lock_policyE2EE10_M_releaseEv
   fun:_ZNSt14__shared_countILN9__gnu_cxx12_Lock_policyE2EED1Ev
   fun:_ZNSt12__shared_ptrIN4adns6serverELN9__gnu_cxx12_Lock_policyE2EED1Ev
   fun:_ZNSt10shared_ptrIN4adns6serverEED1Ev
   fun:_ZN9__gnu_cxx13new_allocatorISt10_List_nodeISt10shared_ptrIN4adns6serverEEEE7destroyIS5_EEvPT_
   fun:_ZNSt16allocator_traitsISaISt10_List_nodeISt10shared_ptrIN4adns6serverEEEEE7destroyIS4_EEvRS6_PT_
   fun:_ZNSt7__cxx1110_List_baseISt10shared_ptrIN4adns6serverEESaIS4_EE8_M_clearEv
   fun:_ZNSt7__cxx1110_List_baseISt10shared_ptrIN4adns6serverEESaIS4_EED1Ev
   fun:_ZNSt7__cxx114listISt10shared_ptrIN4adns6serverEESaIS4_EED1Ev
}
{
   <insert_a_suppression_name_here>
   Memcheck:Free
   fun:free
   fun:_ZN9__gnu_cxx13new_allocatorISt10_List_nodeISt10shared_ptrIN4adns6serverEEEE10deallocateEPS6_m
   fun:_ZNSt16allocator_traitsISaISt10_List_nodeISt10shared_ptrIN4adns6serverEEEEE10deallocateERS6_PS5_m
   fun:_ZNSt7__cxx1110_List_baseISt10shared_ptrIN4adns6serverEESaIS4_EE11_M_put_nodeEPSt10_List_nodeIS4_E
   fun:_ZNSt7__cxx1110_List_baseISt10shared_ptrIN4adns6serverEESaIS4_EE8_M_clearEv
   fun:_ZNSt7__cxx1110_List_baseISt10shared_ptrIN4adns6serverEESaIS4_EED1Ev
   fun:_ZNSt7__cxx114listISt10shared_ptrIN4adns6serverEESaIS4_EED1Ev
   fun:_ZN4adns16server_containerD1Ev
   fun:_Z11run_serversv
   fun:main
}
{
   <insert_a_suppression_name_here>
   Memcheck:Free
   fun:free
   fun:_ZN9__gnu_cxx13new_allocatorISt23_Sp_counted_ptr_inplaceIN4adns10tcp_socketESaIS3_ELNS_12_Lock_policyE2EEE10deallocateEPS6_m
   fun:_ZNSt16allocator_traitsISaISt23_Sp_counted_ptr_inplaceIN4adns10tcp_socketESaIS2_ELN9__gnu_cxx12_Lock_policyE2EEEE10deallocateERS7_PS6_m
   fun:_ZNSt15__allocated_ptrISaISt23_Sp_counted_ptr_inplaceIN4adns10tcp_socketESaIS2_ELN9__gnu_cxx12_Lock_policyE2EEEED1Ev
   fun:_ZNSt23_Sp_counted_ptr_inplaceIN4adns10tcp_socketESaIS1_ELN9__gnu_cxx12_Lock_policyE2EE10_M_destroyEv
   fun:_ZNSt16_Sp_counted_baseILN9__gnu_cxx12_Lock_policyE2EE10_M_releaseEv
   fun:_ZNSt14__shared_countILN9__gnu_cxx12_Lock_policyE2EED1Ev
   fun:_ZNSt12__shared_ptrIN4adns6socketELN9__gnu_cxx12_Lock_policyE2EED1Ev
   fun:_ZNSt10shared_ptrIN4adns6socketEED1Ev
   fun:_ZNSt4pairIKiSt10shared_ptrIN4adns6socketEEED1Ev
   fun:_ZN9__gnu_cxx13new_allocatorINSt8__detail10_Hash_nodeISt4pairIKiSt10shared_ptrIN4adns6socketEEELb0EEEE7destroyIS9_EEvPT_
   fun:_ZNSt16allocator_traitsISaINSt8__detail10_Hash_nodeISt4pairIKiSt10shared_ptrIN4adns6socketEEELb0EEEEE7destroyIS8_EEvRSA_PT_
}
{
   <insert_a_suppression_name_here>
   Memcheck:Free
   fun:free
   fun:_ZN4adns18dns_tcp_connectionD0Ev
   fun:_ZN4adns11thread_poolINS_18dns_tcp_connectionEED1Ev
   fun:_ZN4adns14dns_tcp_serverD1Ev
   fun:_ZN4adns14dns_tcp_serverD0Ev
   fun:_ZNSt15_Sp_counted_ptrIPN4adns6serverELN9__gnu_cxx12_Lock_policyE2EE10_M_disposeEv
   fun:_ZNSt16_Sp_counted_baseILN9__gnu_cxx12_Lock_policyE2EE10_M_releaseEv
   fun:_ZNSt14__shared_countILN9__gnu_cxx12_Lock_policyE2EED1Ev
   fun:_ZNSt12__shared_ptrIN4adns6serverELN9__gnu_cxx12_Lock_policyE2EED1Ev
   fun:_ZNSt10shared_ptrIN4adns6serverEED1Ev
   fun:_ZN9__gnu_cxx13new_allocatorISt10_List_nodeISt10shared_ptrIN4adns6serverEEEE7destroyIS5_EEvPT_
   fun:_ZNSt16allocator_traitsISaISt10_List_nodeISt10shared_ptrIN4adns6serverEEEEE7destroyIS4_EEvRS6_PT_
}
{
   <insert_a_suppression_name_here>
   Memcheck:Free
   fun:free
   fun:_ZN4adns23dns_forwarding_resolverD0Ev
   fun:_ZNSt15_Sp_counted_ptrIPN4adns23dns_forwarding_resolverELN9__gnu_cxx12_Lock_policyE2EE10_M_disposeEv
   fun:_ZNSt16_Sp_counted_baseILN9__gnu_cxx12_Lock_policyE2EE10_M_releaseEv
   fun:_ZNSt14__shared_countILN9__gnu_cxx12_Lock_policyE2EED1Ev
   fun:_ZNSt12__shared_ptrIN4adns23dns_forwarding_resolverELN9__gnu_cxx12_Lock_policyE2EED1Ev
   fun:_ZNSt10shared_ptrIN4adns23dns_forwarding_resolverEED1Ev
   fun:_ZN4adns11dns_handler8params_tD1Ev
   fun:_ZN4adns12handler_poolIPNS_20dns_message_envelopeENS_11dns_handlerENS3_8params_tEED1Ev
   fun:_ZN4adns12handler_poolIPNS_20dns_message_envelopeENS_11dns_handlerENS3_8params_tEED0Ev
   fun:_ZN4adns18dns_tcp_connectionD1Ev
   fun:_ZN4adns18dns_tcp_connectionD0Ev
}
{
   <insert_a_suppression_name_here>
   Memcheck:Free
   fun:free
   fun:_ZNSt15_Sp_counted_ptrIPN4adns23dns_forwarding_resolverELN9__gnu_cxx12_Lock_policyE2EED0Ev
   fun:_ZNSt15_Sp_counted_ptrIPN4adns23dns_forwarding_resolverELN9__gnu_cxx12_Lock_policyE2EE10_M_destroyEv
   fun:_ZNSt16_Sp_counted_baseILN9__gnu_cxx12_Lock_policyE2EE10_M_releaseEv
   fun:_ZNSt14__shared_countILN9__gnu_cxx12_Lock_policyE2EED1Ev
   fun:_ZNSt12__shared_ptrIN4adns23dns_forwarding_resolverELN9__gnu_cxx12_Lock_policyE2EED1Ev
   fun:_ZNSt10shared_ptrIN4adns23dns_forwarding_resolverEED1Ev
   fun:_ZN4adns11dns_handler8params_tD1Ev
   fun:_ZN4adns12handler_poolIPNS_20dns_message_envelopeENS_11dns_handlerENS3_8params_tEED1Ev
   fun:_ZN4adns12handler_poolIPNS_20dns_message_envelopeENS_11dns_handlerENS3_8params_tEED0Ev
   fun:_ZN4adns18dns_tcp_connectionD1Ev
   fun:_ZN4adns18dns_tcp_connectionD0Ev
}
{
   <insert_a_suppression_name_here>
   Memcheck:Free
   fun:free
   fun:_ZN9__gnu_cxx13new_allocatorISt23_Sp_counted_ptr_inplaceIN4adns13message_queueIPNS2_20dns_message_envelopeEEESaIS6_ELNS_12_Lock_policyE2EEE10deallocateEPS9_m
   fun:_ZNSt16allocator_traitsISaISt23_Sp_counted_ptr_inplaceIN4adns13message_queueIPNS1_20dns_message_envelopeEEESaIS5_ELN9__gnu_cxx12_Lock_policyE2EEEE10deallocateERSA_PS9_m
   fun:_ZNSt15__allocated_ptrISaISt23_Sp_counted_ptr_inplaceIN4adns13message_queueIPNS1_20dns_message_envelopeEEESaIS5_ELN9__gnu_cxx12_Lock_policyE2EEEED1Ev
   fun:_ZNSt23_Sp_counted_ptr_inplaceIN4adns13message_queueIPNS0_20dns_message_envelopeEEESaIS4_ELN9__gnu_cxx12_Lock_policyE2EE10_M_destroyEv
   fun:_ZNSt16_Sp_counted_baseILN9__gnu_cxx12_Lock_policyE2EE10_M_releaseEv
   fun:_ZNSt14__shared_countILN9__gnu_cxx12_Lock_policyE2EED1Ev
   fun:_ZNSt12__shared_ptrIN4adns13message_queueIPNS0_20dns_message_envelopeEEELN9__gnu_cxx12_Lock_policyE2EED1Ev
   fun:_ZNSt10shared_ptrIN4adns13message_queueIPNS0_20dns_message_envelopeEEEED1Ev
   fun:_ZSt8_DestroyISt10shared_ptrIN4adns13message_queueIPNS1_20dns_message_envelopeEEEEEvPT_
   fun:_ZNSt12_Destroy_auxILb0EE9__destroyIPSt10shared_ptrIN4adns13message_queueIPNS3_20dns_message_envelopeEEEEEEvT_SA_
   fun:_ZSt8_DestroyIPSt10shared_ptrIN4adns13message_queueIPNS1_20dns_message_envelopeEEEEEvT_S8_
}
{
   <insert_a_suppression_name_here>
   Memcheck:Free
   fun:free
   fun:_ZN4adns17queue_multiplexerIPNS_20dns_message_envelopeEED0Ev
   fun:_ZN4adns12handler_poolIPNS_20dns_message_envelopeENS_18dns_recursive_slotENS3_8params_tEED1Ev
   fun:_ZN4adns12handler_poolIPNS_20dns_message_envelopeENS_18dns_recursive_slotENS3_8params_tEED0Ev
   fun:_ZN4adns22dns_recursive_resolverD1Ev
   fun:_ZN4adns22dns_recursive_resolverD0Ev
   fun:_ZNSt15_Sp_counted_ptrIPN4adns22dns_recursive_resolverELN9__gnu_cxx12_Lock_policyE2EE10_M_disposeEv
   fun:_ZNSt16_Sp_counted_baseILN9__gnu_cxx12_Lock_policyE2EE10_M_releaseEv
   fun:_ZNSt14__shared_countILN9__gnu_cxx12_Lock_policyE2EED1Ev
   fun:_ZNSt12__shared_ptrIN4adns22dns_recursive_resolverELN9__gnu_cxx12_Lock_policyE2EED1Ev
   fun:_ZNSt10shared_ptrIN4adns22dns_recursive_resolverEED1Ev
   fun:_ZN4adns11dns_handler8params_tD1Ev
}
{
   <insert_a_suppression_name_here>
   Memcheck:Free
   fun:free
   fun:_ZN4adns22dns_recursive_resolverD0Ev
   fun:_ZNSt15_Sp_counted_ptrIPN4adns22dns_recursive_resolverELN9__gnu_cxx12_Lock_policyE2EE10_M_disposeEv
   fun:_ZNSt16_Sp_counted_baseILN9__gnu_cxx12_Lock_policyE2EE10_M_releaseEv
   fun:_ZNSt14__shared_countILN9__gnu_cxx12_Lock_policyE2EED1Ev
   fun:_ZNSt12__shared_ptrIN4adns22dns_recursive_resolverELN9__gnu_cxx12_Lock_policyE2EED1Ev
   fun:_ZNSt10shared_ptrIN4adns22dns_recursive_resolverEED1Ev
   fun:_ZN4adns11dns_handler8params_tD1Ev
   fun:_ZN4adns12handler_poolIPNS_20dns_message_envelopeENS_11dns_handlerENS3_8params_tEED1Ev
   fun:_ZN4adns12handler_poolIPNS_20dns_message_envelopeENS_11dns_handlerENS3_8params_tEED0Ev
   fun:_ZN4adns18dns_tcp_connectionD1Ev
   fun:_ZN4adns18dns_tcp_connectionD0Ev
}
{
   <insert_a_suppression_name_here>
   Memcheck:Free
   fun:free
   fun:_ZNSt15_Sp_counted_ptrIPN4adns22dns_recursive_resolverELN9__gnu_cxx12_Lock_policyE2EED0Ev
   fun:_ZNSt15_Sp_counted_ptrIPN4adns22dns_recursive_resolverELN9__gnu_cxx12_Lock_policyE2EE10_M_destroyEv
   fun:_ZNSt16_Sp_counted_baseILN9__gnu_cxx12_Lock_policyE2EE10_M_releaseEv
   fun:_ZNSt14__shared_countILN9__gnu_cxx12_Lock_policyE2EED1Ev
   fun:_ZNSt12__shared_ptrIN4adns22dns_recursive_resolverELN9__gnu_cxx12_Lock_policyE2EED1Ev
   fun:_ZNSt10shared_ptrIN4adns22dns_recursive_resolverEED1Ev
   fun:_ZN4adns11dns_handler8params_tD1Ev
   fun:_ZN4adns12handler_poolIPNS_20dns_message_envelopeENS_11dns_handlerENS3_8params_tEED1Ev
   fun:_ZN4adns12handler_poolIPNS_20dns_message_envelopeENS_11dns_handlerENS3_8params_tEED0Ev
   fun:_ZN4adns18dns_tcp_connectionD1Ev
   fun:_ZN4adns18dns_tcp_connectionD0Ev
}
{
   <insert_a_suppression_name_here>
   Memcheck:Free
   fun:free
   fun:_ZN9__gnu_cxx13new_allocatorISt10_List_nodeIPN4adns18dns_tcp_connectionEEE10deallocateEPS5_m
   fun:_ZNSt16allocator_traitsISaISt10_List_nodeIPN4adns18dns_tcp_connectionEEEE10deallocateERS5_PS4_m
   fun:_ZNSt7__cxx1110_List_baseIPN4adns18dns_tcp_connectionESaIS3_EE11_M_put_nodeEPSt10_List_nodeIS3_E
   fun:_ZNSt7__cxx1110_List_baseIPN4adns18dns_tcp_connectionESaIS3_EE8_M_clearEv
   fun:_ZNSt7__cxx1110_List_baseIPN4adns18dns_tcp_connectionESaIS3_EED1Ev
   fun:_ZNSt7__cxx114listIPN4adns18dns_tcp_connectionESaIS3_EED1Ev
   fun:_ZN4adns11thread_poolINS_18dns_tcp_connectionEED1Ev
   fun:_ZN4adns14dns_tcp_serverD1Ev
   fun:_ZN4adns14dns_tcp_serverD0Ev
   fun:_ZNSt15_Sp_counted_ptrIPN4adns6serverELN9__gnu_cxx12_Lock_policyE2EE10_M_disposeEv
   fun:_ZNSt16_Sp_counted_baseILN9__gnu_cxx12_Lock_policyE2EE10_M_releaseEv
}
{
   <insert_a_suppression_name_here>
   Memcheck:Free
   fun:free
   fun:_ZN4adns14dns_tcp_serverD0Ev
   fun:_ZNSt15_Sp_counted_ptrIPN4adns6serverELN9__gnu_cxx12_Lock_policyE2EE10_M_disposeEv
   fun:_ZNSt16_Sp_counted_baseILN9__gnu_cxx12_Lock_policyE2EE10_M_releaseEv
   fun:_ZNSt14__shared_countILN9__gnu_cxx12_Lock_policyE2EED1Ev
   fun:_ZNSt12__shared_ptrIN4adns6serverELN9__gnu_cxx12_Lock_policyE2EED1Ev
   fun:_ZNSt10shared_ptrIN4adns6serverEED1Ev
   fun:_ZN9__gnu_cxx13new_allocatorISt10_List_nodeISt10shared_ptrIN4adns6serverEEEE7destroyIS5_EEvPT_
   fun:_ZNSt16allocator_traitsISaISt10_List_nodeISt10shared_ptrIN4adns6serverEEEEE7destroyIS4_EEvRS6_PT_
   fun:_ZNSt7__cxx1110_List_baseISt10shared_ptrIN4adns6serverEESaIS4_EE8_M_clearEv
   fun:_ZNSt7__cxx1110_List_baseISt10shared_ptrIN4adns6serverEESaIS4_EED1Ev
   fun:_ZNSt7__cxx114listISt10shared_ptrIN4adns6serverEESaIS4_EED1Ev
}
{
   <insert_a_suppression_name_here>
   Memcheck:Free
   fun:free
   fun:_ZN4adns17ssl_server_socketD0Ev
   fun:_ZNSt15_Sp_counted_ptrIPN4adns17ssl_server_socketELN9__gnu_cxx12_Lock_policyE2EE10_M_disposeEv
   fun:_ZNSt16_Sp_counted_baseILN9__gnu_cxx12_Lock_policyE2EE10_M_releaseEv
   fun:_ZNSt14__shared_countILN9__gnu_cxx12_Lock_policyE2EED1Ev
   fun:_ZNSt12__shared_ptrIN4adns6socketELN9__gnu_cxx12_Lock_policyE2EED1Ev
   fun:_ZNSt10shared_ptrIN4adns6socketEED1Ev
   fun:_ZNSt4pairIKiSt10shared_ptrIN4adns6socketEEED1Ev
   fun:_ZN9__gnu_cxx13new_allocatorINSt8__detail10_Hash_nodeISt4pairIKiSt10shared_ptrIN4adns6socketEEELb0EEEE7destroyIS9_EEvPT_
   fun:_ZNSt16allocator_traitsISaINSt8__detail10_Hash_nodeISt4pairIKiSt10shared_ptrIN4adns6socketEEELb0EEEEE7destroyIS8_EEvRSA_PT_
   fun:_ZNSt8__detail16_Hashtable_allocISaINS_10_Hash_nodeISt4pairIKiSt10shared_ptrIN4adns6socketEEELb0EEEEE18_M_deallocate_nodeEPS9_
   fun:_ZNSt8__detail16_Hashtable_allocISaINS_10_Hash_nodeISt4pairIKiSt10shared_ptrIN4adns6socketEEELb0EEEEE19_M_deallocate_nodesEPS9_
}
{
   <insert_a_suppression_name_here>
   Memcheck:Free
   fun:free
   fun:_ZNSt15_Sp_counted_ptrIPN4adns17ssl_server_socketELN9__gnu_cxx12_Lock_policyE2EED0Ev
   fun:_ZNSt15_Sp_counted_ptrIPN4adns17ssl_server_socketELN9__gnu_cxx12_Lock_policyE2EE10_M_destroyEv
   fun:_ZNSt16_Sp_counted_baseILN9__gnu_cxx12_Lock_policyE2EE10_M_releaseEv
   fun:_ZNSt14__shared_countILN9__gnu_cxx12_Lock_policyE2EED1Ev
   fun:_ZNSt12__shared_ptrIN4adns6socketELN9__gnu_cxx12_Lock_policyE2EED1Ev
   fun:_ZNSt10shared_ptrIN4adns6socketEED1Ev
   fun:_ZNSt4pairIKiSt10shared_ptrIN4adns6socketEEED1Ev
   fun:_ZN9__gnu_cxx13new_allocatorINSt8__detail10_Hash_nodeISt4pairIKiSt10shared_ptrIN4adns6socketEEELb0EEEE7destroyIS9_EEvPT_
   fun:_ZNSt16allocator_traitsISaINSt8__detail10_Hash_nodeISt4pairIKiSt10shared_ptrIN4adns6socketEEELb0EEEEE7destroyIS8_EEvRSA_PT_
   fun:_ZNSt8__detail16_Hashtable_allocISaINS_10_Hash_nodeISt4pairIKiSt10shared_ptrIN4adns6socketEEELb0EEEEE18_M_deallocate_nodeEPS9_
   fun:_ZNSt8__detail16_Hashtable_allocISaINS_10_Hash_nodeISt4pairIKiSt10shared_ptrIN4adns6socketEEELb0EEEEE19_M_deallocate_nodesEPS9_
}
{
   <insert_a_suppression_name_here>
   Memcheck:Free
   fun:free
   fun:_ZN4adns18control_connectionD0Ev
   fun:_ZN4adns11thread_poolINS_18control_connectionEED1Ev
   fun:_ZN4adns14control_serverD1Ev
   fun:_ZN4adns14control_serverD0Ev
   fun:_ZNSt15_Sp_counted_ptrIPN4adns6serverELN9__gnu_cxx12_Lock_policyE2EE10_M_disposeEv
   fun:_ZNSt16_Sp_counted_baseILN9__gnu_cxx12_Lock_policyE2EE10_M_releaseEv
   fun:_ZNSt14__shared_countILN9__gnu_cxx12_Lock_policyE2EED1Ev
   fun:_ZNSt12__shared_ptrIN4adns6serverELN9__gnu_cxx12_Lock_policyE2EED1Ev
   fun:_ZNSt10shared_ptrIN4adns6serverEED1Ev
   fun:_ZN9__gnu_cxx13new_allocatorISt10_List_nodeISt10shared_ptrIN4adns6serverEEEE7destroyIS5_EEvPT_
   fun:_ZNSt16allocator_traitsISaISt10_List_nodeISt10shared_ptrIN4adns6serverEEEEE7destroyIS4_EEvRS6_PT_
}
{
   <insert_a_suppression_name_here>
   Memcheck:Free
   fun:free
   fun:_ZN9__gnu_cxx13new_allocatorISt10_List_nodeIPN4adns18control_connectionEEE10deallocateEPS5_m
   fun:_ZNSt16allocator_traitsISaISt10_List_nodeIPN4adns18control_connectionEEEE10deallocateERS5_PS4_m
   fun:_ZNSt7__cxx1110_List_baseIPN4adns18control_connectionESaIS3_EE11_M_put_nodeEPSt10_List_nodeIS3_E
   fun:_ZNSt7__cxx1110_List_baseIPN4adns18control_connectionESaIS3_EE8_M_clearEv
   fun:_ZNSt7__cxx1110_List_baseIPN4adns18control_connectionESaIS3_EED1Ev
   fun:_ZNSt7__cxx114listIPN4adns18control_connectionESaIS3_EED1Ev
   fun:_ZN4adns11thread_poolINS_18control_connectionEED1Ev
   fun:_ZN4adns14control_serverD1Ev
   fun:_ZN4adns14control_serverD0Ev
   fun:_ZNSt15_Sp_counted_ptrIPN4adns6serverELN9__gnu_cxx12_Lock_policyE2EE10_M_disposeEv
   fun:_ZNSt16_Sp_counted_baseILN9__gnu_cxx12_Lock_policyE2EE10_M_releaseEv
}
{
   <insert_a_suppression_name_here>
   Memcheck:Free
   fun:free
   fun:_ZN4adns14control_serverD0Ev
   fun:_ZNSt15_Sp_counted_ptrIPN4adns6serverELN9__gnu_cxx12_Lock_policyE2EE10_M_disposeEv
   fun:_ZNSt16_Sp_counted_baseILN9__gnu_cxx12_Lock_policyE2EE10_M_releaseEv
   fun:_ZNSt14__shared_countILN9__gnu_cxx12_Lock_policyE2EED1Ev
   fun:_ZNSt12__shared_ptrIN4adns6serverELN9__gnu_cxx12_Lock_policyE2EED1Ev
   fun:_ZNSt10shared_ptrIN4adns6serverEED1Ev
   fun:_ZN9__gnu_cxx13new_allocatorISt10_List_nodeISt10shared_ptrIN4adns6serverEEEE7destroyIS5_EEvPT_
   fun:_ZNSt16allocator_traitsISaISt10_List_nodeISt10shared_ptrIN4adns6serverEEEEE7destroyIS4_EEvRS6_PT_
   fun:_ZNSt7__cxx1110_List_baseISt10shared_ptrIN4adns6serverEESaIS4_EE8_M_clearEv
   fun:_ZNSt7__cxx1110_List_baseISt10shared_ptrIN4adns6serverEESaIS4_EED1Ev
   fun:_ZNSt7__cxx114listISt10shared_ptrIN4adns6serverEESaIS4_EED1Ev
}
{
   <insert_a_suppression_name_here>
   Memcheck:Free
   fun:free
   fun:_ZN5boost4asio6detail18signal_set_service5clearERNS2_19implementation_typeERNS_6system10error_codeE
   fun:_ZN5boost4asio6detail18signal_set_service7destroyERNS2_19implementation_typeE
   fun:_ZN5boost4asio6detail14io_object_implINS1_18signal_set_serviceENS0_8executorEED1Ev
   fun:_ZN5boost4asio16basic_signal_setINS0_8executorEED1Ev
   fun:_ZN4adns16server_containerD1Ev
   fun:_Z11run_serversv
   fun:main
}
{
   <insert_a_suppression_name_here>
   Memcheck:Free
   fun:free
   fun:_ZN9__gnu_cxx13new_allocatorIN5boost4asio8executor4implINS2_10io_context13executor_typeESaIvEEEE10deallocateEPS8_m
   fun:_ZN5boost4asio8executor4implINS0_10io_context13executor_typeESaIvEE7destroyEv
   fun:_ZN5boost4asio8executor7destroyEv
   fun:_ZN5boost4asio8executorD1Ev
   fun:_ZN5boost4asio6detail18io_object_executorINS0_8executorEED1Ev
   fun:_ZN5boost4asio6detail14io_object_implINS1_18signal_set_serviceENS0_8executorEED1Ev
   fun:_ZN5boost4asio16basic_signal_setINS0_8executorEED1Ev
   fun:_ZN4adns16server_containerD1Ev
   fun:_Z11run_serversv
   fun:main
}
{
   <insert_a_suppression_name_here>
   Memcheck:Free
   fun:free
   fun:_ZN5boost4asio6detail18signal_set_service12pipe_read_op11do_completeEPvPNS1_19scheduler_operationERKNS_6system10error_codeEm
   fun:_ZN5boost4asio6detail19scheduler_operation7destroyEv
   fun:_ZN5boost4asio6detail15op_queue_access7destroyINS1_19scheduler_operationEEEvPT_
   fun:_ZN5boost4asio6detail8op_queueINS1_19scheduler_operationEED1Ev
   fun:_ZN5boost4asio6detail13epoll_reactor30deregister_internal_descriptorEiRPNS2_16descriptor_stateE
   fun:_ZN5boost4asio6detail18signal_set_service14remove_serviceEPS2_
   fun:_ZN5boost4asio6detail18signal_set_service8shutdownEv
   fun:_ZN5boost4asio6detail16service_registry17shutdown_servicesEv
   fun:_ZN5boost4asio17execution_context8shutdownEv
   fun:_ZN5boost4asio17execution_contextD1Ev
   fun:_ZN5boost4asio10io_contextD1Ev
}
{
   <insert_a_suppression_name_here>
   Memcheck:Free
   fun:free
   fun:_ZN5boost4asio6detail18signal_set_serviceD0Ev
   fun:_ZN5boost4asio6detail16service_registry7destroyEPNS0_17execution_context7serviceE
   fun:_ZN5boost4asio6detail16service_registry16destroy_servicesEv
   fun:_ZN5boost4asio17execution_context7destroyEv
   fun:_ZN5boost4asio17execution_contextD1Ev
   fun:_ZN5boost4asio10io_contextD1Ev
   fun:_Z11run_serversv
   fun:main
}
{
   <insert_a_suppression_name_here>
   Memcheck:Free
   fun:free
   fun:_ZN5boost4asio6detail18object_pool_access7destroyINS1_13epoll_reactor16descriptor_stateEEEvPT_
   fun:_ZN5boost4asio6detail11object_poolINS1_13epoll_reactor16descriptor_stateEE12destroy_listEPS4_
   fun:_ZN5boost4asio6detail11object_poolINS1_13epoll_reactor16descriptor_stateEED1Ev
   fun:_ZN5boost4asio6detail13epoll_reactorD1Ev
   fun:_ZN5boost4asio6detail13epoll_reactorD0Ev
   fun:_ZN5boost4asio6detail16service_registry7destroyEPNS0_17execution_context7serviceE
   fun:_ZN5boost4asio6detail16service_registry16destroy_servicesEv
   fun:_ZN5boost4asio17execution_context7destroyEv
   fun:_ZN5boost4asio17execution_contextD1Ev
   fun:_ZN5boost4asio10io_contextD1Ev
   fun:_Z11run_serversv
}
{
   <insert_a_suppression_name_here>
   Memcheck:Free
   fun:free
   fun:_ZN5boost4asio6detail13epoll_reactorD0Ev
   fun:_ZN5boost4asio6detail16service_registry7destroyEPNS0_17execution_context7serviceE
   fun:_ZN5boost4asio6detail16service_registry16destroy_servicesEv
   fun:_ZN5boost4asio17execution_context7destroyEv
   fun:_ZN5boost4asio17execution_contextD1Ev
   fun:_ZN5boost4asio10io_contextD1Ev
   fun:_Z11run_serversv
   fun:main
}
{
   <insert_a_suppression_name_here>
   Memcheck:Free
   fun:free
   fun:_ZN5boost4asio6detail9schedulerD0Ev
   fun:_ZN5boost4asio6detail16service_registry7destroyEPNS0_17execution_context7serviceE
   fun:_ZN5boost4asio6detail16service_registry16destroy_servicesEv
   fun:_ZN5boost4asio17execution_context7destroyEv
   fun:_ZN5boost4asio17execution_contextD1Ev
   fun:_ZN5boost4asio10io_contextD1Ev
   fun:_Z11run_serversv
   fun:main
}
{
   <insert_a_suppression_name_here>
   Memcheck:Free
   fun:free
   fun:_ZN5boost4asio17execution_contextD1Ev
   fun:_ZN5boost4asio10io_contextD1Ev
   fun:_Z11run_serversv
   fun:main
}
{
   <insert_a_suppression_name_here>
   Memcheck:Free
   fun:free
   fun:_ZN4adns17dns_auth_resolverD0Ev
   fun:_ZNSt15_Sp_counted_ptrIPN4adns17dns_auth_resolverELN9__gnu_cxx12_Lock_policyE2EE10_M_disposeEv
   fun:_ZNSt16_Sp_counted_baseILN9__gnu_cxx12_Lock_policyE2EE10_M_releaseEv
   fun:_ZNSt14__shared_countILN9__gnu_cxx12_Lock_policyE2EED1Ev
   fun:_ZNSt12__shared_ptrIN4adns17dns_auth_resolverELN9__gnu_cxx12_Lock_policyE2EED1Ev
   fun:_ZNSt10shared_ptrIN4adns17dns_auth_resolverEED1Ev
   fun:__run_exit_handlers
   fun:exit
   fun:main
}
{
   <insert_a_suppression_name_here>
   Memcheck:Free
   fun:free
   fun:_ZNSt15_Sp_counted_ptrIPN4adns17dns_auth_resolverELN9__gnu_cxx12_Lock_policyE2EED0Ev
   fun:_ZNSt15_Sp_counted_ptrIPN4adns17dns_auth_resolverELN9__gnu_cxx12_Lock_policyE2EE10_M_destroyEv
   fun:_ZNSt16_Sp_counted_baseILN9__gnu_cxx12_Lock_policyE2EE10_M_releaseEv
   fun:_ZNSt14__shared_countILN9__gnu_cxx12_Lock_policyE2EED1Ev
   fun:_ZNSt12__shared_ptrIN4adns17dns_auth_resolverELN9__gnu_cxx12_Lock_policyE2EED1Ev
   fun:_ZNSt10shared_ptrIN4adns17dns_auth_resolverEED1Ev
   fun:__run_exit_handlers
   fun:exit
   fun:main
}
{
   <insert_a_suppression_name_here>
   Memcheck:Free
   fun:free
   fun:_ZN5boost6detail12set_tss_dataEPKvPFvPFvPvES3_ES5_S3_b
   obj:/usr/lib/x86_64-linux-gnu/libboost_log.so.1.71.0
   fun:__run_exit_handlers
   fun:exit
   fun:main
}
{
   <insert_a_suppression_name_here>
   Memcheck:Free
   fun:free
   obj:/usr/lib/x86_64-linux-gnu/libboost_thread.so.1.71.0
   fun:_ZN5boost6detail12set_tss_dataEPKvPFvPFvPvES3_ES5_S3_b
   obj:/usr/lib/x86_64-linux-gnu/libboost_log.so.1.71.0
   fun:__run_exit_handlers
   fun:exit
   fun:main
}
{
   <insert_a_suppression_name_here>
   Memcheck:Free
   fun:free
   obj:/usr/lib/x86_64-linux-gnu/libboost_log.so.1.71.0
   fun:__run_exit_handlers
   fun:exit
   fun:main
}
{
   <insert_a_suppression_name_here>
   Memcheck:Free
   fun:free
   obj:/usr/lib/x86_64-linux-gnu/libboost_log.so.1.71.0
   fun:__run_exit_handlers
   fun:exit
   fun:main
}
{
   <insert_a_suppression_name_here>
   Memcheck:Free
   fun:free
   fun:__run_exit_handlers
   fun:exit
   fun:main
}
{
   <insert_a_suppression_name_here>
   Memcheck:Free
   fun:free
   obj:/usr/lib/x86_64-linux-gnu/libboost_log.so.1.71.0
   fun:__run_exit_handlers
   fun:exit
   fun:main
}
{
   <insert_a_suppression_name_here>
   Memcheck:Free
   fun:free
   obj:/usr/lib/x86_64-linux-gnu/libboost_log.so.1.71.0
   obj:/usr/lib/x86_64-linux-gnu/libboost_log.so.1.71.0
   fun:__run_exit_handlers
   fun:exit
   fun:main
}
{
   <insert_a_suppression_name_here>
   Memcheck:Free
   fun:free
   fun:_ZN5boost3log11v2_mt_posix13attribute_setD1Ev
   obj:/usr/lib/x86_64-linux-gnu/libboost_log.so.1.71.0
   fun:__run_exit_handlers
   fun:exit
   fun:main
}
{
   <insert_a_suppression_name_here>
   Memcheck:Free
   fun:free
   obj:/usr/lib/x86_64-linux-gnu/libboost_log.so.1.71.0
   fun:__run_exit_handlers
   fun:exit
   fun:main
}
{
   <insert_a_suppression_name_here>
   Memcheck:Free
   fun:free
   obj:/usr/lib/x86_64-linux-gnu/libboost_thread.so.1.71.0
   fun:_ZN5boost6detail12set_tss_dataEPKvPFvPFvPvES3_ES5_S3_b
   obj:/usr/lib/x86_64-linux-gnu/libboost_log.so.1.71.0
   obj:/usr/lib/x86_64-linux-gnu/libboost_log.so.1.71.0
   fun:__run_exit_handlers
   fun:exit
   fun:main
}
{
   <insert_a_suppression_name_here>
   Memcheck:Free
   fun:free
   obj:/usr/lib/x86_64-linux-gnu/libboost_log.so.1.71.0
   obj:/usr/lib/x86_64-linux-gnu/libboost_log.so.1.71.0
   fun:__run_exit_handlers
   fun:exit
   fun:main
}
{
   <insert_a_suppression_name_here>
   Memcheck:Free
   fun:free
   obj:/usr/lib/x86_64-linux-gnu/libboost_log.so.1.71.0
   obj:/usr/lib/x86_64-linux-gnu/libboost_log.so.1.71.0
   fun:__run_exit_handlers
   fun:exit
   fun:main
}
{
   <insert_a_suppression_name_here>
   Memcheck:Free
   fun:free
   obj:/usr/lib/x86_64-linux-gnu/libboost_log.so.1.71.0
   obj:/usr/lib/x86_64-linux-gnu/libboost_log.so.1.71.0
   fun:__run_exit_handlers
   fun:exit
   fun:main
}
{
   <insert_a_suppression_name_here>
   Memcheck:Free
   fun:free
   obj:/usr/lib/x86_64-linux-gnu/libboost_log.so.1.71.0
   fun:__run_exit_handlers
   fun:exit
   fun:main
}
{
   <insert_a_suppression_name_here>
   Memcheck:Free
   fun:free
   obj:/usr/lib/x86_64-linux-gnu/libboost_log.so.1.71.0
   fun:__run_exit_handlers
   fun:exit
   fun:main
}
{
   <insert_a_suppression_name_here>
   Memcheck:Free
   fun:free
   fun:_ZNSt4pairIKNSt7__cxx1112basic_stringIcSt11char_traitsIcESaIcEEES5_ED1Ev
   fun:_ZN9__gnu_cxx13new_allocatorISt13_Rb_tree_nodeISt4pairIKNSt7__cxx1112basic_stringIcSt11char_traitsIcESaIcEEES8_EEE7destroyISA_EEvPT_
   fun:_ZNSt16allocator_traitsISaISt13_Rb_tree_nodeISt4pairIKNSt7__cxx1112basic_stringIcSt11char_traitsIcESaIcEEES7_EEEE7destroyIS9_EEvRSB_PT_
   fun:_ZNSt8_Rb_treeINSt7__cxx1112basic_stringIcSt11char_traitsIcESaIcEEESt4pairIKS5_S5_ESt10_Select1stIS8_ESt4lessIS5_ESaIS8_EE15_M_destroy_nodeEPSt13_Rb_tree_nodeIS8_E
   fun:_ZNSt8_Rb_treeINSt7__cxx1112basic_stringIcSt11char_traitsIcESaIcEEESt4pairIKS5_S5_ESt10_Select1stIS8_ESt4lessIS5_ESaIS8_EE12_M_drop_nodeEPSt13_Rb_tree_nodeIS8_E
   fun:_ZNSt8_Rb_treeINSt7__cxx1112basic_stringIcSt11char_traitsIcESaIcEEESt4pairIKS5_S5_ESt10_Select1stIS8_ESt4lessIS5_ESaIS8_EE8_M_eraseEPSt13_Rb_tree_nodeIS8_E
   fun:_ZNSt8_Rb_treeINSt7__cxx1112basic_stringIcSt11char_traitsIcESaIcEEESt4pairIKS5_S5_ESt10_Select1stIS8_ESt4lessIS5_ESaIS8_EE8_M_eraseEPSt13_Rb_tree_nodeIS8_E
   fun:_ZNSt8_Rb_treeINSt7__cxx1112basic_stringIcSt11char_traitsIcESaIcEEESt4pairIKS5_S5_ESt10_Select1stIS8_ESt4lessIS5_ESaIS8_EE8_M_eraseEPSt13_Rb_tree_nodeIS8_E
   fun:_ZNSt8_Rb_treeINSt7__cxx1112basic_stringIcSt11char_traitsIcESaIcEEESt4pairIKS5_S5_ESt10_Select1stIS8_ESt4lessIS5_ESaIS8_EED1Ev
   fun:_ZNSt3mapINSt7__cxx1112basic_stringIcSt11char_traitsIcESaIcEEES5_St4lessIS5_ESaISt4pairIKS5_S5_EEED1Ev
   fun:_ZN4adns13config_readerD1Ev
}
{
   <insert_a_suppression_name_here>
   Memcheck:Free
   fun:free
   fun:_ZN9__gnu_cxx13new_allocatorISt13_Rb_tree_nodeISt4pairIKNSt7__cxx1112basic_stringIcSt11char_traitsIcESaIcEEES8_EEE10deallocateEPSB_m
   fun:_ZNSt16allocator_traitsISaISt13_Rb_tree_nodeISt4pairIKNSt7__cxx1112basic_stringIcSt11char_traitsIcESaIcEEES7_EEEE10deallocateERSB_PSA_m
   fun:_ZNSt8_Rb_treeINSt7__cxx1112basic_stringIcSt11char_traitsIcESaIcEEESt4pairIKS5_S5_ESt10_Select1stIS8_ESt4lessIS5_ESaIS8_EE11_M_put_nodeEPSt13_Rb_tree_nodeIS8_E
   fun:_ZNSt8_Rb_treeINSt7__cxx1112basic_stringIcSt11char_traitsIcESaIcEEESt4pairIKS5_S5_ESt10_Select1stIS8_ESt4lessIS5_ESaIS8_EE12_M_drop_nodeEPSt13_Rb_tree_nodeIS8_E
   fun:_ZNSt8_Rb_treeINSt7__cxx1112basic_stringIcSt11char_traitsIcESaIcEEESt4pairIKS5_S5_ESt10_Select1stIS8_ESt4lessIS5_ESaIS8_EE8_M_eraseEPSt13_Rb_tree_nodeIS8_E
   fun:_ZNSt8_Rb_treeINSt7__cxx1112basic_stringIcSt11char_traitsIcESaIcEEESt4pairIKS5_S5_ESt10_Select1stIS8_ESt4lessIS5_ESaIS8_EE8_M_eraseEPSt13_Rb_tree_nodeIS8_E
   fun:_ZNSt8_Rb_treeINSt7__cxx1112basic_stringIcSt11char_traitsIcESaIcEEESt4pairIKS5_S5_ESt10_Select1stIS8_ESt4lessIS5_ESaIS8_EE8_M_eraseEPSt13_Rb_tree_nodeIS8_E
   fun:_ZNSt8_Rb_treeINSt7__cxx1112basic_stringIcSt11char_traitsIcESaIcEEESt4pairIKS5_S5_ESt10_Select1stIS8_ESt4lessIS5_ESaIS8_EED1Ev
   fun:_ZNSt3mapINSt7__cxx1112basic_stringIcSt11char_traitsIcESaIcEEES5_St4lessIS5_ESaISt4pairIKS5_S5_EEED1Ev
   fun:_ZN4adns13config_readerD1Ev
   fun:__run_exit_handlers
}
{
   <insert_a_suppression_name_here>
   Memcheck:Free
   fun:free
   fun:_ZN9__gnu_cxx13new_allocatorINSt8__detail10_Hash_nodeISt4pairIKN4adns8dns_nameESt10shared_ptrINS4_26dns_recursive_cache_answerEEELb1EEEE10deallocateEPSB_m
   fun:_ZNSt16allocator_traitsISaINSt8__detail10_Hash_nodeISt4pairIKN4adns8dns_nameESt10shared_ptrINS3_26dns_recursive_cache_answerEEELb1EEEEE10deallocateERSB_PSA_m
   fun:_ZNSt8__detail16_Hashtable_allocISaINS_10_Hash_nodeISt4pairIKN4adns8dns_nameESt10shared_ptrINS3_26dns_recursive_cache_answerEEELb1EEEEE22_M_deallocate_node_ptrEPSA_
   fun:_ZNSt8__detail16_Hashtable_allocISaINS_10_Hash_nodeISt4pairIKN4adns8dns_nameESt10shared_ptrINS3_26dns_recursive_cache_answerEEELb1EEEEE18_M_deallocate_nodeEPSA_
   fun:_ZNSt8__detail16_Hashtable_allocISaINS_10_Hash_nodeISt4pairIKN4adns8dns_nameESt10shared_ptrINS3_26dns_recursive_cache_answerEEELb1EEEEE19_M_deallocate_nodesEPSA_
   fun:_ZNSt10_HashtableIN4adns8dns_nameESt4pairIKS1_St10shared_ptrINS0_26dns_recursive_cache_answerEEESaIS7_ENSt8__detail10_Select1stESt8equal_toIS1_ESt4hashIS1_ENS9_18_Mod_range_hashingENS9_20_Default_ranged_hashENS9_20_Prime_rehash_policyENS9_17_Hashtable_traitsILb1ELb0ELb1EEEE5clearEv
   fun:_ZNSt10_HashtableIN4adns8dns_nameESt4pairIKS1_St10shared_ptrINS0_26dns_recursive_cache_answerEEESaIS7_ENSt8__detail10_Select1stESt8equal_toIS1_ESt4hashIS1_ENS9_18_Mod_range_hashingENS9_20_Default_ranged_hashENS9_20_Prime_rehash_policyENS9_17_Hashtable_traitsILb1ELb0ELb1EEEED1Ev
   fun:_ZNSt13unordered_mapIN4adns8dns_nameESt10shared_ptrINS0_26dns_recursive_cache_answerEESt4hashIS1_ESt8equal_toIS1_ESaISt4pairIKS1_S4_EEED1Ev
   fun:_ZN4adns19dns_recursive_cacheD1Ev
   fun:_ZN4adns19dns_recursive_cacheD0Ev
   fun:_ZNSt15_Sp_counted_ptrIPN4adns19dns_recursive_cacheELN9__gnu_cxx12_Lock_policyE2EE10_M_disposeEv
}
{
   <insert_a_suppression_name_here>
   Memcheck:Free
   fun:free
   fun:_ZN4adns19dns_recursive_cacheD0Ev
   fun:_ZNSt15_Sp_counted_ptrIPN4adns19dns_recursive_cacheELN9__gnu_cxx12_Lock_policyE2EE10_M_disposeEv
   fun:_ZNSt16_Sp_counted_baseILN9__gnu_cxx12_Lock_policyE2EE10_M_releaseEv
   fun:_ZNSt14__shared_countILN9__gnu_cxx12_Lock_policyE2EED1Ev
   fun:_ZNSt12__shared_ptrIN4adns19dns_recursive_cacheELN9__gnu_cxx12_Lock_policyE2EED1Ev
   fun:_ZNSt10shared_ptrIN4adns19dns_recursive_cacheEED1Ev
   fun:__run_exit_handlers
   fun:exit
   fun:main
}
{
   <insert_a_suppression_name_here>
   Memcheck:Free
   fun:free
   fun:_ZNSt15_Sp_counted_ptrIPN4adns19dns_recursive_cacheELN9__gnu_cxx12_Lock_policyE2EED0Ev
   fun:_ZNSt15_Sp_counted_ptrIPN4adns19dns_recursive_cacheELN9__gnu_cxx12_Lock_policyE2EE10_M_destroyEv
   fun:_ZNSt16_Sp_counted_baseILN9__gnu_cxx12_Lock_policyE2EE10_M_releaseEv
   fun:_ZNSt14__shared_countILN9__gnu_cxx12_Lock_policyE2EED1Ev
   fun:_ZNSt12__shared_ptrIN4adns19dns_recursive_cacheELN9__gnu_cxx12_Lock_policyE2EED1Ev
   fun:_ZNSt10shared_ptrIN4adns19dns_recursive_cacheEED1Ev
   fun:__run_exit_handlers
   fun:exit
   fun:main
}
{
   <insert_a_suppression_name_here>
   Memcheck:Free
   fun:free
   fun:_ZN9__gnu_cxx13new_allocatorISt13_Rb_tree_nodeISt4pairIKN4adns10ip_addressENSt6chrono10time_pointINS6_3_V212steady_clockENS6_8durationIlSt5ratioILl1ELl1000000000EEEEEEEEE10deallocateEPSG_m
   fun:_ZNSt16allocator_traitsISaISt13_Rb_tree_nodeISt4pairIKN4adns10ip_addressENSt6chrono10time_pointINS5_3_V212steady_clockENS5_8durationIlSt5ratioILl1ELl1000000000EEEEEEEEEE10deallocateERSG_PSF_m
   fun:_ZNSt8_Rb_treeIN4adns10ip_addressESt4pairIKS1_NSt6chrono10time_pointINS4_3_V212steady_clockENS4_8durationIlSt5ratioILl1ELl1000000000EEEEEEESt10_Select1stISD_ESt4lessIS1_ESaISD_EE11_M_put_nodeEPSt13_Rb_tree_nodeISD_E
   fun:_ZNSt8_Rb_treeIN4adns10ip_addressESt4pairIKS1_NSt6chrono10time_pointINS4_3_V212steady_clockENS4_8durationIlSt5ratioILl1ELl1000000000EEEEEEESt10_Select1stISD_ESt4lessIS1_ESaISD_EE12_M_drop_nodeEPSt13_Rb_tree_nodeISD_E
   fun:_ZNSt8_Rb_treeIN4adns10ip_addressESt4pairIKS1_NSt6chrono10time_pointINS4_3_V212steady_clockENS4_8durationIlSt5ratioILl1ELl1000000000EEEEEEESt10_Select1stISD_ESt4lessIS1_ESaISD_EE8_M_eraseEPSt13_Rb_tree_nodeISD_E
   fun:_ZNSt8_Rb_treeIN4adns10ip_addressESt4pairIKS1_NSt6chrono10time_pointINS4_3_V212steady_clockENS4_8durationIlSt5ratioILl1ELl1000000000EEEEEEESt10_Select1stISD_ESt4lessIS1_ESaISD_EE8_M_eraseEPSt13_Rb_tree_nodeISD_E
   fun:_ZNSt8_Rb_treeIN4adns10ip_addressESt4pairIKS1_NSt6chrono10time_pointINS4_3_V212steady_clockENS4_8durationIlSt5ratioILl1ELl1000000000EEEEEEESt10_Select1stISD_ESt4lessIS1_ESaISD_EED1Ev
   fun:_ZNSt3mapIN4adns10ip_addressENSt6chrono10time_pointINS2_3_V212steady_clockENS2_8durationIlSt5ratioILl1ELl1000000000EEEEEESt4lessIS1_ESaISt4pairIKS1_SA_EEED1Ev
   fun:__run_exit_handlers
   fun:exit
   fun:main
}
{
   <insert_a_suppression_name_here>
   Memcheck:Free
   fun:free
   fun:_ZN9__gnu_cxx13new_allocatorISt23_Sp_counted_ptr_inplaceIN4adns2db10connectionESaIS4_ELNS_12_Lock_policyE2EEE10deallocateEPS7_m
   fun:_ZNSt16allocator_traitsISaISt23_Sp_counted_ptr_inplaceIN4adns2db10connectionESaIS3_ELN9__gnu_cxx12_Lock_policyE2EEEE10deallocateERS8_PS7_m
   fun:_ZNSt15__allocated_ptrISaISt23_Sp_counted_ptr_inplaceIN4adns2db10connectionESaIS3_ELN9__gnu_cxx12_Lock_policyE2EEEED1Ev
   fun:_ZNSt23_Sp_counted_ptr_inplaceIN4adns2db10connectionESaIS2_ELN9__gnu_cxx12_Lock_policyE2EE10_M_destroyEv
   fun:_ZNSt16_Sp_counted_baseILN9__gnu_cxx12_Lock_policyE2EE10_M_releaseEv
   fun:_ZNSt14__shared_countILN9__gnu_cxx12_Lock_policyE2EED1Ev
   fun:_ZNSt12__shared_ptrIN4adns2db10connectionELN9__gnu_cxx12_Lock_policyE2EED1Ev
   fun:_ZNSt10shared_ptrIN4adns2db10connectionEED1Ev
   fun:_ZN4adns2db15connection_pool12connection_tD1Ev
   fun:_ZN9__gnu_cxx13new_allocatorISt10_List_nodeIN4adns2db15connection_pool12connection_tEEE7destroyIS5_EEvPT_
   fun:_ZNSt16allocator_traitsISaISt10_List_nodeIN4adns2db15connection_pool12connection_tEEEE7destroyIS4_EEvRS6_PT_
}
{
   <insert_a_suppression_name_here>
   Memcheck:Free
   fun:free
   fun:_ZN9__gnu_cxx13new_allocatorISt23_Sp_counted_ptr_inplaceIN4adns12dns_rr_cacheESaIS3_ELNS_12_Lock_policyE2EEE10deallocateEPS6_m
   fun:_ZNSt16allocator_traitsISaISt23_Sp_counted_ptr_inplaceIN4adns12dns_rr_cacheESaIS2_ELN9__gnu_cxx12_Lock_policyE2EEEE10deallocateERS7_PS6_m
   fun:_ZNSt15__allocated_ptrISaISt23_Sp_counted_ptr_inplaceIN4adns12dns_rr_cacheESaIS2_ELN9__gnu_cxx12_Lock_policyE2EEEED1Ev
   fun:_ZNSt23_Sp_counted_ptr_inplaceIN4adns12dns_rr_cacheESaIS1_ELN9__gnu_cxx12_Lock_policyE2EE10_M_destroyEv
   fun:_ZNSt16_Sp_counted_baseILN9__gnu_cxx12_Lock_policyE2EE10_M_releaseEv
   fun:_ZNSt14__shared_countILN9__gnu_cxx12_Lock_policyE2EED1Ev
   fun:_ZNSt12__shared_ptrIN4adns12dns_rr_cacheELN9__gnu_cxx12_Lock_policyE2EED1Ev
   fun:_ZNSt10shared_ptrIN4adns12dns_rr_cacheEED1Ev
   fun:__run_exit_handlers
   fun:exit
   fun:main
}
{
   <insert_a_suppression_name_here>
   Memcheck:Free
   fun:free
   fun:_ZN9__gnu_cxx13new_allocatorISt23_Sp_counted_ptr_inplaceIN4adns14dns_zone_cacheESaIS3_ELNS_12_Lock_policyE2EEE10deallocateEPS6_m
   fun:_ZNSt16allocator_traitsISaISt23_Sp_counted_ptr_inplaceIN4adns14dns_zone_cacheESaIS2_ELN9__gnu_cxx12_Lock_policyE2EEEE10deallocateERS7_PS6_m
   fun:_ZNSt15__allocated_ptrISaISt23_Sp_counted_ptr_inplaceIN4adns14dns_zone_cacheESaIS2_ELN9__gnu_cxx12_Lock_policyE2EEEED1Ev
   fun:_ZNSt23_Sp_counted_ptr_inplaceIN4adns14dns_zone_cacheESaIS1_ELN9__gnu_cxx12_Lock_policyE2EE10_M_destroyEv
   fun:_ZNSt16_Sp_counted_baseILN9__gnu_cxx12_Lock_policyE2EE10_M_releaseEv
   fun:_ZNSt14__shared_countILN9__gnu_cxx12_Lock_policyE2EED1Ev
   fun:_ZNSt12__shared_ptrIN4adns14dns_zone_cacheELN9__gnu_cxx12_Lock_policyE2EED1Ev
   fun:_ZNSt10shared_ptrIN4adns14dns_zone_cacheEED1Ev
   fun:_ZNSt4pairIKjSt10shared_ptrIN4adns14dns_zone_cacheEEED1Ev
   fun:_ZN9__gnu_cxx13new_allocatorISt13_Rb_tree_nodeISt4pairIKjSt10shared_ptrIN4adns14dns_zone_cacheEEEEE7destroyIS8_EEvPT_
   fun:_ZNSt16allocator_traitsISaISt13_Rb_tree_nodeISt4pairIKjSt10shared_ptrIN4adns14dns_zone_cacheEEEEEE7destroyIS7_EEvRS9_PT_
}
{
   <insert_a_suppression_name_here>
   Memcheck:Free
   fun:free
   fun:_ZN9__gnu_cxx13new_allocatorISt13_Rb_tree_nodeISt4pairIKjSt10shared_ptrIN4adns14dns_zone_cacheEEEEE10deallocateEPS9_m
   fun:_ZNSt16allocator_traitsISaISt13_Rb_tree_nodeISt4pairIKjSt10shared_ptrIN4adns14dns_zone_cacheEEEEEE10deallocateERS9_PS8_m
   fun:_ZNSt8_Rb_treeIjSt4pairIKjSt10shared_ptrIN4adns14dns_zone_cacheEEESt10_Select1stIS6_ESt4lessIjESaIS6_EE11_M_put_nodeEPSt13_Rb_tree_nodeIS6_E
   fun:_ZNSt8_Rb_treeIjSt4pairIKjSt10shared_ptrIN4adns14dns_zone_cacheEEESt10_Select1stIS6_ESt4lessIjESaIS6_EE12_M_drop_nodeEPSt13_Rb_tree_nodeIS6_E
   fun:_ZNSt8_Rb_treeIjSt4pairIKjSt10shared_ptrIN4adns14dns_zone_cacheEEESt10_Select1stIS6_ESt4lessIjESaIS6_EE8_M_eraseEPSt13_Rb_tree_nodeIS6_E
   fun:_ZNSt8_Rb_treeIjSt4pairIKjSt10shared_ptrIN4adns14dns_zone_cacheEEESt10_Select1stIS6_ESt4lessIjESaIS6_EED1Ev
   fun:_ZNSt3mapIjSt10shared_ptrIN4adns14dns_zone_cacheEESt4lessIjESaISt4pairIKjS3_EEED1Ev
   fun:__run_exit_handlers
   fun:exit
   fun:main
}
{
   <insert_a_suppression_name_here>
   Memcheck:Free
   fun:free
   fun:_ZN9__gnu_cxx13new_allocatorINSt8__detail10_Hash_nodeISt4pairIKNSt7__cxx1112basic_stringIcSt11char_traitsIcESaIcEEEtELb1EEEE10deallocateEPSC_m
   fun:_ZNSt16allocator_traitsISaINSt8__detail10_Hash_nodeISt4pairIKNSt7__cxx1112basic_stringIcSt11char_traitsIcESaIcEEEtELb1EEEEE10deallocateERSC_PSB_m
   fun:_ZNSt8__detail16_Hashtable_allocISaINS_10_Hash_nodeISt4pairIKNSt7__cxx1112basic_stringIcSt11char_traitsIcESaIcEEEtELb1EEEEE22_M_deallocate_node_ptrEPSB_
   fun:_ZNSt8__detail16_Hashtable_allocISaINS_10_Hash_nodeISt4pairIKNSt7__cxx1112basic_stringIcSt11char_traitsIcESaIcEEEtELb1EEEEE18_M_deallocate_nodeEPSB_
   fun:_ZNSt8__detail16_Hashtable_allocISaINS_10_Hash_nodeISt4pairIKNSt7__cxx1112basic_stringIcSt11char_traitsIcESaIcEEEtELb1EEEEE19_M_deallocate_nodesEPSB_
   fun:_ZNSt10_HashtableINSt7__cxx1112basic_stringIcSt11char_traitsIcESaIcEEESt4pairIKS5_tESaIS8_ENSt8__detail10_Select1stESt8equal_toIS5_ESt4hashIS5_ENSA_18_Mod_range_hashingENSA_20_Default_ranged_hashENSA_20_Prime_rehash_policyENSA_17_Hashtable_traitsILb1ELb0ELb1EEEE5clearEv
   fun:_ZNSt10_HashtableINSt7__cxx1112basic_stringIcSt11char_traitsIcESaIcEEESt4pairIKS5_tESaIS8_ENSt8__detail10_Select1stESt8equal_toIS5_ESt4hashIS5_ENSA_18_Mod_range_hashingENSA_20_Default_ranged_hashENSA_20_Prime_rehash_policyENSA_17_Hashtable_traitsILb1ELb0ELb1EEEED1Ev
   fun:_ZNSt13unordered_mapINSt7__cxx1112basic_stringIcSt11char_traitsIcESaIcEEEtSt4hashIS5_ESt8equal_toIS5_ESaISt4pairIKS5_tEEED1Ev
   fun:__run_exit_handlers
   fun:exit
   fun:main
}
{
   <insert_a_suppression_name_here>
   Memcheck:Free
   fun:free
   fun:_ZN9__gnu_cxx13new_allocatorINSt8__detail10_Hash_nodeISt4pairIKtNSt7__cxx1112basic_stringIcSt11char_traitsIcESaIcEEEELb0EEEE10deallocateEPSC_m
   fun:_ZNSt16allocator_traitsISaINSt8__detail10_Hash_nodeISt4pairIKtNSt7__cxx1112basic_stringIcSt11char_traitsIcESaIcEEEELb0EEEEE10deallocateERSC_PSB_m
   fun:_ZNSt8__detail16_Hashtable_allocISaINS_10_Hash_nodeISt4pairIKtNSt7__cxx1112basic_stringIcSt11char_traitsIcESaIcEEEELb0EEEEE22_M_deallocate_node_ptrEPSB_
   fun:_ZNSt8__detail16_Hashtable_allocISaINS_10_Hash_nodeISt4pairIKtNSt7__cxx1112basic_stringIcSt11char_traitsIcESaIcEEEELb0EEEEE18_M_deallocate_nodeEPSB_
   fun:_ZNSt8__detail16_Hashtable_allocISaINS_10_Hash_nodeISt4pairIKtNSt7__cxx1112basic_stringIcSt11char_traitsIcESaIcEEEELb0EEEEE19_M_deallocate_nodesEPSB_
   fun:_ZNSt10_HashtableItSt4pairIKtNSt7__cxx1112basic_stringIcSt11char_traitsIcESaIcEEEESaIS8_ENSt8__detail10_Select1stESt8equal_toItESt4hashItENSA_18_Mod_range_hashingENSA_20_Default_ranged_hashENSA_20_Prime_rehash_policyENSA_17_Hashtable_traitsILb0ELb0ELb1EEEE5clearEv
   fun:_ZNSt10_HashtableItSt4pairIKtNSt7__cxx1112basic_stringIcSt11char_traitsIcESaIcEEEESaIS8_ENSt8__detail10_Select1stESt8equal_toItESt4hashItENSA_18_Mod_range_hashingENSA_20_Default_ranged_hashENSA_20_Prime_rehash_policyENSA_17_Hashtable_traitsILb0ELb0ELb1EEEED1Ev
   fun:_ZNSt13unordered_mapItNSt7__cxx1112basic_stringIcSt11char_traitsIcESaIcEEESt4hashItESt8equal_toItESaISt4pairIKtS5_EEED1Ev
   fun:__run_exit_handlers
   fun:exit
   fun:main
}
{
   <insert_a_suppression_name_here>
   Memcheck:Free
   fun:free
   fun:_ZN9__gnu_cxx13new_allocatorISt13_Rb_tree_nodeISt4pairIKN4adns13http_response8status_tENSt7__cxx1112basic_stringIcSt11char_traitsIcESaIcEEEEEE10deallocateEPSE_m
   fun:_ZNSt16allocator_traitsISaISt13_Rb_tree_nodeISt4pairIKN4adns13http_response8status_tENSt7__cxx1112basic_stringIcSt11char_traitsIcESaIcEEEEEEE10deallocateERSE_PSD_m
   fun:_ZNSt8_Rb_treeIN4adns13http_response8status_tESt4pairIKS2_NSt7__cxx1112basic_stringIcSt11char_traitsIcESaIcEEEESt10_Select1stISB_ESt4lessIS2_ESaISB_EE11_M_put_nodeEPSt13_Rb_tree_nodeISB_E
   fun:_ZNSt8_Rb_treeIN4adns13http_response8status_tESt4pairIKS2_NSt7__cxx1112basic_stringIcSt11char_traitsIcESaIcEEEESt10_Select1stISB_ESt4lessIS2_ESaISB_EE12_M_drop_nodeEPSt13_Rb_tree_nodeISB_E
   fun:_ZNSt8_Rb_treeIN4adns13http_response8status_tESt4pairIKS2_NSt7__cxx1112basic_stringIcSt11char_traitsIcESaIcEEEESt10_Select1stISB_ESt4lessIS2_ESaISB_EE8_M_eraseEPSt13_Rb_tree_nodeISB_E
   fun:_ZNSt8_Rb_treeIN4adns13http_response8status_tESt4pairIKS2_NSt7__cxx1112basic_stringIcSt11char_traitsIcESaIcEEEESt10_Select1stISB_ESt4lessIS2_ESaISB_EE8_M_eraseEPSt13_Rb_tree_nodeISB_E
   fun:_ZNSt8_Rb_treeIN4adns13http_response8status_tESt4pairIKS2_NSt7__cxx1112basic_stringIcSt11char_traitsIcESaIcEEEESt10_Select1stISB_ESt4lessIS2_ESaISB_EE8_M_eraseEPSt13_Rb_tree_nodeISB_E
   fun:_ZNSt8_Rb_treeIN4adns13http_response8status_tESt4pairIKS2_NSt7__cxx1112basic_stringIcSt11char_traitsIcESaIcEEEESt10_Select1stISB_ESt4lessIS2_ESaISB_EE8_M_eraseEPSt13_Rb_tree_nodeISB_E
   fun:_ZNSt8_Rb_treeIN4adns13http_response8status_tESt4pairIKS2_NSt7__cxx1112basic_stringIcSt11char_traitsIcESaIcEEEESt10_Select1stISB_ESt4lessIS2_ESaISB_EED1Ev
   fun:_ZNSt3mapIN4adns13http_response8status_tENSt7__cxx1112basic_stringIcSt11char_traitsIcESaIcEEESt4lessIS2_ESaISt4pairIKS2_S8_EEED1Ev
   fun:__run_exit_handlers
}
{
   <insert_a_suppression_name_here>
   Memcheck:Free
   fun:free
   fun:_ZNSt4pairIKN4adns13http_response8status_tENSt7__cxx1112basic_stringIcSt11char_traitsIcESaIcEEEED1Ev
   fun:_ZN9__gnu_cxx13new_allocatorISt13_Rb_tree_nodeISt4pairIKN4adns13http_response8status_tENSt7__cxx1112basic_stringIcSt11char_traitsIcESaIcEEEEEE7destroyISD_EEvPT_
   fun:_ZNSt16allocator_traitsISaISt13_Rb_tree_nodeISt4pairIKN4adns13http_response8status_tENSt7__cxx1112basic_stringIcSt11char_traitsIcESaIcEEEEEEE7destroyISC_EEvRSE_PT_
   fun:_ZNSt8_Rb_treeIN4adns13http_response8status_tESt4pairIKS2_NSt7__cxx1112basic_stringIcSt11char_traitsIcESaIcEEEESt10_Select1stISB_ESt4lessIS2_ESaISB_EE15_M_destroy_nodeEPSt13_Rb_tree_nodeISB_E
   fun:_ZNSt8_Rb_treeIN4adns13http_response8status_tESt4pairIKS2_NSt7__cxx1112basic_stringIcSt11char_traitsIcESaIcEEEESt10_Select1stISB_ESt4lessIS2_ESaISB_EE12_M_drop_nodeEPSt13_Rb_tree_nodeISB_E
   fun:_ZNSt8_Rb_treeIN4adns13http_response8status_tESt4pairIKS2_NSt7__cxx1112basic_stringIcSt11char_traitsIcESaIcEEEESt10_Select1stISB_ESt4lessIS2_ESaISB_EE8_M_eraseEPSt13_Rb_tree_nodeISB_E
   fun:_ZNSt8_Rb_treeIN4adns13http_response8status_tESt4pairIKS2_NSt7__cxx1112basic_stringIcSt11char_traitsIcESaIcEEEESt10_Select1stISB_ESt4lessIS2_ESaISB_EE8_M_eraseEPSt13_Rb_tree_nodeISB_E
   fun:_ZNSt8_Rb_treeIN4adns13http_response8status_tESt4pairIKS2_NSt7__cxx1112basic_stringIcSt11char_traitsIcESaIcEEEESt10_Select1stISB_ESt4lessIS2_ESaISB_EE8_M_eraseEPSt13_Rb_tree_nodeISB_E
   fun:_ZNSt8_Rb_treeIN4adns13http_response8status_tESt4pairIKS2_NSt7__cxx1112basic_stringIcSt11char_traitsIcESaIcEEEESt10_Select1stISB_ESt4lessIS2_ESaISB_EED1Ev
   fun:_ZNSt3mapIN4adns13http_response8status_tENSt7__cxx1112basic_stringIcSt11char_traitsIcESaIcEEESt4lessIS2_ESaISt4pairIKS2_S8_EEED1Ev
   fun:__run_exit_handlers
}
{
   <insert_a_suppression_name_here>
   Memcheck:Free
   fun:free
   fun:_ZN9__gnu_cxx13new_allocatorISt23_Sp_counted_ptr_inplaceIN4adns11dns_horizonESaIS3_ELNS_12_Lock_policyE2EEE10deallocateEPS6_m
   fun:_ZNSt16allocator_traitsISaISt23_Sp_counted_ptr_inplaceIN4adns11dns_horizonESaIS2_ELN9__gnu_cxx12_Lock_policyE2EEEE10deallocateERS7_PS6_m
   fun:_ZNSt15__allocated_ptrISaISt23_Sp_counted_ptr_inplaceIN4adns11dns_horizonESaIS2_ELN9__gnu_cxx12_Lock_policyE2EEEED1Ev
   fun:_ZNSt23_Sp_counted_ptr_inplaceIN4adns11dns_horizonESaIS1_ELN9__gnu_cxx12_Lock_policyE2EE10_M_destroyEv
   fun:_ZNSt16_Sp_counted_baseILN9__gnu_cxx12_Lock_policyE2EE10_M_releaseEv
   fun:_ZNSt14__shared_countILN9__gnu_cxx12_Lock_policyE2EED1Ev
   fun:_ZNSt12__shared_ptrIN4adns11dns_horizonELN9__gnu_cxx12_Lock_policyE2EED1Ev
   fun:_ZNSt10shared_ptrIN4adns11dns_horizonEED1Ev
   fun:_ZNSt4pairIKjSt10shared_ptrIN4adns11dns_horizonEEED1Ev
   fun:_ZN9__gnu_cxx13new_allocatorISt13_Rb_tree_nodeISt4pairIKjSt10shared_ptrIN4adns11dns_horizonEEEEE7destroyIS8_EEvPT_
   fun:_ZNSt16allocator_traitsISaISt13_Rb_tree_nodeISt4pairIKjSt10shared_ptrIN4adns11dns_horizonEEEEEE7destroyIS7_EEvRS9_PT_
}
{
   <insert_a_suppression_name_here>
   Memcheck:Free
   fun:free
   fun:_ZN9__gnu_cxx13new_allocatorISt13_Rb_tree_nodeISt4pairIKjSt10shared_ptrIN4adns11dns_horizonEEEEE10deallocateEPS9_m
   fun:_ZNSt16allocator_traitsISaISt13_Rb_tree_nodeISt4pairIKjSt10shared_ptrIN4adns11dns_horizonEEEEEE10deallocateERS9_PS8_m
   fun:_ZNSt8_Rb_treeIjSt4pairIKjSt10shared_ptrIN4adns11dns_horizonEEESt10_Select1stIS6_ESt4lessIjESaIS6_EE11_M_put_nodeEPSt13_Rb_tree_nodeIS6_E
   fun:_ZNSt8_Rb_treeIjSt4pairIKjSt10shared_ptrIN4adns11dns_horizonEEESt10_Select1stIS6_ESt4lessIjESaIS6_EE12_M_drop_nodeEPSt13_Rb_tree_nodeIS6_E
   fun:_ZNSt8_Rb_treeIjSt4pairIKjSt10shared_ptrIN4adns11dns_horizonEEESt10_Select1stIS6_ESt4lessIjESaIS6_EE8_M_eraseEPSt13_Rb_tree_nodeIS6_E
   fun:_ZNSt8_Rb_treeIjSt4pairIKjSt10shared_ptrIN4adns11dns_horizonEEESt10_Select1stIS6_ESt4lessIjESaIS6_EED1Ev
   fun:_ZNSt3mapIjSt10shared_ptrIN4adns11dns_horizonEESt4lessIjESaISt4pairIKjS3_EEED1Ev
   fun:_ZNSt15_Sp_counted_ptrIPSt3mapIjSt10shared_ptrIN4adns11dns_horizonEESt4lessIjESaISt4pairIKjS4_EEELN9__gnu_cxx12_Lock_policyE2EE10_M_disposeEv
   fun:_ZNSt16_Sp_counted_baseILN9__gnu_cxx12_Lock_policyE2EE10_M_releaseEv
   fun:_ZNSt14__shared_countILN9__gnu_cxx12_Lock_policyE2EED1Ev
   fun:_ZNSt12__shared_ptrISt3mapIjSt10shared_ptrIN4adns11dns_horizonEESt4lessIjESaISt4pairIKjS4_EEELN9__gnu_cxx12_Lock_policyE2EED1Ev
}
{
   <insert_a_suppression_name_here>
   Memcheck:Free
   fun:free
   fun:_ZNSt15_Sp_counted_ptrIPSt3mapIjSt10shared_ptrIN4adns11dns_horizonEESt4lessIjESaISt4pairIKjS4_EEELN9__gnu_cxx12_Lock_policyE2EE10_M_disposeEv
   fun:_ZNSt16_Sp_counted_baseILN9__gnu_cxx12_Lock_policyE2EE10_M_releaseEv
   fun:_ZNSt14__shared_countILN9__gnu_cxx12_Lock_policyE2EED1Ev
   fun:_ZNSt12__shared_ptrISt3mapIjSt10shared_ptrIN4adns11dns_horizonEESt4lessIjESaISt4pairIKjS4_EEELN9__gnu_cxx12_Lock_policyE2EED1Ev
   fun:_ZNSt10shared_ptrISt3mapIjS_IN4adns11dns_horizonEESt4lessIjESaISt4pairIKjS3_EEEED1Ev
   fun:_ZN4adns5cacheINS_11dns_horizonEED1Ev
   fun:__run_exit_handlers
   fun:exit
   fun:main
}
{
   <insert_a_suppression_name_here>
   Memcheck:Free
   fun:free
   fun:_ZNSt15_Sp_counted_ptrIPSt3mapIjSt10shared_ptrIN4adns11dns_horizonEESt4lessIjESaISt4pairIKjS4_EEELN9__gnu_cxx12_Lock_policyE2EED0Ev
   fun:_ZNSt15_Sp_counted_ptrIPSt3mapIjSt10shared_ptrIN4adns11dns_horizonEESt4lessIjESaISt4pairIKjS4_EEELN9__gnu_cxx12_Lock_policyE2EE10_M_destroyEv
   fun:_ZNSt16_Sp_counted_baseILN9__gnu_cxx12_Lock_policyE2EE10_M_releaseEv
   fun:_ZNSt14__shared_countILN9__gnu_cxx12_Lock_policyE2EED1Ev
   fun:_ZNSt12__shared_ptrISt3mapIjSt10shared_ptrIN4adns11dns_horizonEESt4lessIjESaISt4pairIKjS4_EEELN9__gnu_cxx12_Lock_policyE2EED1Ev
   fun:_ZNSt10shared_ptrISt3mapIjS_IN4adns11dns_horizonEESt4lessIjESaISt4pairIKjS3_EEEED1Ev
   fun:_ZN4adns5cacheINS_11dns_horizonEED1Ev
   fun:__run_exit_handlers
   fun:exit
   fun:main
}
{
   <insert_a_suppression_name_here>
   Memcheck:Free
   fun:free
   fun:_ZN5boost16exception_detail10clone_implINS0_14bad_exception_EED0Ev
   fun:_ZN5boost14checked_deleteINS_16exception_detail10clone_implINS1_14bad_exception_EEEEEvPT_
   fun:_ZN5boost6detail17sp_counted_impl_pINS_16exception_detail10clone_implINS2_14bad_exception_EEEE7disposeEv
   fun:_ZN5boost6detail15sp_counted_base7releaseEv
   fun:_ZN5boost6detail12shared_countD1Ev
   fun:_ZN5boost10shared_ptrIKNS_16exception_detail10clone_baseEED1Ev
   fun:_ZN5boost13exception_ptrD1Ev
   fun:__run_exit_handlers
   fun:exit
   fun:main
}
{
   <insert_a_suppression_name_here>
   Memcheck:Free
   fun:free
   fun:_ZN5boost6detail17sp_counted_impl_pINS_16exception_detail10clone_implINS2_14bad_exception_EEEED0Ev
   fun:_ZN5boost6detail15sp_counted_base7destroyEv
   fun:_ZN5boost6detail15sp_counted_base12weak_releaseEv
   fun:_ZN5boost6detail15sp_counted_base7releaseEv
   fun:_ZN5boost6detail12shared_countD1Ev
   fun:_ZN5boost10shared_ptrIKNS_16exception_detail10clone_baseEED1Ev
   fun:_ZN5boost13exception_ptrD1Ev
   fun:__run_exit_handlers
   fun:exit
   fun:main
}
{
   <insert_a_suppression_name_here>
   Memcheck:Free
   fun:free
   fun:_ZN5boost16exception_detail10clone_implINS0_10bad_alloc_EED0Ev
   fun:_ZN5boost14checked_deleteINS_16exception_detail10clone_implINS1_10bad_alloc_EEEEEvPT_
   fun:_ZN5boost6detail17sp_counted_impl_pINS_16exception_detail10clone_implINS2_10bad_alloc_EEEE7disposeEv
   fun:_ZN5boost6detail15sp_counted_base7releaseEv
   fun:_ZN5boost6detail12shared_countD1Ev
   fun:_ZN5boost10shared_ptrIKNS_16exception_detail10clone_baseEED1Ev
   fun:_ZN5boost13exception_ptrD1Ev
   fun:__run_exit_handlers
   fun:exit
   fun:main
}
{
   <insert_a_suppression_name_here>
   Memcheck:Free
   fun:free
   fun:_ZN5boost6detail17sp_counted_impl_pINS_16exception_detail10clone_implINS2_10bad_alloc_EEEED0Ev
   fun:_ZN5boost6detail15sp_counted_base7destroyEv
   fun:_ZN5boost6detail15sp_counted_base12weak_releaseEv
   fun:_ZN5boost6detail15sp_counted_base7releaseEv
   fun:_ZN5boost6detail12shared_countD1Ev
   fun:_ZN5boost10shared_ptrIKNS_16exception_detail10clone_baseEED1Ev
   fun:_ZN5boost13exception_ptrD1Ev
   fun:__run_exit_handlers
   fun:exit
   fun:main
}
{
   <insert_a_suppression_name_here>
   Memcheck:Free
   fun:free
   fun:__cxa_finalize
   obj:/usr/lib/x86_64-linux-gnu/libboost_thread.so.1.71.0
   fun:_dl_fini
   fun:__run_exit_handlers
   fun:exit
   fun:main
}
{
   <insert_a_suppression_name_here>
   Memcheck:Free
   fun:free
   fun:_ZN4adns2db3rowD1Ev
   fun:_ZN4adns2db14row_dns_clientD1Ev
   fun:_ZN4adns2db14row_dns_clientD0Ev
   fun:_ZNSt15_Sp_counted_ptrIPN4adns2db14row_dns_clientELN9__gnu_cxx12_Lock_policyE2EE10_M_disposeEv
   fun:_ZNSt16_Sp_counted_baseILN9__gnu_cxx12_Lock_policyE2EE10_M_releaseEv
   fun:_ZNSt14__shared_countILN9__gnu_cxx12_Lock_policyE2EED1Ev
   fun:_ZNSt12__shared_ptrIN4adns2db14row_dns_clientELN9__gnu_cxx12_Lock_policyE2EED1Ev
   fun:_ZNSt10shared_ptrIN4adns2db14row_dns_clientEED1Ev
   fun:_ZN4adns13config_reader4readEv
   fun:_ZN4adns6config11init_configEv
   fun:main
}
{
   <insert_a_suppression_name_here>
   Memcheck:Free
   fun:free
   fun:_ZN4adns2db3rowD1Ev
   fun:_ZN4adns2db14row_dns_serverD1Ev
   fun:_ZN4adns2db14row_dns_serverD0Ev
   fun:_ZNSt15_Sp_counted_ptrIPN4adns2db14row_dns_serverELN9__gnu_cxx12_Lock_policyE2EE10_M_disposeEv
   fun:_ZNSt16_Sp_counted_baseILN9__gnu_cxx12_Lock_policyE2EE10_M_releaseEv
   fun:_ZNSt14__shared_countILN9__gnu_cxx12_Lock_policyE2EED1Ev
   fun:_ZNSt12__shared_ptrIN4adns2db14row_dns_serverELN9__gnu_cxx12_Lock_policyE2EED1Ev
   fun:_ZNSt10shared_ptrIN4adns2db14row_dns_serverEED1Ev
   fun:_ZN4adns13config_reader4readEv
   fun:_ZN4adns6config11init_configEv
   fun:main
}
{
   <insert_a_suppression_name_here>
   Memcheck:Free
   fun:free
   fun:_ZN4adns2db6columnD1Ev
   fun:_ZN4adns2db18row_control_server11init_staticEv
   fun:_ZN4adns2db18row_control_server16get_by_server_idERNS0_10connectionEj
   fun:_ZN4adns13config_reader4readEv
   fun:_ZN4adns6config11init_configEv
   fun:main
}
{
   <insert_a_suppression_name_here>
   Memcheck:Free
   fun:free
   fun:_ZN4adns2db6columnD1Ev
   fun:_ZN4adns2db18row_control_server11init_staticEv
   fun:_ZN4adns2db18row_control_server16get_by_server_idERNS0_10connectionEj
   fun:_ZN4adns13config_reader4readEv
   fun:_ZN4adns6config11init_configEv
   fun:main
}
{
   <insert_a_suppression_name_here>
   Memcheck:Free
   fun:free
   fun:_ZN4adns2db6columnD1Ev
   fun:_ZN4adns2db18row_control_server11init_staticEv
   fun:_ZN4adns2db18row_control_server16get_by_server_idERNS0_10connectionEj
   fun:_ZN4adns13config_reader4readEv
   fun:_ZN4adns6config11init_configEv
   fun:main
}
{
   <insert_a_suppression_name_here>
   Memcheck:Free
   fun:free
   fun:_ZN4adns2db6columnD1Ev
   fun:_ZN4adns2db18row_control_server11init_staticEv
   fun:_ZN4adns2db18row_control_server16get_by_server_idERNS0_10connectionEj
   fun:_ZN4adns13config_reader4readEv
   fun:_ZN4adns6config11init_configEv
   fun:main
}
{
   <insert_a_suppression_name_here>
   Memcheck:Free
   fun:free
   fun:_ZN4adns2db3rowD1Ev
   fun:_ZN4adns2db18row_control_serverD1Ev
   fun:_ZN4adns2db18row_control_serverD0Ev
   fun:_ZNSt15_Sp_counted_ptrIPN4adns2db18row_control_serverELN9__gnu_cxx12_Lock_policyE2EE10_M_disposeEv
   fun:_ZNSt16_Sp_counted_baseILN9__gnu_cxx12_Lock_policyE2EE10_M_releaseEv
   fun:_ZNSt14__shared_countILN9__gnu_cxx12_Lock_policyE2EED1Ev
   fun:_ZNSt12__shared_ptrIN4adns2db18row_control_serverELN9__gnu_cxx12_Lock_policyE2EED1Ev
   fun:_ZNSt10shared_ptrIN4adns2db18row_control_serverEED1Ev
   fun:_ZN4adns13config_reader4readEv
   fun:_ZN4adns6config11init_configEv
   fun:main
}
{
   <insert_a_suppression_name_here>
   Memcheck:Free
   fun:free
   fun:_ZN4adns2db3rowD1Ev
   fun:_ZN4adns2db10row_serverD1Ev
   fun:_ZN4adns2db10row_serverD0Ev
   fun:_ZNSt15_Sp_counted_ptrIPN4adns2db10row_serverELN9__gnu_cxx12_Lock_policyE2EE10_M_disposeEv
   fun:_ZNSt16_Sp_counted_baseILN9__gnu_cxx12_Lock_policyE2EE10_M_releaseEv
   fun:_ZNSt14__shared_countILN9__gnu_cxx12_Lock_policyE2EED1Ev
   fun:_ZNSt12__shared_ptrIN4adns2db10row_serverELN9__gnu_cxx12_Lock_policyE2EED1Ev
   fun:_ZNSt10shared_ptrIN4adns2db10row_serverEED1Ev
   fun:_ZSt8_DestroyISt10shared_ptrIN4adns2db10row_serverEEEvPT_
   fun:_ZNSt12_Destroy_auxILb0EE9__destroyIPSt10shared_ptrIN4adns2db10row_serverEEEEvT_S8_
   fun:_ZSt8_DestroyIPSt10shared_ptrIN4adns2db10row_serverEEEvT_S6_
}
{
   <insert_a_suppression_name_here>
   Memcheck:Free
   fun:free
   fun:_ZN4adns2db3rowD1Ev
   fun:_ZN4adns2db16row_basic_configD1Ev
   fun:_ZN4adns2db16row_basic_configD0Ev
   fun:_ZNSt15_Sp_counted_ptrIPN4adns2db16row_basic_configELN9__gnu_cxx12_Lock_policyE2EE10_M_disposeEv
   fun:_ZNSt16_Sp_counted_baseILN9__gnu_cxx12_Lock_policyE2EE10_M_releaseEv
   fun:_ZNSt14__shared_countILN9__gnu_cxx12_Lock_policyE2EED1Ev
   fun:_ZNSt12__shared_ptrIN4adns2db16row_basic_configELN9__gnu_cxx12_Lock_policyE2EED1Ev
   fun:_ZNSt10shared_ptrIN4adns2db16row_basic_configEED1Ev
   fun:_ZSt8_DestroyISt10shared_ptrIN4adns2db16row_basic_configEEEvPT_
   fun:_ZNSt12_Destroy_auxILb0EE9__destroyIPSt10shared_ptrIN4adns2db16row_basic_configEEEEvT_S8_
   fun:_ZSt8_DestroyIPSt10shared_ptrIN4adns2db16row_basic_configEEEvT_S6_
}
{
   <insert_a_suppression_name_here>
   Memcheck:Free
   fun:free
   fun:_ZN4adns2db3rowD1Ev
   fun:_ZN4adns2db16row_cache_configD1Ev
   fun:_ZN4adns2db16row_cache_configD0Ev
   fun:_ZNSt15_Sp_counted_ptrIPN4adns2db16row_cache_configELN9__gnu_cxx12_Lock_policyE2EE10_M_disposeEv
   fun:_ZNSt16_Sp_counted_baseILN9__gnu_cxx12_Lock_policyE2EE10_M_releaseEv
   fun:_ZNSt14__shared_countILN9__gnu_cxx12_Lock_policyE2EED1Ev
   fun:_ZNSt12__shared_ptrIN4adns2db16row_cache_configELN9__gnu_cxx12_Lock_policyE2EED1Ev
   fun:_ZNSt10shared_ptrIN4adns2db16row_cache_configEED1Ev
   fun:_ZN4adns13config_reader4readEv
   fun:_ZN4adns6config11init_configEv
   fun:main
}
{
   <insert_a_suppression_name_here>
   Memcheck:Free
   fun:free
   fun:_ZN9__gnu_cxx13new_allocatorIPNSt8__detail15_Hash_node_baseEE10deallocateEPS3_m
   fun:_ZNSt16allocator_traitsISaIPNSt8__detail15_Hash_node_baseEEE10deallocateERS3_PS2_m
   fun:_ZNSt8__detail16_Hashtable_allocISaINS_10_Hash_nodeISt4pairIKNSt7__cxx1112basic_stringIcSt11char_traitsIcESaIcEEEtELb1EEEEE21_M_deallocate_bucketsEPPNS_15_Hash_node_baseEm
   fun:_ZNSt10_HashtableINSt7__cxx1112basic_stringIcSt11char_traitsIcESaIcEEESt4pairIKS5_tESaIS8_ENSt8__detail10_Select1stESt8equal_toIS5_ESt4hashIS5_ENSA_18_Mod_range_hashingENSA_20_Default_ranged_hashENSA_20_Prime_rehash_policyENSA_17_Hashtable_traitsILb1ELb0ELb1EEEE21_M_deallocate_bucketsEPPNSA_15_Hash_node_baseEm
   fun:_ZNSt10_HashtableINSt7__cxx1112basic_stringIcSt11char_traitsIcESaIcEEESt4pairIKS5_tESaIS8_ENSt8__detail10_Select1stESt8equal_toIS5_ESt4hashIS5_ENSA_18_Mod_range_hashingENSA_20_Default_ranged_hashENSA_20_Prime_rehash_policyENSA_17_Hashtable_traitsILb1ELb0ELb1EEEE21_M_deallocate_bucketsEv
   fun:_ZNSt10_HashtableINSt7__cxx1112basic_stringIcSt11char_traitsIcESaIcEEESt4pairIKS5_tESaIS8_ENSt8__detail10_Select1stESt8equal_toIS5_ESt4hashIS5_ENSA_18_Mod_range_hashingENSA_20_Default_ranged_hashENSA_20_Prime_rehash_policyENSA_17_Hashtable_traitsILb1ELb0ELb1EEEE13_M_rehash_auxEmSt17integral_constantIbLb1EE
   fun:_ZNSt10_HashtableINSt7__cxx1112basic_stringIcSt11char_traitsIcESaIcEEESt4pairIKS5_tESaIS8_ENSt8__detail10_Select1stESt8equal_toIS5_ESt4hashIS5_ENSA_18_Mod_range_hashingENSA_20_Default_ranged_hashENSA_20_Prime_rehash_policyENSA_17_Hashtable_traitsILb1ELb0ELb1EEEE9_M_rehashEmRKm
   fun:_ZNSt10_HashtableINSt7__cxx1112basic_stringIcSt11char_traitsIcESaIcEEESt4pairIKS5_tESaIS8_ENSt8__detail10_Select1stESt8equal_toIS5_ESt4hashIS5_ENSA_18_Mod_range_hashingENSA_20_Default_ranged_hashENSA_20_Prime_rehash_policyENSA_17_Hashtable_traitsILb1ELb0ELb1EEEE21_M_insert_unique_nodeEmmPNSA_10_Hash_nodeIS8_Lb1EEEm
   fun:_ZNSt8__detail9_Map_baseINSt7__cxx1112basic_stringIcSt11char_traitsIcESaIcEEESt4pairIKS6_tESaIS9_ENS_10_Select1stESt8equal_toIS6_ESt4hashIS6_ENS_18_Mod_range_hashingENS_20_Default_ranged_hashENS_20_Prime_rehash_policyENS_17_Hashtable_traitsILb1ELb0ELb1EEELb1EEixEOS6_
   fun:_ZNSt13unordered_mapINSt7__cxx1112basic_stringIcSt11char_traitsIcESaIcEEEtSt4hashIS5_ESt8equal_toIS5_ESaISt4pairIKS5_tEEEixEOS5_
   fun:_ZN4adns6dns_rr4initEv
}
{
   <insert_a_suppression_name_here>
   Memcheck:Free
   fun:free
   fun:_ZN4adns2db6columnD1Ev
   fun:_ZN4adns2db15row_root_server11init_staticEv
   fun:_ZNK4adns2db15row_root_server11get_columnsEv
   fun:_ZN4adns2db3row16json_unserializeEv
   fun:_ZN4adns17json_serializable9from_jsonERKN4argo4jsonE
   fun:_ZN4adns2db18mongodb_row_helper10fetch_rowsERNS0_10connectionERKNS0_3rowE
   fun:_ZN4adns2db3row10fetch_rowsERNS0_10connectionE
   fun:_ZN4adns2db15row_root_server8get_rowsERNS0_10connectionE
   fun:_ZN4adns19dns_recursive_cache15load_root_hintsEv
   fun:_ZN4adns19dns_recursive_cacheC1ERKNS_12cache_configE
   fun:_ZN4adns19dns_recursive_cache4initERKNS_12cache_configE
}
{
   <insert_a_suppression_name_here>
   Memcheck:Free
   fun:free
   fun:_ZN4adns2db3rowD1Ev
   fun:_ZN4adns2db15row_root_serverD1Ev
   fun:_ZN4adns2db15row_root_serverD0Ev
   fun:_ZNSt15_Sp_counted_ptrIPN4adns2db15row_root_serverELN9__gnu_cxx12_Lock_policyE2EE10_M_disposeEv
   fun:_ZNSt16_Sp_counted_baseILN9__gnu_cxx12_Lock_policyE2EE10_M_releaseEv
   fun:_ZNSt14__shared_countILN9__gnu_cxx12_Lock_policyE2EED1Ev
   fun:_ZNSt12__shared_ptrIN4adns2db15row_root_serverELN9__gnu_cxx12_Lock_policyE2EED1Ev
   fun:_ZNSt10shared_ptrIN4adns2db15row_root_serverEED1Ev
   fun:_ZSt8_DestroyISt10shared_ptrIN4adns2db15row_root_serverEEEvPT_
   fun:_ZNSt12_Destroy_auxILb0EE9__destroyIPSt10shared_ptrIN4adns2db15row_root_serverEEEEvT_S8_
   fun:_ZSt8_DestroyIPSt10shared_ptrIN4adns2db15row_root_serverEEEvT_S6_
}
{
   <insert_a_suppression_name_here>
   Memcheck:Free
   fun:free
   fun:_ZNSt4pairIKNSt7__cxx1112basic_stringIcSt11char_traitsIcESaIcEEESt10shared_ptrIN4adns6dns_rrEEED1Ev
   fun:_ZN9__gnu_cxx13new_allocatorISt13_Rb_tree_nodeISt4pairIKNSt7__cxx1112basic_stringIcSt11char_traitsIcESaIcEEESt10shared_ptrIN4adns6dns_rrEEEEE7destroyISE_EEvPT_
   fun:_ZNSt16allocator_traitsISaISt13_Rb_tree_nodeISt4pairIKNSt7__cxx1112basic_stringIcSt11char_traitsIcESaIcEEESt10shared_ptrIN4adns6dns_rrEEEEEE7destroyISD_EEvRSF_PT_
   fun:_ZNSt8_Rb_treeINSt7__cxx1112basic_stringIcSt11char_traitsIcESaIcEEESt4pairIKS5_St10shared_ptrIN4adns6dns_rrEEESt10_Select1stISC_ESt4lessIS5_ESaISC_EE15_M_destroy_nodeEPSt13_Rb_tree_nodeISC_E
   fun:_ZNSt8_Rb_treeINSt7__cxx1112basic_stringIcSt11char_traitsIcESaIcEEESt4pairIKS5_St10shared_ptrIN4adns6dns_rrEEESt10_Select1stISC_ESt4lessIS5_ESaISC_EE12_M_drop_nodeEPSt13_Rb_tree_nodeISC_E
   fun:_ZNSt8_Rb_treeINSt7__cxx1112basic_stringIcSt11char_traitsIcESaIcEEESt4pairIKS5_St10shared_ptrIN4adns6dns_rrEEESt10_Select1stISC_ESt4lessIS5_ESaISC_EE8_M_eraseEPSt13_Rb_tree_nodeISC_E
   fun:_ZNSt8_Rb_treeINSt7__cxx1112basic_stringIcSt11char_traitsIcESaIcEEESt4pairIKS5_St10shared_ptrIN4adns6dns_rrEEESt10_Select1stISC_ESt4lessIS5_ESaISC_EE8_M_eraseEPSt13_Rb_tree_nodeISC_E
   fun:_ZNSt8_Rb_treeINSt7__cxx1112basic_stringIcSt11char_traitsIcESaIcEEESt4pairIKS5_St10shared_ptrIN4adns6dns_rrEEESt10_Select1stISC_ESt4lessIS5_ESaISC_EE8_M_eraseEPSt13_Rb_tree_nodeISC_E
   fun:_ZNSt8_Rb_treeINSt7__cxx1112basic_stringIcSt11char_traitsIcESaIcEEESt4pairIKS5_St10shared_ptrIN4adns6dns_rrEEESt10_Select1stISC_ESt4lessIS5_ESaISC_EE8_M_eraseEPSt13_Rb_tree_nodeISC_E
   fun:_ZNSt8_Rb_treeINSt7__cxx1112basic_stringIcSt11char_traitsIcESaIcEEESt4pairIKS5_St10shared_ptrIN4adns6dns_rrEEESt10_Select1stISC_ESt4lessIS5_ESaISC_EE8_M_eraseEPSt13_Rb_tree_nodeISC_E
   fun:_ZNSt8_Rb_treeINSt7__cxx1112basic_stringIcSt11char_traitsIcESaIcEEESt4pairIKS5_St10shared_ptrIN4adns6dns_rrEEESt10_Select1stISC_ESt4lessIS5_ESaISC_EED1Ev
}
{
   <insert_a_suppression_name_here>
   Memcheck:Free
   fun:free
   fun:_ZNSt7__cxx1112basic_stringIcSt11char_traitsIcESaIcEE9_M_mutateEmmPKcm
   fun:_ZNSt7__cxx1112basic_stringIcSt11char_traitsIcESaIcEE9_M_appendEPKcm
   fun:_ZStplIcSt11char_traitsIcESaIcEENSt7__cxx1112basic_stringIT_T0_T1_EERKS8_PKS5_
   fun:_ZN4adns12handler_poolIPNS_20dns_message_envelopeENS_18dns_recursive_slotENS3_8params_tEEC1ENSt7__cxx1112basic_stringIcSt11char_traitsIcESaIcEEERKS4_iii
   fun:_ZN4adns22dns_recursive_resolverC1ERKNS_13server_configEb
   fun:_ZN9__gnu_cxx13new_allocatorIN4adns22dns_recursive_resolverEE9constructIS2_JRKNS1_13server_configEbEEEvPT_DpOT0_
   fun:_ZNSt16allocator_traitsISaIN4adns22dns_recursive_resolverEEE9constructIS1_JRKNS0_13server_configEbEEEvRS2_PT_DpOT0_
   fun:_ZNSt23_Sp_counted_ptr_inplaceIN4adns22dns_recursive_resolverESaIS1_ELN9__gnu_cxx12_Lock_policyE2EEC1IJRKNS0_13server_configEbEEES2_DpOT_
   fun:_ZNSt14__shared_countILN9__gnu_cxx12_Lock_policyE2EEC1IN4adns22dns_recursive_resolverESaIS5_EJRKNS4_13server_configEbEEERPT_St20_Sp_alloc_shared_tagIT0_EDpOT1_
   fun:_ZNSt12__shared_ptrIN4adns22dns_recursive_resolverELN9__gnu_cxx12_Lock_policyE2EEC1ISaIS1_EJRKNS0_13server_configEbEEESt20_Sp_alloc_shared_tagIT_EDpOT0_
   fun:_ZNSt10shared_ptrIN4adns22dns_recursive_resolverEEC1ISaIS1_EJRKNS0_13server_configEbEEESt20_Sp_alloc_shared_tagIT_EDpOT0_
}
{
   <insert_a_suppression_name_here>
   Memcheck:Free
   fun:free
   fun:_ZN4adns7monitor6info_tD1Ev
   fun:_ZN4adns7monitor9add_thingERKNSt7__cxx1112basic_stringIcSt11char_traitsIcESaIcEEES8_S8_j
   fun:_ZN4adns12handler_poolIPNS_20dns_message_envelopeENS_19dns_forwarding_slotENS3_8params_tEEC1ENSt7__cxx1112basic_stringIcSt11char_traitsIcESaIcEEERKS4_iii
   fun:_ZN4adns23dns_forwarding_resolverC1ERKNS_13server_configE
   fun:_ZN9__gnu_cxx13new_allocatorIN4adns23dns_forwarding_resolverEE9constructIS2_JRNS1_13server_configEEEEvPT_DpOT0_
   fun:_ZNSt16allocator_traitsISaIN4adns23dns_forwarding_resolverEEE9constructIS1_JRNS0_13server_configEEEEvRS2_PT_DpOT0_
   fun:_ZNSt23_Sp_counted_ptr_inplaceIN4adns23dns_forwarding_resolverESaIS1_ELN9__gnu_cxx12_Lock_policyE2EEC1IJRNS0_13server_configEEEES2_DpOT_
   fun:_ZNSt14__shared_countILN9__gnu_cxx12_Lock_policyE2EEC1IN4adns23dns_forwarding_resolverESaIS5_EJRNS4_13server_configEEEERPT_St20_Sp_alloc_shared_tagIT0_EDpOT1_
   fun:_ZNSt12__shared_ptrIN4adns23dns_forwarding_resolverELN9__gnu_cxx12_Lock_policyE2EEC1ISaIS1_EJRNS0_13server_configEEEESt20_Sp_alloc_shared_tagIT_EDpOT0_
   fun:_ZNSt10shared_ptrIN4adns23dns_forwarding_resolverEEC1ISaIS1_EJRNS0_13server_configEEEESt20_Sp_alloc_shared_tagIT_EDpOT0_
   fun:_ZSt15allocate_sharedIN4adns23dns_forwarding_resolverESaIS1_EJRNS0_13server_configEEESt10shared_ptrIT_ERKT0_DpOT1_
}
{
   <insert_a_suppression_name_here>
   Memcheck:Free
   fun:free
   fun:_ZN4adns7monitor6info_tD1Ev
   fun:_ZN4adns7monitor9add_thingERKNSt7__cxx1112basic_stringIcSt11char_traitsIcESaIcEEES8_S8_j
   fun:_ZN4adns12handler_poolIPNS_20dns_message_envelopeENS_19dns_forwarding_slotENS3_8params_tEEC1ENSt7__cxx1112basic_stringIcSt11char_traitsIcESaIcEEERKS4_iii
   fun:_ZN4adns23dns_forwarding_resolverC1ERKNS_13server_configE
   fun:_ZN9__gnu_cxx13new_allocatorIN4adns23dns_forwarding_resolverEE9constructIS2_JRNS1_13server_configEEEEvPT_DpOT0_
   fun:_ZNSt16allocator_traitsISaIN4adns23dns_forwarding_resolverEEE9constructIS1_JRNS0_13server_configEEEEvRS2_PT_DpOT0_
   fun:_ZNSt23_Sp_counted_ptr_inplaceIN4adns23dns_forwarding_resolverESaIS1_ELN9__gnu_cxx12_Lock_policyE2EEC1IJRNS0_13server_configEEEES2_DpOT_
   fun:_ZNSt14__shared_countILN9__gnu_cxx12_Lock_policyE2EEC1IN4adns23dns_forwarding_resolverESaIS5_EJRNS4_13server_configEEEERPT_St20_Sp_alloc_shared_tagIT0_EDpOT1_
   fun:_ZNSt12__shared_ptrIN4adns23dns_forwarding_resolverELN9__gnu_cxx12_Lock_policyE2EEC1ISaIS1_EJRNS0_13server_configEEEESt20_Sp_alloc_shared_tagIT_EDpOT0_
   fun:_ZNSt10shared_ptrIN4adns23dns_forwarding_resolverEEC1ISaIS1_EJRNS0_13server_configEEEESt20_Sp_alloc_shared_tagIT_EDpOT0_
   fun:_ZSt15allocate_sharedIN4adns23dns_forwarding_resolverESaIS1_EJRNS0_13server_configEEESt10shared_ptrIT_ERKT0_DpOT1_
}
{
   <insert_a_suppression_name_here>
   Memcheck:Free
   fun:free
   fun:_ZN9__gnu_cxx13new_allocatorISt13_Rb_tree_nodeItEE10deallocateEPS2_m
   fun:_ZNSt16allocator_traitsISaISt13_Rb_tree_nodeItEEE10deallocateERS2_PS1_m
   fun:_ZNSt8_Rb_treeIttSt9_IdentityItESt4lessItESaItEE11_M_put_nodeEPSt13_Rb_tree_nodeItE
   fun:_ZNSt8_Rb_treeIttSt9_IdentityItESt4lessItESaItEE12_M_drop_nodeEPSt13_Rb_tree_nodeItE
   fun:_ZNSt8_Rb_treeIttSt9_IdentityItESt4lessItESaItEE8_M_eraseEPSt13_Rb_tree_nodeItE
   fun:_ZNSt8_Rb_treeIttSt9_IdentityItESt4lessItESaItEED1Ev
   fun:_ZNSt3setItSt4lessItESaItEED1Ev
   fun:_ZN4adns19dns_parallel_client11receive_udpERNS_11dns_messageERSt3setItSt4lessItESaItEERb
   fun:_ZN4adns19dns_parallel_client9query_udpERNS_11dns_messageE
   fun:_ZN4adns19dns_parallel_client5queryERNS_11dns_messageE
   fun:_ZN4adns19dns_recursive_cache21update_root_hints_nowERKSt3setINS_10ip_addressESt4lessIS2_ESaIS2_EE
}
{
   <insert_a_suppression_name_here>
   Memcheck:Free
   fun:free
   fun:_ZN9__gnu_cxx13new_allocatorIPNSt8__detail15_Hash_node_baseEE10deallocateEPS3_m
   fun:_ZNSt16allocator_traitsISaIPNSt8__detail15_Hash_node_baseEEE10deallocateERS3_PS2_m
   fun:_ZNSt8__detail16_Hashtable_allocISaINS_10_Hash_nodeISt4pairIKiSt10shared_ptrIN4adns6socketEEELb0EEEEE21_M_deallocate_bucketsEPPNS_15_Hash_node_baseEm
   fun:_ZNSt10_HashtableIiSt4pairIKiSt10shared_ptrIN4adns6socketEEESaIS6_ENSt8__detail10_Select1stESt8equal_toIiESt4hashIiENS8_18_Mod_range_hashingENS8_20_Default_ranged_hashENS8_20_Prime_rehash_policyENS8_17_Hashtable_traitsILb0ELb0ELb1EEEE21_M_deallocate_bucketsEPPNS8_15_Hash_node_baseEm
   fun:_ZNSt10_HashtableIiSt4pairIKiSt10shared_ptrIN4adns6socketEEESaIS6_ENSt8__detail10_Select1stESt8equal_toIiESt4hashIiENS8_18_Mod_range_hashingENS8_20_Default_ranged_hashENS8_20_Prime_rehash_policyENS8_17_Hashtable_traitsILb0ELb0ELb1EEEE21_M_deallocate_bucketsEv
   fun:_ZNSt10_HashtableIiSt4pairIKiSt10shared_ptrIN4adns6socketEEESaIS6_ENSt8__detail10_Select1stESt8equal_toIiESt4hashIiENS8_18_Mod_range_hashingENS8_20_Default_ranged_hashENS8_20_Prime_rehash_policyENS8_17_Hashtable_traitsILb0ELb0ELb1EEEED1Ev
   fun:_ZNSt13unordered_mapIiSt10shared_ptrIN4adns6socketEESt4hashIiESt8equal_toIiESaISt4pairIKiS3_EEED1Ev
   fun:_ZN4adns10socket_setD1Ev
   fun:_ZN4adns19dns_parallel_client11receive_udpERNS_11dns_messageERSt3setItSt4lessItESaItEERb
   fun:_ZN4adns19dns_parallel_client9query_udpERNS_11dns_messageE
   fun:_ZN4adns19dns_parallel_client5queryERNS_11dns_messageE
}
{
   <insert_a_suppression_name_here>
   Memcheck:Free
   fun:free
   fun:_ZN4adns7monitor6info_tD1Ev
   fun:_ZN4adns7monitor9add_thingERKNSt7__cxx1112basic_stringIcSt11char_traitsIcESaIcEEES8_S8_j
   fun:_ZN4adns12handler_poolIPNS_20dns_message_envelopeENS_19dns_forwarding_slotENS3_8params_tEEC1ENSt7__cxx1112basic_stringIcSt11char_traitsIcESaIcEEERKS4_iii
   fun:_ZN4adns23dns_forwarding_resolverC1ERKNS_13server_configE
   fun:_ZN9__gnu_cxx13new_allocatorIN4adns23dns_forwarding_resolverEE9constructIS2_JRNS1_13server_configEEEEvPT_DpOT0_
   fun:_ZNSt16allocator_traitsISaIN4adns23dns_forwarding_resolverEEE9constructIS1_JRNS0_13server_configEEEEvRS2_PT_DpOT0_
   fun:_ZNSt23_Sp_counted_ptr_inplaceIN4adns23dns_forwarding_resolverESaIS1_ELN9__gnu_cxx12_Lock_policyE2EEC1IJRNS0_13server_configEEEES2_DpOT_
   fun:_ZNSt14__shared_countILN9__gnu_cxx12_Lock_policyE2EEC1IN4adns23dns_forwarding_resolverESaIS5_EJRNS4_13server_configEEEERPT_St20_Sp_alloc_shared_tagIT0_EDpOT1_
   fun:_ZNSt12__shared_ptrIN4adns23dns_forwarding_resolverELN9__gnu_cxx12_Lock_policyE2EEC1ISaIS1_EJRNS0_13server_configEEEESt20_Sp_alloc_shared_tagIT_EDpOT0_
   fun:_ZNSt10shared_ptrIN4adns23dns_forwarding_resolverEEC1ISaIS1_EJRNS0_13server_configEEEESt20_Sp_alloc_shared_tagIT_EDpOT0_
   fun:_ZSt15allocate_sharedIN4adns23dns_forwarding_resolverESaIS1_EJRNS0_13server_configEEESt10shared_ptrIT_ERKT0_DpOT1_
}
{
   <insert_a_suppression_name_here>
   Memcheck:Free
   fun:free
   fun:_ZN4adns7monitor6info_tD1Ev
   fun:_ZN4adns7monitor9add_thingERKNSt7__cxx1112basic_stringIcSt11char_traitsIcESaIcEEES8_S8_j
   fun:_ZN4adns12handler_poolIPNS_20dns_message_envelopeENS_11dns_handlerENS3_8params_tEEC1ENSt7__cxx1112basic_stringIcSt11char_traitsIcESaIcEEERKS4_iii
   fun:_ZN4adns14dns_udp_serverC1ERN5boost4asio10io_contextERKNS_13server_configE
   fun:_Z11run_serversv
   fun:main
}
{
   <insert_a_suppression_name_here>
   Memcheck:Free
   fun:free
   fun:_ZN4adns7monitor6info_tD1Ev
   fun:_ZN4adns7monitor9add_thingERKNSt7__cxx1112basic_stringIcSt11char_traitsIcESaIcEEES8_S8_j
   fun:_ZN4adns12handler_poolIPNS_20dns_message_envelopeENS_11dns_handlerENS3_8params_tEEC1ENSt7__cxx1112basic_stringIcSt11char_traitsIcESaIcEEERKS4_iii
   fun:_ZN4adns14dns_udp_serverC1ERN5boost4asio10io_contextERKNS_13server_configE
   fun:_Z11run_serversv
   fun:main
}
{
   <insert_a_suppression_name_here>
   Memcheck:Free
   fun:free
   fun:_ZN4adns7monitor6info_tD1Ev
   fun:_ZN4adns7monitor9add_thingERKNSt7__cxx1112basic_stringIcSt11char_traitsIcESaIcEEES8_S8_j
   fun:_ZN4adns12handler_poolIPNS_20dns_message_envelopeENS_11dns_handlerENS3_8params_tEEC1ENSt7__cxx1112basic_stringIcSt11char_traitsIcESaIcEEERKS4_iii
   fun:_ZN4adns14dns_udp_serverC1ERN5boost4asio10io_contextERKNS_13server_configE
   fun:_Z11run_serversv
   fun:main
}
{
   <insert_a_suppression_name_here>
   Memcheck:Free
   fun:free
   fun:_ZN4adns2db3rowD1Ev
   fun:_ZN4adns2db11row_horizonD1Ev
   fun:_ZN4adns2db11row_horizonD0Ev
   fun:_ZNSt15_Sp_counted_ptrIPN4adns2db11row_horizonELN9__gnu_cxx12_Lock_policyE2EE10_M_disposeEv
   fun:_ZNSt16_Sp_counted_baseILN9__gnu_cxx12_Lock_policyE2EE10_M_releaseEv
   fun:_ZNSt14__shared_countILN9__gnu_cxx12_Lock_policyE2EED1Ev
   fun:_ZNSt12__shared_ptrIN4adns2db11row_horizonELN9__gnu_cxx12_Lock_policyE2EED1Ev
   fun:_ZNSt10shared_ptrIN4adns2db11row_horizonEED1Ev
   fun:_ZSt8_DestroyISt10shared_ptrIN4adns2db11row_horizonEEEvPT_
   fun:_ZNSt12_Destroy_auxILb0EE9__destroyIPSt10shared_ptrIN4adns2db11row_horizonEEEEvT_S8_
   fun:_ZSt8_DestroyIPSt10shared_ptrIN4adns2db11row_horizonEEEvT_S6_
}
{
   <insert_a_suppression_name_here>
   Memcheck:Free
   fun:free
   fun:_ZN4adns2db6columnD1Ev
   fun:_ZN4adns2db8row_zone11init_staticEv
   fun:_ZN4adns2db8row_zone17get_by_horizon_idERNS0_10connectionEj
   fun:_ZN4adns14dns_zone_cache9read_dataERKNS_11dns_horizonE
   fun:_ZN4adns14dns_zone_cacheC1ERKNS_11dns_horizonE
   fun:_ZN9__gnu_cxx13new_allocatorIN4adns14dns_zone_cacheEE9constructIS2_JRNS1_11dns_horizonEEEEvPT_DpOT0_
   fun:_ZNSt16allocator_traitsISaIN4adns14dns_zone_cacheEEE9constructIS1_JRNS0_11dns_horizonEEEEvRS2_PT_DpOT0_
   fun:_ZNSt23_Sp_counted_ptr_inplaceIN4adns14dns_zone_cacheESaIS1_ELN9__gnu_cxx12_Lock_policyE2EEC1IJRNS0_11dns_horizonEEEES2_DpOT_
   fun:_ZNSt14__shared_countILN9__gnu_cxx12_Lock_policyE2EEC1IN4adns14dns_zone_cacheESaIS5_EJRNS4_11dns_horizonEEEERPT_St20_Sp_alloc_shared_tagIT0_EDpOT1_
   fun:_ZNSt12__shared_ptrIN4adns14dns_zone_cacheELN9__gnu_cxx12_Lock_policyE2EEC1ISaIS1_EJRNS0_11dns_horizonEEEESt20_Sp_alloc_shared_tagIT_EDpOT0_
   fun:_ZNSt10shared_ptrIN4adns14dns_zone_cacheEEC1ISaIS1_EJRNS0_11dns_horizonEEEESt20_Sp_alloc_shared_tagIT_EDpOT0_
}
{
   <insert_a_suppression_name_here>
   Memcheck:Free
   fun:free
   fun:_ZN4adns2db6columnD1Ev
   fun:_ZN4adns2db8row_zone11init_staticEv
   fun:_ZN4adns2db8row_zone17get_by_horizon_idERNS0_10connectionEj
   fun:_ZN4adns14dns_zone_cache9read_dataERKNS_11dns_horizonE
   fun:_ZN4adns14dns_zone_cacheC1ERKNS_11dns_horizonE
   fun:_ZN9__gnu_cxx13new_allocatorIN4adns14dns_zone_cacheEE9constructIS2_JRNS1_11dns_horizonEEEEvPT_DpOT0_
   fun:_ZNSt16allocator_traitsISaIN4adns14dns_zone_cacheEEE9constructIS1_JRNS0_11dns_horizonEEEEvRS2_PT_DpOT0_
   fun:_ZNSt23_Sp_counted_ptr_inplaceIN4adns14dns_zone_cacheESaIS1_ELN9__gnu_cxx12_Lock_policyE2EEC1IJRNS0_11dns_horizonEEEES2_DpOT_
   fun:_ZNSt14__shared_countILN9__gnu_cxx12_Lock_policyE2EEC1IN4adns14dns_zone_cacheESaIS5_EJRNS4_11dns_horizonEEEERPT_St20_Sp_alloc_shared_tagIT0_EDpOT1_
   fun:_ZNSt12__shared_ptrIN4adns14dns_zone_cacheELN9__gnu_cxx12_Lock_policyE2EEC1ISaIS1_EJRNS0_11dns_horizonEEEESt20_Sp_alloc_shared_tagIT_EDpOT0_
   fun:_ZNSt10shared_ptrIN4adns14dns_zone_cacheEEC1ISaIS1_EJRNS0_11dns_horizonEEEESt20_Sp_alloc_shared_tagIT_EDpOT0_
}
{
   <insert_a_suppression_name_here>
   Memcheck:Free
   fun:free
   fun:_ZN4adns2db6columnD1Ev
   fun:_ZN4adns2db8row_zone11init_staticEv
   fun:_ZN4adns2db8row_zone17get_by_horizon_idERNS0_10connectionEj
   fun:_ZN4adns14dns_zone_cache9read_dataERKNS_11dns_horizonE
   fun:_ZN4adns14dns_zone_cacheC1ERKNS_11dns_horizonE
   fun:_ZN9__gnu_cxx13new_allocatorIN4adns14dns_zone_cacheEE9constructIS2_JRNS1_11dns_horizonEEEEvPT_DpOT0_
   fun:_ZNSt16allocator_traitsISaIN4adns14dns_zone_cacheEEE9constructIS1_JRNS0_11dns_horizonEEEEvRS2_PT_DpOT0_
   fun:_ZNSt23_Sp_counted_ptr_inplaceIN4adns14dns_zone_cacheESaIS1_ELN9__gnu_cxx12_Lock_policyE2EEC1IJRNS0_11dns_horizonEEEES2_DpOT_
   fun:_ZNSt14__shared_countILN9__gnu_cxx12_Lock_policyE2EEC1IN4adns14dns_zone_cacheESaIS5_EJRNS4_11dns_horizonEEEERPT_St20_Sp_alloc_shared_tagIT0_EDpOT1_
   fun:_ZNSt12__shared_ptrIN4adns14dns_zone_cacheELN9__gnu_cxx12_Lock_policyE2EEC1ISaIS1_EJRNS0_11dns_horizonEEEESt20_Sp_alloc_shared_tagIT_EDpOT0_
   fun:_ZNSt10shared_ptrIN4adns14dns_zone_cacheEEC1ISaIS1_EJRNS0_11dns_horizonEEEESt20_Sp_alloc_shared_tagIT_EDpOT0_
}
{
   <insert_a_suppression_name_here>
   Memcheck:Free
   fun:free
   fun:_ZN4adns2db6columnD1Ev
   fun:_ZN4adns2db8row_zone11init_staticEv
   fun:_ZN4adns2db8row_zone17get_by_horizon_idERNS0_10connectionEj
   fun:_ZN4adns14dns_zone_cache9read_dataERKNS_11dns_horizonE
   fun:_ZN4adns14dns_zone_cacheC1ERKNS_11dns_horizonE
   fun:_ZN9__gnu_cxx13new_allocatorIN4adns14dns_zone_cacheEE9constructIS2_JRNS1_11dns_horizonEEEEvPT_DpOT0_
   fun:_ZNSt16allocator_traitsISaIN4adns14dns_zone_cacheEEE9constructIS1_JRNS0_11dns_horizonEEEEvRS2_PT_DpOT0_
   fun:_ZNSt23_Sp_counted_ptr_inplaceIN4adns14dns_zone_cacheESaIS1_ELN9__gnu_cxx12_Lock_policyE2EEC1IJRNS0_11dns_horizonEEEES2_DpOT_
   fun:_ZNSt14__shared_countILN9__gnu_cxx12_Lock_policyE2EEC1IN4adns14dns_zone_cacheESaIS5_EJRNS4_11dns_horizonEEEERPT_St20_Sp_alloc_shared_tagIT0_EDpOT1_
   fun:_ZNSt12__shared_ptrIN4adns14dns_zone_cacheELN9__gnu_cxx12_Lock_policyE2EEC1ISaIS1_EJRNS0_11dns_horizonEEEESt20_Sp_alloc_shared_tagIT_EDpOT0_
   fun:_ZNSt10shared_ptrIN4adns14dns_zone_cacheEEC1ISaIS1_EJRNS0_11dns_horizonEEEESt20_Sp_alloc_shared_tagIT_EDpOT0_
}
{
   <insert_a_suppression_name_here>
   Memcheck:Free
   fun:free
   fun:_ZN4adns2db6columnD1Ev
   fun:_ZN4adns2db8row_zone11init_staticEv
   fun:_ZN4adns2db8row_zone17get_by_horizon_idERNS0_10connectionEj
   fun:_ZN4adns14dns_zone_cache9read_dataERKNS_11dns_horizonE
   fun:_ZN4adns14dns_zone_cacheC1ERKNS_11dns_horizonE
   fun:_ZN9__gnu_cxx13new_allocatorIN4adns14dns_zone_cacheEE9constructIS2_JRNS1_11dns_horizonEEEEvPT_DpOT0_
   fun:_ZNSt16allocator_traitsISaIN4adns14dns_zone_cacheEEE9constructIS1_JRNS0_11dns_horizonEEEEvRS2_PT_DpOT0_
   fun:_ZNSt23_Sp_counted_ptr_inplaceIN4adns14dns_zone_cacheESaIS1_ELN9__gnu_cxx12_Lock_policyE2EEC1IJRNS0_11dns_horizonEEEES2_DpOT_
   fun:_ZNSt14__shared_countILN9__gnu_cxx12_Lock_policyE2EEC1IN4adns14dns_zone_cacheESaIS5_EJRNS4_11dns_horizonEEEERPT_St20_Sp_alloc_shared_tagIT0_EDpOT1_
   fun:_ZNSt12__shared_ptrIN4adns14dns_zone_cacheELN9__gnu_cxx12_Lock_policyE2EEC1ISaIS1_EJRNS0_11dns_horizonEEEESt20_Sp_alloc_shared_tagIT_EDpOT0_
   fun:_ZNSt10shared_ptrIN4adns14dns_zone_cacheEEC1ISaIS1_EJRNS0_11dns_horizonEEEESt20_Sp_alloc_shared_tagIT_EDpOT0_
}
{
   <insert_a_suppression_name_here>
   Memcheck:Free
   fun:free
   fun:_ZN4adns2db6columnD1Ev
   fun:_ZN4adns2db8row_zone11init_staticEv
   fun:_ZN4adns2db8row_zone17get_by_horizon_idERNS0_10connectionEj
   fun:_ZN4adns14dns_zone_cache9read_dataERKNS_11dns_horizonE
   fun:_ZN4adns14dns_zone_cacheC1ERKNS_11dns_horizonE
   fun:_ZN9__gnu_cxx13new_allocatorIN4adns14dns_zone_cacheEE9constructIS2_JRNS1_11dns_horizonEEEEvPT_DpOT0_
   fun:_ZNSt16allocator_traitsISaIN4adns14dns_zone_cacheEEE9constructIS1_JRNS0_11dns_horizonEEEEvRS2_PT_DpOT0_
   fun:_ZNSt23_Sp_counted_ptr_inplaceIN4adns14dns_zone_cacheESaIS1_ELN9__gnu_cxx12_Lock_policyE2EEC1IJRNS0_11dns_horizonEEEES2_DpOT_
   fun:_ZNSt14__shared_countILN9__gnu_cxx12_Lock_policyE2EEC1IN4adns14dns_zone_cacheESaIS5_EJRNS4_11dns_horizonEEEERPT_St20_Sp_alloc_shared_tagIT0_EDpOT1_
   fun:_ZNSt12__shared_ptrIN4adns14dns_zone_cacheELN9__gnu_cxx12_Lock_policyE2EEC1ISaIS1_EJRNS0_11dns_horizonEEEESt20_Sp_alloc_shared_tagIT_EDpOT0_
   fun:_ZNSt10shared_ptrIN4adns14dns_zone_cacheEEC1ISaIS1_EJRNS0_11dns_horizonEEEESt20_Sp_alloc_shared_tagIT_EDpOT0_
}
{
   <insert_a_suppression_name_here>
   Memcheck:Free
   fun:free
   fun:_ZN4adns2db6columnD1Ev
   fun:_ZN4adns2db8row_zone11init_staticEv
   fun:_ZN4adns2db8row_zone17get_by_horizon_idERNS0_10connectionEj
   fun:_ZN4adns14dns_zone_cache9read_dataERKNS_11dns_horizonE
   fun:_ZN4adns14dns_zone_cacheC1ERKNS_11dns_horizonE
   fun:_ZN9__gnu_cxx13new_allocatorIN4adns14dns_zone_cacheEE9constructIS2_JRNS1_11dns_horizonEEEEvPT_DpOT0_
   fun:_ZNSt16allocator_traitsISaIN4adns14dns_zone_cacheEEE9constructIS1_JRNS0_11dns_horizonEEEEvRS2_PT_DpOT0_
   fun:_ZNSt23_Sp_counted_ptr_inplaceIN4adns14dns_zone_cacheESaIS1_ELN9__gnu_cxx12_Lock_policyE2EEC1IJRNS0_11dns_horizonEEEES2_DpOT_
   fun:_ZNSt14__shared_countILN9__gnu_cxx12_Lock_policyE2EEC1IN4adns14dns_zone_cacheESaIS5_EJRNS4_11dns_horizonEEEERPT_St20_Sp_alloc_shared_tagIT0_EDpOT1_
   fun:_ZNSt12__shared_ptrIN4adns14dns_zone_cacheELN9__gnu_cxx12_Lock_policyE2EEC1ISaIS1_EJRNS0_11dns_horizonEEEESt20_Sp_alloc_shared_tagIT_EDpOT0_
   fun:_ZNSt10shared_ptrIN4adns14dns_zone_cacheEEC1ISaIS1_EJRNS0_11dns_horizonEEEESt20_Sp_alloc_shared_tagIT_EDpOT0_
}
{
   <insert_a_suppression_name_here>
   Memcheck:Free
   fun:free
   fun:_ZN4adns2db6columnD1Ev
   fun:_ZN4adns2db8row_zone11init_staticEv
   fun:_ZN4adns2db8row_zone17get_by_horizon_idERNS0_10connectionEj
   fun:_ZN4adns14dns_zone_cache9read_dataERKNS_11dns_horizonE
   fun:_ZN4adns14dns_zone_cacheC1ERKNS_11dns_horizonE
   fun:_ZN9__gnu_cxx13new_allocatorIN4adns14dns_zone_cacheEE9constructIS2_JRNS1_11dns_horizonEEEEvPT_DpOT0_
   fun:_ZNSt16allocator_traitsISaIN4adns14dns_zone_cacheEEE9constructIS1_JRNS0_11dns_horizonEEEEvRS2_PT_DpOT0_
   fun:_ZNSt23_Sp_counted_ptr_inplaceIN4adns14dns_zone_cacheESaIS1_ELN9__gnu_cxx12_Lock_policyE2EEC1IJRNS0_11dns_horizonEEEES2_DpOT_
   fun:_ZNSt14__shared_countILN9__gnu_cxx12_Lock_policyE2EEC1IN4adns14dns_zone_cacheESaIS5_EJRNS4_11dns_horizonEEEERPT_St20_Sp_alloc_shared_tagIT0_EDpOT1_
   fun:_ZNSt12__shared_ptrIN4adns14dns_zone_cacheELN9__gnu_cxx12_Lock_policyE2EEC1ISaIS1_EJRNS0_11dns_horizonEEEESt20_Sp_alloc_shared_tagIT_EDpOT0_
   fun:_ZNSt10shared_ptrIN4adns14dns_zone_cacheEEC1ISaIS1_EJRNS0_11dns_horizonEEEESt20_Sp_alloc_shared_tagIT_EDpOT0_
}
{
   <insert_a_suppression_name_here>
   Memcheck:Free
   fun:free
   fun:_ZN4adns12handler_poolIPNS_20dns_message_envelopeENS_18dns_recursive_slotENS3_8params_tEEC1ENSt7__cxx1112basic_stringIcSt11char_traitsIcESaIcEEERKS4_iii
   fun:_ZN4adns22dns_recursive_resolverC1ERKNS_13server_configEb
   fun:_ZN4adns14dns_tcp_serverC1ERN5boost4asio10io_contextERKNS_13server_configE
   fun:_Z11run_serversv
   fun:main
}
{
   <insert_a_suppression_name_here>
   Memcheck:Free
   fun:free
   fun:_ZN4adns12handler_poolIPNS_20dns_message_envelopeENS_18dns_recursive_slotENS3_8params_tEEC1ENSt7__cxx1112basic_stringIcSt11char_traitsIcESaIcEEERKS4_iii
   fun:_ZN4adns22dns_recursive_resolverC1ERKNS_13server_configEb
   fun:_ZN4adns14dns_tcp_serverC1ERN5boost4asio10io_contextERKNS_13server_configE
   fun:_Z11run_serversv
   fun:main
}
{
   <insert_a_suppression_name_here>
   Memcheck:Free
   fun:free
   fun:_ZN4adns12handler_poolIPNS_20dns_message_envelopeENS_18dns_recursive_slotENS3_8params_tEEC1ENSt7__cxx1112basic_stringIcSt11char_traitsIcESaIcEEERKS4_iii
   fun:_ZN4adns22dns_recursive_resolverC1ERKNS_13server_configEb
   fun:_ZN4adns14dns_tcp_serverC1ERN5boost4asio10io_contextERKNS_13server_configE
   fun:_Z11run_serversv
   fun:main
}
{
   <insert_a_suppression_name_here>
   Memcheck:Free
   fun:free
   fun:_ZN4adns22dns_recursive_resolverC1ERKNS_13server_configEb
   fun:_ZN4adns14dns_tcp_serverC1ERN5boost4asio10io_contextERKNS_13server_configE
   fun:_Z11run_serversv
   fun:main
}
{
   <insert_a_suppression_name_here>
   Memcheck:Free
   fun:free
   fun:_ZN4adns12handler_poolIPNS_20dns_message_envelopeENS_19dns_forwarding_slotENS3_8params_tEEC1ENSt7__cxx1112basic_stringIcSt11char_traitsIcESaIcEEERKS4_iii
   fun:_ZN4adns23dns_forwarding_resolverC1ERKNS_13server_configE
   fun:_ZN4adns14dns_tcp_serverC1ERN5boost4asio10io_contextERKNS_13server_configE
   fun:_Z11run_serversv
   fun:main
}
{
   <insert_a_suppression_name_here>
   Memcheck:Free
   fun:free
   fun:_ZN4adns12handler_poolIPNS_20dns_message_envelopeENS_19dns_forwarding_slotENS3_8params_tEEC1ENSt7__cxx1112basic_stringIcSt11char_traitsIcESaIcEEERKS4_iii
   fun:_ZN4adns23dns_forwarding_resolverC1ERKNS_13server_configE
   fun:_ZN4adns14dns_tcp_serverC1ERN5boost4asio10io_contextERKNS_13server_configE
   fun:_Z11run_serversv
   fun:main
}
{
   <insert_a_suppression_name_here>
   Memcheck:Free
   fun:free
   fun:_ZN4adns12handler_poolIPNS_20dns_message_envelopeENS_19dns_forwarding_slotENS3_8params_tEEC1ENSt7__cxx1112basic_stringIcSt11char_traitsIcESaIcEEERKS4_iii
   fun:_ZN4adns23dns_forwarding_resolverC1ERKNS_13server_configE
   fun:_ZN4adns14dns_tcp_serverC1ERN5boost4asio10io_contextERKNS_13server_configE
   fun:_Z11run_serversv
   fun:main
}
{
   <insert_a_suppression_name_here>
   Memcheck:Free
   fun:free
   fun:_ZN4adns23dns_forwarding_resolverC1ERKNS_13server_configE
   fun:_ZN4adns14dns_tcp_serverC1ERN5boost4asio10io_contextERKNS_13server_configE
   fun:_Z11run_serversv
   fun:main
}
{
   <insert_a_suppression_name_here>
   Memcheck:Free
   fun:free
   fun:_ZN4adns12handler_poolIPNS_20dns_message_envelopeENS_11dns_handlerENS3_8params_tEEC1ENSt7__cxx1112basic_stringIcSt11char_traitsIcESaIcEEERKS4_iii
   fun:_ZN4adns18dns_tcp_connectionC1ERNS_13server_configESt10shared_ptrINS_17dns_auth_resolverEES3_INS_22dns_recursive_resolverEES3_INS_23dns_forwarding_resolverEERNS_11thread_poolIS0_EE
   fun:_ZN4adns14dns_tcp_serverC1ERN5boost4asio10io_contextERKNS_13server_configE
   fun:_Z11run_serversv
   fun:main
}
{
   <insert_a_suppression_name_here>
   Memcheck:Free
   fun:free
   fun:_ZN4adns12handler_poolIPNS_20dns_message_envelopeENS_11dns_handlerENS3_8params_tEEC1ENSt7__cxx1112basic_stringIcSt11char_traitsIcESaIcEEERKS4_iii
   fun:_ZN4adns18dns_tcp_connectionC1ERNS_13server_configESt10shared_ptrINS_17dns_auth_resolverEES3_INS_22dns_recursive_resolverEES3_INS_23dns_forwarding_resolverEERNS_11thread_poolIS0_EE
   fun:_ZN4adns14dns_tcp_serverC1ERN5boost4asio10io_contextERKNS_13server_configE
   fun:_Z11run_serversv
   fun:main
}
{
   <insert_a_suppression_name_here>
   Memcheck:Free
   fun:free
   fun:_ZN4adns12handler_poolIPNS_20dns_message_envelopeENS_11dns_handlerENS3_8params_tEEC1ENSt7__cxx1112basic_stringIcSt11char_traitsIcESaIcEEERKS4_iii
   fun:_ZN4adns18dns_tcp_connectionC1ERNS_13server_configESt10shared_ptrINS_17dns_auth_resolverEES3_INS_22dns_recursive_resolverEES3_INS_23dns_forwarding_resolverEERNS_11thread_poolIS0_EE
   fun:_ZN4adns14dns_tcp_serverC1ERN5boost4asio10io_contextERKNS_13server_configE
   fun:_Z11run_serversv
   fun:main
}
{
   <insert_a_suppression_name_here>
   Memcheck:Free
   fun:free
   fun:_ZN5boost13property_tree11string_pathINSt7__cxx1112basic_stringIcSt11char_traitsIcESaIcEEENS0_13id_translatorIS7_EEED1Ev
   fun:_ZN4adns6config15get_tree_stringERKNSt7__cxx1112basic_stringIcSt11char_traitsIcESaIcEEES8_
   fun:_ZN4adns6config17ssl_root_pem_fileB5cxx11Ev
   fun:_ZN4adns17ssl_server_socket4initEv
   fun:_ZN4adns17ssl_server_socketC1Ev
   fun:_ZN4adns14control_server7connectEv
   fun:_ZN4adns14control_server14accept_inboundEv
   fun:_ZSt13__invoke_implIvMN4adns14control_serverEFvvEPS1_JEET_St21__invoke_memfun_derefOT0_OT1_DpOT2_
   fun:_ZSt8__invokeIMN4adns14control_serverEFvvEJPS1_EENSt15__invoke_resultIT_JDpT0_EE4typeEOS6_DpOS7_
   fun:_ZNSt6thread8_InvokerISt5tupleIJMN4adns14control_serverEFvvEPS3_EEE9_M_invokeIJLm0ELm1EEEEvSt12_Index_tupleIJXspT_EEE
   fun:_ZNSt6thread8_InvokerISt5tupleIJMN4adns14control_serverEFvvEPS3_EEEclEv
}
{
   <insert_a_suppression_name_here>
   Memcheck:Free
   fun:free
   fun:_ZN5boost13property_tree11string_pathINSt7__cxx1112basic_stringIcSt11char_traitsIcESaIcEEENS0_13id_translatorIS7_EEED1Ev
   fun:_ZN4adns6config15get_tree_stringERKNSt7__cxx1112basic_stringIcSt11char_traitsIcESaIcEEES8_
   fun:_ZN4adns6config19ssl_server_pem_fileB5cxx11Ev
   fun:_ZN4adns17ssl_server_socket4initEv
   fun:_ZN4adns17ssl_server_socketC1Ev
   fun:_ZN4adns14control_server7connectEv
   fun:_ZN4adns14control_server14accept_inboundEv
   fun:_ZSt13__invoke_implIvMN4adns14control_serverEFvvEPS1_JEET_St21__invoke_memfun_derefOT0_OT1_DpOT2_
   fun:_ZSt8__invokeIMN4adns14control_serverEFvvEJPS1_EENSt15__invoke_resultIT_JDpT0_EE4typeEOS6_DpOS7_
   fun:_ZNSt6thread8_InvokerISt5tupleIJMN4adns14control_serverEFvvEPS3_EEE9_M_invokeIJLm0ELm1EEEEvSt12_Index_tupleIJXspT_EEE
   fun:_ZNSt6thread8_InvokerISt5tupleIJMN4adns14control_serverEFvvEPS3_EEEclEv
}
{
   <insert_a_suppression_name_here>
   Memcheck:Free
   fun:free
   fun:_ZN5boost13property_tree11string_pathINSt7__cxx1112basic_stringIcSt11char_traitsIcESaIcEEENS0_13id_translatorIS7_EEED1Ev
   fun:_ZN4adns6config15get_tree_stringERKNSt7__cxx1112basic_stringIcSt11char_traitsIcESaIcEEES8_
   fun:_ZN4adns6config16ssl_key_passwordB5cxx11Ev
   fun:_ZN4adns10ssl_socket11password_cbEPciiPv
   fun:PEM_do_header
   obj:/usr/lib/x86_64-linux-gnu/libcrypto.so.1.1
   fun:PEM_bytes_read_bio_secmem
   fun:PEM_read_bio_PrivateKey
   fun:SSL_CTX_use_PrivateKey_file
   fun:_ZN4adns17ssl_server_socket4initEv
   fun:_ZN4adns17ssl_server_socketC1Ev
}
{
   <insert_a_suppression_name_here>
   Memcheck:Free
   fun:free
   fun:_ZN5boost13property_tree11string_pathINSt7__cxx1112basic_stringIcSt11char_traitsIcESaIcEEENS0_13id_translatorIS7_EEED1Ev
   fun:_ZN4adns6config15get_tree_stringERKNSt7__cxx1112basic_stringIcSt11char_traitsIcESaIcEEES8_
   fun:_ZN4adns6config15ssl_cypher_listB5cxx11Ev
   fun:_ZN4adns17ssl_server_socket4initEv
   fun:_ZN4adns17ssl_server_socketC1Ev
   fun:_ZN4adns14control_server7connectEv
   fun:_ZN4adns14control_server14accept_inboundEv
   fun:_ZSt13__invoke_implIvMN4adns14control_serverEFvvEPS1_JEET_St21__invoke_memfun_derefOT0_OT1_DpOT2_
   fun:_ZSt8__invokeIMN4adns14control_serverEFvvEJPS1_EENSt15__invoke_resultIT_JDpT0_EE4typeEOS6_DpOS7_
   fun:_ZNSt6thread8_InvokerISt5tupleIJMN4adns14control_serverEFvvEPS3_EEE9_M_invokeIJLm0ELm1EEEEvSt12_Index_tupleIJXspT_EEE
   fun:_ZNSt6thread8_InvokerISt5tupleIJMN4adns14control_serverEFvvEPS3_EEEclEv
}
{
   <insert_a_suppression_name_here>
   Memcheck:Free
   fun:free
   fun:_ZN4adns10socket_set8wait_oneEj
   fun:_ZN4adns14dns_udp_server15receive_inboundEv
   fun:_ZSt13__invoke_implIvMN4adns14dns_udp_serverEFvvEPS1_JEET_St21__invoke_memfun_derefOT0_OT1_DpOT2_
   fun:_ZSt8__invokeIMN4adns14dns_udp_serverEFvvEJPS1_EENSt15__invoke_resultIT_JDpT0_EE4typeEOS6_DpOS7_
   fun:_ZNSt6thread8_InvokerISt5tupleIJMN4adns14dns_udp_serverEFvvEPS3_EEE9_M_invokeIJLm0ELm1EEEEvSt12_Index_tupleIJXspT_EEE
   fun:_ZNSt6thread8_InvokerISt5tupleIJMN4adns14dns_udp_serverEFvvEPS3_EEEclEv
   fun:_ZNSt6thread11_State_implINS_8_InvokerISt5tupleIJMN4adns14dns_udp_serverEFvvEPS4_EEEEE6_M_runEv
   obj:/usr/lib/x86_64-linux-gnu/libstdc++.so.6.0.28
   fun:start_thread
   fun:clone
}
{
   <insert_a_suppression_name_here>
   Memcheck:Free
   fun:free
   fun:_ZN4adns10socket_set8wait_oneEj
   fun:_ZN4adns14control_server14accept_inboundEv
   fun:_ZSt13__invoke_implIvMN4adns14control_serverEFvvEPS1_JEET_St21__invoke_memfun_derefOT0_OT1_DpOT2_
   fun:_ZSt8__invokeIMN4adns14control_serverEFvvEJPS1_EENSt15__invoke_resultIT_JDpT0_EE4typeEOS6_DpOS7_
   fun:_ZNSt6thread8_InvokerISt5tupleIJMN4adns14control_serverEFvvEPS3_EEE9_M_invokeIJLm0ELm1EEEEvSt12_Index_tupleIJXspT_EEE
   fun:_ZNSt6thread8_InvokerISt5tupleIJMN4adns14control_serverEFvvEPS3_EEEclEv
   fun:_ZNSt6thread11_State_implINS_8_InvokerISt5tupleIJMN4adns14control_serverEFvvEPS4_EEEEE6_M_runEv
   obj:/usr/lib/x86_64-linux-gnu/libstdc++.so.6.0.28
   fun:start_thread
   fun:clone
}
{
   <insert_a_suppression_name_here>
   Memcheck:Free
   fun:free
   fun:_ZN4adns13message_queueIPNS_20dns_message_envelopeEED1Ev
   fun:_ZN4adns13message_queueIPNS_20dns_message_envelopeEED0Ev
   fun:_ZN4adns12handler_poolIPNS_20dns_message_envelopeENS_19dns_forwarding_slotENS3_8params_tEED1Ev
   fun:_ZN4adns12handler_poolIPNS_20dns_message_envelopeENS_19dns_forwarding_slotENS3_8params_tEED0Ev
   fun:_ZN4adns23dns_forwarding_resolverD1Ev
   fun:_ZN9__gnu_cxx13new_allocatorIN4adns23dns_forwarding_resolverEE7destroyIS2_EEvPT_
   fun:_ZNSt16allocator_traitsISaIN4adns23dns_forwarding_resolverEEE7destroyIS1_EEvRS2_PT_
   fun:_ZNSt23_Sp_counted_ptr_inplaceIN4adns23dns_forwarding_resolverESaIS1_ELN9__gnu_cxx12_Lock_policyE2EE10_M_disposeEv
   fun:_ZNSt16_Sp_counted_baseILN9__gnu_cxx12_Lock_policyE2EE10_M_releaseEv
   fun:_ZNSt14__shared_countILN9__gnu_cxx12_Lock_policyE2EED1Ev
   fun:_ZNSt12__shared_ptrIN4adns23dns_forwarding_resolverELN9__gnu_cxx12_Lock_policyE2EED1Ev
}
{
   <insert_a_suppression_name_here>
   Memcheck:Free
   fun:free
   fun:_ZN4adns13message_queueIPNS_20dns_message_envelopeEED0Ev
   fun:_ZN4adns12handler_poolIPNS_20dns_message_envelopeENS_19dns_forwarding_slotENS3_8params_tEED1Ev
   fun:_ZN4adns12handler_poolIPNS_20dns_message_envelopeENS_19dns_forwarding_slotENS3_8params_tEED0Ev
   fun:_ZN4adns23dns_forwarding_resolverD1Ev
   fun:_ZN9__gnu_cxx13new_allocatorIN4adns23dns_forwarding_resolverEE7destroyIS2_EEvPT_
   fun:_ZNSt16allocator_traitsISaIN4adns23dns_forwarding_resolverEEE7destroyIS1_EEvRS2_PT_
   fun:_ZNSt23_Sp_counted_ptr_inplaceIN4adns23dns_forwarding_resolverESaIS1_ELN9__gnu_cxx12_Lock_policyE2EE10_M_disposeEv
   fun:_ZNSt16_Sp_counted_baseILN9__gnu_cxx12_Lock_policyE2EE10_M_releaseEv
   fun:_ZNSt14__shared_countILN9__gnu_cxx12_Lock_policyE2EED1Ev
   fun:_ZNSt12__shared_ptrIN4adns23dns_forwarding_resolverELN9__gnu_cxx12_Lock_policyE2EED1Ev
   fun:_ZNSt10shared_ptrIN4adns23dns_forwarding_resolverEED1Ev
}
{
   <insert_a_suppression_name_here>
   Memcheck:Free
   fun:free
   fun:_ZN4adns13message_queueIPNS_20dns_message_envelopeEED1Ev
   fun:_ZN4adns13message_queueIPNS_20dns_message_envelopeEED0Ev
   fun:_ZN4adns12handler_poolIPNS_20dns_message_envelopeENS_19dns_forwarding_slotENS3_8params_tEED1Ev
   fun:_ZN4adns12handler_poolIPNS_20dns_message_envelopeENS_19dns_forwarding_slotENS3_8params_tEED0Ev
   fun:_ZN4adns23dns_forwarding_resolverD1Ev
   fun:_ZN9__gnu_cxx13new_allocatorIN4adns23dns_forwarding_resolverEE7destroyIS2_EEvPT_
   fun:_ZNSt16allocator_traitsISaIN4adns23dns_forwarding_resolverEEE7destroyIS1_EEvRS2_PT_
   fun:_ZNSt23_Sp_counted_ptr_inplaceIN4adns23dns_forwarding_resolverESaIS1_ELN9__gnu_cxx12_Lock_policyE2EE10_M_disposeEv
   fun:_ZNSt16_Sp_counted_baseILN9__gnu_cxx12_Lock_policyE2EE10_M_releaseEv
   fun:_ZNSt14__shared_countILN9__gnu_cxx12_Lock_policyE2EED1Ev
   fun:_ZNSt12__shared_ptrIN4adns23dns_forwarding_resolverELN9__gnu_cxx12_Lock_policyE2EED1Ev
}
{
   <insert_a_suppression_name_here>
   Memcheck:Free
   fun:free
   fun:_ZN4adns13message_queueIPNS_20dns_message_envelopeEED0Ev
   fun:_ZN4adns12handler_poolIPNS_20dns_message_envelopeENS_19dns_forwarding_slotENS3_8params_tEED1Ev
   fun:_ZN4adns12handler_poolIPNS_20dns_message_envelopeENS_19dns_forwarding_slotENS3_8params_tEED0Ev
   fun:_ZN4adns23dns_forwarding_resolverD1Ev
   fun:_ZN9__gnu_cxx13new_allocatorIN4adns23dns_forwarding_resolverEE7destroyIS2_EEvPT_
   fun:_ZNSt16allocator_traitsISaIN4adns23dns_forwarding_resolverEEE7destroyIS1_EEvRS2_PT_
   fun:_ZNSt23_Sp_counted_ptr_inplaceIN4adns23dns_forwarding_resolverESaIS1_ELN9__gnu_cxx12_Lock_policyE2EE10_M_disposeEv
   fun:_ZNSt16_Sp_counted_baseILN9__gnu_cxx12_Lock_policyE2EE10_M_releaseEv
   fun:_ZNSt14__shared_countILN9__gnu_cxx12_Lock_policyE2EED1Ev
   fun:_ZNSt12__shared_ptrIN4adns23dns_forwarding_resolverELN9__gnu_cxx12_Lock_policyE2EED1Ev
   fun:_ZNSt10shared_ptrIN4adns23dns_forwarding_resolverEED1Ev
}
{
   <insert_a_suppression_name_here>
   Memcheck:Free
   fun:free
   fun:_ZN4adns13message_queueIPNS_20dns_message_envelopeEED1Ev
   fun:_ZN4adns13message_queueIPNS_20dns_message_envelopeEED0Ev
   fun:_ZN4adns12handler_poolIPNS_20dns_message_envelopeENS_18dns_recursive_slotENS3_8params_tEED1Ev
   fun:_ZN4adns12handler_poolIPNS_20dns_message_envelopeENS_18dns_recursive_slotENS3_8params_tEED0Ev
   fun:_ZN4adns22dns_recursive_resolverD1Ev
   fun:_ZN9__gnu_cxx13new_allocatorIN4adns22dns_recursive_resolverEE7destroyIS2_EEvPT_
   fun:_ZNSt16allocator_traitsISaIN4adns22dns_recursive_resolverEEE7destroyIS1_EEvRS2_PT_
   fun:_ZNSt23_Sp_counted_ptr_inplaceIN4adns22dns_recursive_resolverESaIS1_ELN9__gnu_cxx12_Lock_policyE2EE10_M_disposeEv
   fun:_ZNSt16_Sp_counted_baseILN9__gnu_cxx12_Lock_policyE2EE10_M_releaseEv
   fun:_ZNSt14__shared_countILN9__gnu_cxx12_Lock_policyE2EED1Ev
   fun:_ZNSt12__shared_ptrIN4adns22dns_recursive_resolverELN9__gnu_cxx12_Lock_policyE2EED1Ev
}
{
   <insert_a_suppression_name_here>
   Memcheck:Free
   fun:free
   fun:_ZN4adns13message_queueIPNS_20dns_message_envelopeEED0Ev
   fun:_ZN4adns12handler_poolIPNS_20dns_message_envelopeENS_18dns_recursive_slotENS3_8params_tEED1Ev
   fun:_ZN4adns12handler_poolIPNS_20dns_message_envelopeENS_18dns_recursive_slotENS3_8params_tEED0Ev
   fun:_ZN4adns22dns_recursive_resolverD1Ev
   fun:_ZN9__gnu_cxx13new_allocatorIN4adns22dns_recursive_resolverEE7destroyIS2_EEvPT_
   fun:_ZNSt16allocator_traitsISaIN4adns22dns_recursive_resolverEEE7destroyIS1_EEvRS2_PT_
   fun:_ZNSt23_Sp_counted_ptr_inplaceIN4adns22dns_recursive_resolverESaIS1_ELN9__gnu_cxx12_Lock_policyE2EE10_M_disposeEv
   fun:_ZNSt16_Sp_counted_baseILN9__gnu_cxx12_Lock_policyE2EE10_M_releaseEv
   fun:_ZNSt14__shared_countILN9__gnu_cxx12_Lock_policyE2EED1Ev
   fun:_ZNSt12__shared_ptrIN4adns22dns_recursive_resolverELN9__gnu_cxx12_Lock_policyE2EED1Ev
   fun:_ZNSt10shared_ptrIN4adns22dns_recursive_resolverEED1Ev
}
{
   <insert_a_suppression_name_here>
   Memcheck:Free
   fun:free
   fun:_ZN4adns13message_queueIPNS_20dns_message_envelopeEED1Ev
   fun:_ZN4adns13message_queueIPNS_20dns_message_envelopeEED0Ev
   fun:_ZN4adns12handler_poolIPNS_20dns_message_envelopeENS_18dns_recursive_slotENS3_8params_tEED1Ev
   fun:_ZN4adns12handler_poolIPNS_20dns_message_envelopeENS_18dns_recursive_slotENS3_8params_tEED0Ev
   fun:_ZN4adns22dns_recursive_resolverD1Ev
   fun:_ZN9__gnu_cxx13new_allocatorIN4adns22dns_recursive_resolverEE7destroyIS2_EEvPT_
   fun:_ZNSt16allocator_traitsISaIN4adns22dns_recursive_resolverEEE7destroyIS1_EEvRS2_PT_
   fun:_ZNSt23_Sp_counted_ptr_inplaceIN4adns22dns_recursive_resolverESaIS1_ELN9__gnu_cxx12_Lock_policyE2EE10_M_disposeEv
   fun:_ZNSt16_Sp_counted_baseILN9__gnu_cxx12_Lock_policyE2EE10_M_releaseEv
   fun:_ZNSt14__shared_countILN9__gnu_cxx12_Lock_policyE2EED1Ev
   fun:_ZNSt12__shared_ptrIN4adns22dns_recursive_resolverELN9__gnu_cxx12_Lock_policyE2EED1Ev
}
{
   <insert_a_suppression_name_here>
   Memcheck:Free
   fun:free
   fun:_ZN4adns13message_queueIPNS_20dns_message_envelopeEED0Ev
   fun:_ZN4adns12handler_poolIPNS_20dns_message_envelopeENS_18dns_recursive_slotENS3_8params_tEED1Ev
   fun:_ZN4adns12handler_poolIPNS_20dns_message_envelopeENS_18dns_recursive_slotENS3_8params_tEED0Ev
   fun:_ZN4adns22dns_recursive_resolverD1Ev
   fun:_ZN9__gnu_cxx13new_allocatorIN4adns22dns_recursive_resolverEE7destroyIS2_EEvPT_
   fun:_ZNSt16allocator_traitsISaIN4adns22dns_recursive_resolverEEE7destroyIS1_EEvRS2_PT_
   fun:_ZNSt23_Sp_counted_ptr_inplaceIN4adns22dns_recursive_resolverESaIS1_ELN9__gnu_cxx12_Lock_policyE2EE10_M_disposeEv
   fun:_ZNSt16_Sp_counted_baseILN9__gnu_cxx12_Lock_policyE2EE10_M_releaseEv
   fun:_ZNSt14__shared_countILN9__gnu_cxx12_Lock_policyE2EED1Ev
   fun:_ZNSt12__shared_ptrIN4adns22dns_recursive_resolverELN9__gnu_cxx12_Lock_policyE2EED1Ev
   fun:_ZNSt10shared_ptrIN4adns22dns_recursive_resolverEED1Ev
}
{
   <insert_a_suppression_name_here>
   Memcheck:Free
   fun:free
   fun:_ZN4adns12handler_poolIPNS_20dns_message_envelopeENS_11dns_handlerENS3_8params_tEED1Ev
   fun:_ZN4adns12handler_poolIPNS_20dns_message_envelopeENS_11dns_handlerENS3_8params_tEED0Ev
   fun:_ZN4adns18dns_tcp_connectionD1Ev
   fun:_ZN4adns18dns_tcp_connectionD0Ev
   fun:_ZN4adns11thread_poolINS_18dns_tcp_connectionEED1Ev
   fun:_ZN4adns14dns_tcp_serverD1Ev
   fun:_ZN4adns14dns_tcp_serverD0Ev
   fun:_ZNSt15_Sp_counted_ptrIPN4adns6serverELN9__gnu_cxx12_Lock_policyE2EE10_M_disposeEv
   fun:_ZNSt16_Sp_counted_baseILN9__gnu_cxx12_Lock_policyE2EE10_M_releaseEv
   fun:_ZNSt14__shared_countILN9__gnu_cxx12_Lock_policyE2EED1Ev
   fun:_ZNSt12__shared_ptrIN4adns6serverELN9__gnu_cxx12_Lock_policyE2EED1Ev
}
{
   <insert_a_suppression_name_here>
   Memcheck:Free
   fun:free
   fun:_ZN4adns12handler_poolIPNS_20dns_message_envelopeENS_11dns_handlerENS3_8params_tEED0Ev
   fun:_ZN4adns18dns_tcp_connectionD1Ev
   fun:_ZN4adns18dns_tcp_connectionD0Ev
   fun:_ZN4adns11thread_poolINS_18dns_tcp_connectionEED1Ev
   fun:_ZN4adns14dns_tcp_serverD1Ev
   fun:_ZN4adns14dns_tcp_serverD0Ev
   fun:_ZNSt15_Sp_counted_ptrIPN4adns6serverELN9__gnu_cxx12_Lock_policyE2EE10_M_disposeEv
   fun:_ZNSt16_Sp_counted_baseILN9__gnu_cxx12_Lock_policyE2EE10_M_releaseEv
   fun:_ZNSt14__shared_countILN9__gnu_cxx12_Lock_policyE2EED1Ev
   fun:_ZNSt12__shared_ptrIN4adns6serverELN9__gnu_cxx12_Lock_policyE2EED1Ev
   fun:_ZNSt10shared_ptrIN4adns6serverEED1Ev
}
{
   <insert_a_suppression_name_here>
   Memcheck:Free
   fun:free
   fun:_ZN4adns12handler_poolIPNS_20dns_message_envelopeENS_19dns_forwarding_slotENS3_8params_tEED0Ev
   fun:_ZN4adns23dns_forwarding_resolverD1Ev
   fun:_ZN4adns23dns_forwarding_resolverD0Ev
   fun:_ZNSt15_Sp_counted_ptrIPN4adns23dns_forwarding_resolverELN9__gnu_cxx12_Lock_policyE2EE10_M_disposeEv
   fun:_ZNSt16_Sp_counted_baseILN9__gnu_cxx12_Lock_policyE2EE10_M_releaseEv
   fun:_ZNSt14__shared_countILN9__gnu_cxx12_Lock_policyE2EED1Ev
   fun:_ZNSt12__shared_ptrIN4adns23dns_forwarding_resolverELN9__gnu_cxx12_Lock_policyE2EED1Ev
   fun:_ZNSt10shared_ptrIN4adns23dns_forwarding_resolverEED1Ev
   fun:_ZN4adns11dns_handler8params_tD1Ev
   fun:_ZN4adns12handler_poolIPNS_20dns_message_envelopeENS_11dns_handlerENS3_8params_tEED1Ev
   fun:_ZN4adns12handler_poolIPNS_20dns_message_envelopeENS_11dns_handlerENS3_8params_tEED0Ev
}
{
   <insert_a_suppression_name_here>
   Memcheck:Free
   fun:free
   fun:_ZN4adns13message_queueIPNS_20dns_message_envelopeEED1Ev
   fun:_ZN9__gnu_cxx13new_allocatorIN4adns13message_queueIPNS1_20dns_message_envelopeEEEE7destroyIS5_EEvPT_
   fun:_ZNSt16allocator_traitsISaIN4adns13message_queueIPNS0_20dns_message_envelopeEEEEE7destroyIS4_EEvRS5_PT_
   fun:_ZNSt23_Sp_counted_ptr_inplaceIN4adns13message_queueIPNS0_20dns_message_envelopeEEESaIS4_ELN9__gnu_cxx12_Lock_policyE2EE10_M_disposeEv
   fun:_ZNSt16_Sp_counted_baseILN9__gnu_cxx12_Lock_policyE2EE10_M_releaseEv
   fun:_ZNSt14__shared_countILN9__gnu_cxx12_Lock_policyE2EED1Ev
   fun:_ZNSt12__shared_ptrIN4adns13message_queueIPNS0_20dns_message_envelopeEEELN9__gnu_cxx12_Lock_policyE2EED1Ev
   fun:_ZNSt10shared_ptrIN4adns13message_queueIPNS0_20dns_message_envelopeEEEED1Ev
   fun:_ZSt8_DestroyISt10shared_ptrIN4adns13message_queueIPNS1_20dns_message_envelopeEEEEEvPT_
   fun:_ZNSt12_Destroy_auxILb0EE9__destroyIPSt10shared_ptrIN4adns13message_queueIPNS3_20dns_message_envelopeEEEEEEvT_SA_
   fun:_ZSt8_DestroyIPSt10shared_ptrIN4adns13message_queueIPNS1_20dns_message_envelopeEEEEEvT_S8_
}
{
   <insert_a_suppression_name_here>
   Memcheck:Free
   fun:free
   fun:_ZN4adns12handler_poolIPNS_20dns_message_envelopeENS_18dns_recursive_slotENS3_8params_tEED0Ev
   fun:_ZN4adns22dns_recursive_resolverD1Ev
   fun:_ZN4adns22dns_recursive_resolverD0Ev
   fun:_ZNSt15_Sp_counted_ptrIPN4adns22dns_recursive_resolverELN9__gnu_cxx12_Lock_policyE2EE10_M_disposeEv
   fun:_ZNSt16_Sp_counted_baseILN9__gnu_cxx12_Lock_policyE2EE10_M_releaseEv
   fun:_ZNSt14__shared_countILN9__gnu_cxx12_Lock_policyE2EED1Ev
   fun:_ZNSt12__shared_ptrIN4adns22dns_recursive_resolverELN9__gnu_cxx12_Lock_policyE2EED1Ev
   fun:_ZNSt10shared_ptrIN4adns22dns_recursive_resolverEED1Ev
   fun:_ZN4adns11dns_handler8params_tD1Ev
   fun:_ZN4adns12handler_poolIPNS_20dns_message_envelopeENS_11dns_handlerENS3_8params_tEED1Ev
   fun:_ZN4adns12handler_poolIPNS_20dns_message_envelopeENS_11dns_handlerENS3_8params_tEED0Ev
}
{
   <insert_a_suppression_name_here>
   Memcheck:Free
   fun:free
   obj:/usr/lib/x86_64-linux-gnu/libboost_log.so.1.71.0
   fun:_ZN5boost6detail12set_tss_dataEPKvPFvPFvPvES3_ES5_S3_b
   obj:/usr/lib/x86_64-linux-gnu/libboost_log.so.1.71.0
   fun:__run_exit_handlers
   fun:exit
   fun:main
}
{
   <insert_a_suppression_name_here>
   Memcheck:Free
   fun:free
   fun:_ZN5boost3log11v2_mt_posix3aux14light_functionIFbRKNS1_19attribute_value_setEEE4implINS_7phoenix5actorINS_5proto7exprns_10basic_exprINSC_6tagns_3tag13greater_equalENSC_7argsns_5list2INS1_11expressions15attribute_actorINS1_7trivial14severity_levelENS1_16fallback_to_noneENSM_3tag8severityESB_EENSB_INSE_INSG_8terminalENSI_4termISN_EELl0EEEEEEELl2EEEEEE12destroy_implEPv
   obj:/usr/lib/x86_64-linux-gnu/libboost_log.so.1.71.0
   obj:/usr/lib/x86_64-linux-gnu/libboost_log.so.1.71.0
   fun:__run_exit_handlers
   fun:exit
   fun:main
}
{
   <insert_a_suppression_name_here>
   Memcheck:Free
   fun:free
   obj:/usr/lib/x86_64-linux-gnu/libboost_log.so.1.71.0
   fun:_ZN5boost6detail12set_tss_dataEPKvPFvPFvPvES3_ES5_S3_b
   obj:/usr/lib/x86_64-linux-gnu/libboost_log.so.1.71.0
   obj:/usr/lib/x86_64-linux-gnu/libboost_log.so.1.71.0
   fun:__run_exit_handlers
   fun:exit
   fun:main
}
{
   <insert_a_suppression_name_here>
   Memcheck:Free
   fun:free
   fun:_ZN5boost6detail12set_tss_dataEPKvPFvPFvPvES3_ES5_S3_b
   obj:/usr/lib/x86_64-linux-gnu/libboost_log.so.1.71.0
   obj:/usr/lib/x86_64-linux-gnu/libboost_log.so.1.71.0
   fun:__run_exit_handlers
   fun:exit
   fun:main
}
{
   <insert_a_suppression_name_here>
   Memcheck:Free
   fun:free
   fun:_ZN4adns7monitor6info_tD1Ev
   fun:_ZSt8_DestroyIN4adns7monitor6info_tEEvPT_
   fun:_ZNSt12_Destroy_auxILb0EE9__destroyIPN4adns7monitor6info_tEEEvT_S6_
   fun:_ZSt8_DestroyIPN4adns7monitor6info_tEEvT_S4_
   fun:_ZSt8_DestroyIPN4adns7monitor6info_tES2_EvT_S4_RSaIT0_E
   fun:_ZNSt6vectorIN4adns7monitor6info_tESaIS2_EED1Ev
   fun:__run_exit_handlers
   fun:exit
   fun:main
}
{
   <insert_a_suppression_name_here>
   Memcheck:Free
   fun:free
   fun:_ZN4adns7monitor6info_tD1Ev
   fun:_ZSt8_DestroyIN4adns7monitor6info_tEEvPT_
   fun:_ZNSt12_Destroy_auxILb0EE9__destroyIPN4adns7monitor6info_tEEEvT_S6_
   fun:_ZSt8_DestroyIPN4adns7monitor6info_tEEvT_S4_
   fun:_ZSt8_DestroyIPN4adns7monitor6info_tES2_EvT_S4_RSaIT0_E
   fun:_ZNSt6vectorIN4adns7monitor6info_tESaIS2_EED1Ev
   fun:__run_exit_handlers
   fun:exit
   fun:main
}
{
   <insert_a_suppression_name_here>
   Memcheck:Free
   fun:free
   fun:_ZN5boost13property_tree11basic_ptreeINSt7__cxx1112basic_stringIcSt11char_traitsIcESaIcEEES7_St4lessIS7_EED1Ev
   fun:__run_exit_handlers
   fun:exit
   fun:main
}
{
   <insert_a_suppression_name_here>
   Memcheck:Free
   fun:free
   fun:_ZN9__gnu_cxx13new_allocatorIPNSt8__detail15_Hash_node_baseEE10deallocateEPS3_m
   fun:_ZNSt16allocator_traitsISaIPNSt8__detail15_Hash_node_baseEEE10deallocateERS3_PS2_m
   fun:_ZNSt8__detail16_Hashtable_allocISaINS_10_Hash_nodeISt4pairIKN4adns8dns_nameESt10shared_ptrINS3_26dns_recursive_cache_answerEEELb1EEEEE21_M_deallocate_bucketsEPPNS_15_Hash_node_baseEm
   fun:_ZNSt10_HashtableIN4adns8dns_nameESt4pairIKS1_St10shared_ptrINS0_26dns_recursive_cache_answerEEESaIS7_ENSt8__detail10_Select1stESt8equal_toIS1_ESt4hashIS1_ENS9_18_Mod_range_hashingENS9_20_Default_ranged_hashENS9_20_Prime_rehash_policyENS9_17_Hashtable_traitsILb1ELb0ELb1EEEE21_M_deallocate_bucketsEPPNS9_15_Hash_node_baseEm
   fun:_ZNSt10_HashtableIN4adns8dns_nameESt4pairIKS1_St10shared_ptrINS0_26dns_recursive_cache_answerEEESaIS7_ENSt8__detail10_Select1stESt8equal_toIS1_ESt4hashIS1_ENS9_18_Mod_range_hashingENS9_20_Default_ranged_hashENS9_20_Prime_rehash_policyENS9_17_Hashtable_traitsILb1ELb0ELb1EEEE21_M_deallocate_bucketsEv
   fun:_ZNSt10_HashtableIN4adns8dns_nameESt4pairIKS1_St10shared_ptrINS0_26dns_recursive_cache_answerEEESaIS7_ENSt8__detail10_Select1stESt8equal_toIS1_ESt4hashIS1_ENS9_18_Mod_range_hashingENS9_20_Default_ranged_hashENS9_20_Prime_rehash_policyENS9_17_Hashtable_traitsILb1ELb0ELb1EEEED1Ev
   fun:_ZNSt13unordered_mapIN4adns8dns_nameESt10shared_ptrINS0_26dns_recursive_cache_answerEESt4hashIS1_ESt8equal_toIS1_ESaISt4pairIKS1_S4_EEED1Ev
   fun:_ZN4adns19dns_recursive_cacheD1Ev
   fun:_ZN4adns19dns_recursive_cacheD0Ev
   fun:_ZNSt15_Sp_counted_ptrIPN4adns19dns_recursive_cacheELN9__gnu_cxx12_Lock_policyE2EE10_M_disposeEv
   fun:_ZNSt16_Sp_counted_baseILN9__gnu_cxx12_Lock_policyE2EE10_M_releaseEv
}
{
   <insert_a_suppression_name_here>
   Memcheck:Free
   fun:free
   obj:/usr/lib/x86_64-linux-gnu/libboost_thread.so.1.71.0
   fun:__cxa_finalize
   obj:/usr/lib/x86_64-linux-gnu/libboost_thread.so.1.71.0
   fun:_dl_fini
   fun:__run_exit_handlers
   fun:exit
   fun:main
}
{
   <insert_a_suppression_name_here>
   Memcheck:Free
   fun:free
   fun:__cxa_finalize
   obj:/usr/lib/x86_64-linux-gnu/libboost_filesystem.so.1.71.0
   fun:_dl_fini
   fun:__run_exit_handlers
   fun:exit
   fun:main
}
{
   <insert_a_suppression_name_here>
   Memcheck:Free
   fun:free
   fun:_ZN4adns2db18mongodb_row_helper10fetch_rowsERNS0_10connectionERKNS0_3rowE
   fun:_ZN4adns2db3row10fetch_rowsERNS0_10connectionE
   fun:_ZN4adns2db18row_schema_version8get_rowsERNS0_10connectionE
   fun:_ZN4adns2db14schema_manager16update_or_createEv
   fun:main
}
{
   <insert_a_suppression_name_here>
   Memcheck:Free
   fun:free
   fun:_ZNSt4pairIN4adns2db5table7table_tENSt7__cxx1112basic_stringIcSt11char_traitsIcESaIcEEEED1Ev
   fun:_ZN4adns2db14schema_manager6createERNS0_10connectionE
   fun:_ZN4adns2db14schema_manager16update_or_createEv
   fun:main
}
{
   <insert_a_suppression_name_here>
   Memcheck:Free
   fun:free
   fun:_ZN9__gnu_cxx13new_allocatorISt10_List_nodeISt4pairIN4adns2db5table7table_tENSt7__cxx1112basic_stringIcSt11char_traitsIcESaIcEEEEEE10deallocateEPSE_m
   fun:_ZNSt16allocator_traitsISaISt10_List_nodeISt4pairIN4adns2db5table7table_tENSt7__cxx1112basic_stringIcSt11char_traitsIcESaIcEEEEEEE10deallocateERSE_PSD_m
   fun:_ZNSt7__cxx1110_List_baseISt4pairIN4adns2db5table7table_tENS_12basic_stringIcSt11char_traitsIcESaIcEEEESaISB_EE11_M_put_nodeEPSt10_List_nodeISB_E
   fun:_ZNSt7__cxx1110_List_baseISt4pairIN4adns2db5table7table_tENS_12basic_stringIcSt11char_traitsIcESaIcEEEESaISB_EE8_M_clearEv
   fun:_ZNSt7__cxx1110_List_baseISt4pairIN4adns2db5table7table_tENS_12basic_stringIcSt11char_traitsIcESaIcEEEESaISB_EED1Ev
   fun:_ZNSt7__cxx114listISt4pairIN4adns2db5table7table_tENS_12basic_stringIcSt11char_traitsIcESaIcEEEESaISB_EED1Ev
   fun:_ZN4adns2db14schema_manager6createERNS0_10connectionE
   fun:_ZN4adns2db14schema_manager16update_or_createEv
   fun:main
}
{
   <insert_a_suppression_name_here>
   Memcheck:Free
   fun:free
   fun:_ZNSt4pairIN4adns2db5table7table_tENSt7__cxx1112basic_stringIcSt11char_traitsIcESaIcEEEED1Ev
   fun:_ZN9__gnu_cxx13new_allocatorISt10_List_nodeISt4pairIN4adns2db5table7table_tENSt7__cxx1112basic_stringIcSt11char_traitsIcESaIcEEEEEE7destroyISD_EEvPT_
   fun:_ZNSt16allocator_traitsISaISt10_List_nodeISt4pairIN4adns2db5table7table_tENSt7__cxx1112basic_stringIcSt11char_traitsIcESaIcEEEEEEE7destroyISC_EEvRSE_PT_
   fun:_ZNSt7__cxx1110_List_baseISt4pairIN4adns2db5table7table_tENS_12basic_stringIcSt11char_traitsIcESaIcEEEESaISB_EE8_M_clearEv
   fun:_ZNSt7__cxx1110_List_baseISt4pairIN4adns2db5table7table_tENS_12basic_stringIcSt11char_traitsIcESaIcEEEESaISB_EED1Ev
   fun:_ZNSt7__cxx114listISt4pairIN4adns2db5table7table_tENS_12basic_stringIcSt11char_traitsIcESaIcEEEESaISB_EED1Ev
   fun:_ZN4adns2db14schema_manager6createERNS0_10connectionE
   fun:_ZN4adns2db14schema_manager16update_or_createEv
   fun:main
}
{
   <insert_a_suppression_name_here>
   Memcheck:Free
   fun:free
   fun:_ZN4adns2db6columnD1Ev
   fun:_ZN4adns2db18row_schema_version11init_staticEv
   fun:_ZNK4adns2db18row_schema_version11get_columnsEv
   fun:_ZNK4adns2db3row14json_serializeEv
   fun:_ZNK4adns17json_serializable7to_jsonEv
   fun:_ZN4adns2db18mongodb_row_helper10insert_rowERNS0_10connectionERNS0_3rowE
   fun:_ZN4adns2db3row10insert_rowERNS0_10connectionE
   fun:_ZN4adns2db5table13create_staticERNS0_10connectionE
   fun:_ZN4adns2db14schema_manager6createERNS0_10connectionE
   fun:_ZN4adns2db14schema_manager16update_or_createEv
   fun:main
}
{
   <insert_a_suppression_name_here>
   Memcheck:Free
   fun:free
   fun:_ZN4adns2db18row_schema_version11init_staticEv
   fun:_ZNK4adns2db18row_schema_version11get_columnsEv
   fun:_ZNK4adns2db3row14json_serializeEv
   fun:_ZNK4adns17json_serializable7to_jsonEv
   fun:_ZN4adns2db18mongodb_row_helper10insert_rowERNS0_10connectionERNS0_3rowE
   fun:_ZN4adns2db3row10insert_rowERNS0_10connectionE
   fun:_ZN4adns2db5table13create_staticERNS0_10connectionE
   fun:_ZN4adns2db14schema_manager6createERNS0_10connectionE
   fun:_ZN4adns2db14schema_manager16update_or_createEv
   fun:main
}
{
   <insert_a_suppression_name_here>
   Memcheck:Free
   fun:free
   fun:_ZN4adns2db6columnD1Ev
   fun:_ZSt8_DestroyIN4adns2db6columnEEvPT_
   fun:_ZNSt12_Destroy_auxILb0EE9__destroyIPN4adns2db6columnEEEvT_S6_
   fun:_ZSt8_DestroyIPN4adns2db6columnEEvT_S4_
   fun:_ZSt8_DestroyIPN4adns2db6columnES2_EvT_S4_RSaIT0_E
   fun:_ZNSt6vectorIN4adns2db6columnESaIS2_EE17_M_realloc_insertIJS2_EEEvN9__gnu_cxx17__normal_iteratorIPS2_S4_EEDpOT_
   fun:_ZNSt6vectorIN4adns2db6columnESaIS2_EE12emplace_backIJS2_EEERS2_DpOT_
   fun:_ZNSt6vectorIN4adns2db6columnESaIS2_EE9push_backEOS2_
   fun:_ZN4adns2db18row_schema_version11init_staticEv
   fun:_ZNK4adns2db18row_schema_version11get_columnsEv
   fun:_ZNK4adns2db3row14json_serializeEv
}
{
   <insert_a_suppression_name_here>
   Memcheck:Free
   fun:free
   fun:_ZN9__gnu_cxx13new_allocatorIN4adns2db6columnEE10deallocateEPS3_m
   fun:_ZNSt16allocator_traitsISaIN4adns2db6columnEEE10deallocateERS3_PS2_m
   fun:_ZNSt12_Vector_baseIN4adns2db6columnESaIS2_EE13_M_deallocateEPS2_m
   fun:_ZNSt6vectorIN4adns2db6columnESaIS2_EE17_M_realloc_insertIJS2_EEEvN9__gnu_cxx17__normal_iteratorIPS2_S4_EEDpOT_
   fun:_ZNSt6vectorIN4adns2db6columnESaIS2_EE12emplace_backIJS2_EEERS2_DpOT_
   fun:_ZNSt6vectorIN4adns2db6columnESaIS2_EE9push_backEOS2_
   fun:_ZN4adns2db18row_schema_version11init_staticEv
   fun:_ZNK4adns2db18row_schema_version11get_columnsEv
   fun:_ZNK4adns2db3row14json_serializeEv
   fun:_ZNK4adns17json_serializable7to_jsonEv
   fun:_ZN4adns2db18mongodb_row_helper10insert_rowERNS0_10connectionERNS0_3rowE
}
{
   <insert_a_suppression_name_here>
   Memcheck:Free
   fun:free
   fun:_ZN4adns2db6columnD1Ev
   fun:_ZNK4adns2db3row14json_serializeEv
   fun:_ZNK4adns17json_serializable7to_jsonEv
   fun:_ZN4adns2db18mongodb_row_helper10insert_rowERNS0_10connectionERNS0_3rowE
   fun:_ZN4adns2db3row10insert_rowERNS0_10connectionE
   fun:_ZN4adns2db5table13create_staticERNS0_10connectionE
   fun:_ZN4adns2db14schema_manager6createERNS0_10connectionE
   fun:_ZN4adns2db14schema_manager16update_or_createEv
   fun:main
}
{
   <insert_a_suppression_name_here>
   Memcheck:Free
   fun:free
   fun:_ZNKSt14default_deleteINSt7__cxx1112basic_stringIcSt11char_traitsIcESaIcEEEEclEPS5_
   fun:_ZNSt10unique_ptrINSt7__cxx1112basic_stringIcSt11char_traitsIcESaIcEEESt14default_deleteIS5_EED1Ev
   fun:_ZN4argo8unparser7unparseERKNS_4jsonEi
   fun:_ZN4argo8unparser14unparse_objectERKNS_4jsonEi
   fun:_ZN4argo8unparser7unparseERKNS_4jsonEi
   fun:_ZN4argo8unparser7unparseERSoRKNS_4jsonEPKcS6_S6_i
   fun:_ZN4argolsERNSt7__cxx1112basic_stringIcSt11char_traitsIcESaIcEEERKNS_4jsonE
   fun:_ZN4adns2db18mongodb_row_helper10insert_rowERNS0_10connectionERNS0_3rowE
   fun:_ZN4adns2db3row10insert_rowERNS0_10connectionE
   fun:_ZN4adns2db5table13create_staticERNS0_10connectionE
   fun:_ZN4adns2db14schema_manager6createERNS0_10connectionE
}
{
   <insert_a_suppression_name_here>
   Memcheck:Free
   fun:free
   fun:_ZNSt7__cxx1118basic_stringstreamIcSt11char_traitsIcESaIcEED1Ev
   fun:_ZN4argolsERNSt7__cxx1112basic_stringIcSt11char_traitsIcESaIcEEERKNS_4jsonE
   fun:_ZN4adns2db18mongodb_row_helper10insert_rowERNS0_10connectionERNS0_3rowE
   fun:_ZN4adns2db3row10insert_rowERNS0_10connectionE
   fun:_ZN4adns2db5table13create_staticERNS0_10connectionE
   fun:_ZN4adns2db14schema_manager6createERNS0_10connectionE
   fun:_ZN4adns2db14schema_manager16update_or_createEv
   fun:main
}
{
   <insert_a_suppression_name_here>
   Memcheck:Free
   fun:free
   fun:_ZN9__gnu_cxx13new_allocatorISt13_Rb_tree_nodeISt4pairIKNSt7__cxx1112basic_stringIcSt11char_traitsIcESaIcEEESt10unique_ptrIN4argo4jsonESt14default_deleteISC_EEEEE10deallocateEPSH_m
   fun:_ZNSt16allocator_traitsISaISt13_Rb_tree_nodeISt4pairIKNSt7__cxx1112basic_stringIcSt11char_traitsIcESaIcEEESt10unique_ptrIN4argo4jsonESt14default_deleteISB_EEEEEE10deallocateERSH_PSG_m
   fun:_ZNSt8_Rb_treeINSt7__cxx1112basic_stringIcSt11char_traitsIcESaIcEEESt4pairIKS5_St10unique_ptrIN4argo4jsonESt14default_deleteISA_EEESt10_Select1stISE_ESt4lessIS5_ESaISE_EE11_M_put_nodeEPSt13_Rb_tree_nodeISE_E
   fun:_ZNSt8_Rb_treeINSt7__cxx1112basic_stringIcSt11char_traitsIcESaIcEEESt4pairIKS5_St10unique_ptrIN4argo4jsonESt14default_deleteISA_EEESt10_Select1stISE_ESt4lessIS5_ESaISE_EE12_M_drop_nodeEPSt13_Rb_tree_nodeISE_E
   fun:_ZNSt8_Rb_treeINSt7__cxx1112basic_stringIcSt11char_traitsIcESaIcEEESt4pairIKS5_St10unique_ptrIN4argo4jsonESt14default_deleteISA_EEESt10_Select1stISE_ESt4lessIS5_ESaISE_EE8_M_eraseEPSt13_Rb_tree_nodeISE_E
   fun:_ZNSt8_Rb_treeINSt7__cxx1112basic_stringIcSt11char_traitsIcESaIcEEESt4pairIKS5_St10unique_ptrIN4argo4jsonESt14default_deleteISA_EEESt10_Select1stISE_ESt4lessIS5_ESaISE_EE8_M_eraseEPSt13_Rb_tree_nodeISE_E
   fun:_ZNSt8_Rb_treeINSt7__cxx1112basic_stringIcSt11char_traitsIcESaIcEEESt4pairIKS5_St10unique_ptrIN4argo4jsonESt14default_deleteISA_EEESt10_Select1stISE_ESt4lessIS5_ESaISE_EED1Ev
   fun:_ZNSt3mapINSt7__cxx1112basic_stringIcSt11char_traitsIcESaIcEEESt10unique_ptrIN4argo4jsonESt14default_deleteIS8_EESt4lessIS5_ESaISt4pairIKS5_SB_EEED1Ev
   fun:_ZN4argo4json5resetEv
   fun:_ZN4argo4jsonD1Ev
   fun:_ZN4adns2db18mongodb_row_helper10insert_rowERNS0_10connectionERNS0_3rowE
}
{
   <insert_a_suppression_name_here>
   Memcheck:Free
   fun:free
   fun:_ZNSt4pairIKNSt7__cxx1112basic_stringIcSt11char_traitsIcESaIcEEESt10unique_ptrIN4argo4jsonESt14default_deleteIS9_EEED1Ev
   fun:_ZN9__gnu_cxx13new_allocatorISt13_Rb_tree_nodeISt4pairIKNSt7__cxx1112basic_stringIcSt11char_traitsIcESaIcEEESt10unique_ptrIN4argo4jsonESt14default_deleteISC_EEEEE7destroyISG_EEvPT_
   fun:_ZNSt16allocator_traitsISaISt13_Rb_tree_nodeISt4pairIKNSt7__cxx1112basic_stringIcSt11char_traitsIcESaIcEEESt10unique_ptrIN4argo4jsonESt14default_deleteISB_EEEEEE7destroyISF_EEvRSH_PT_
   fun:_ZNSt8_Rb_treeINSt7__cxx1112basic_stringIcSt11char_traitsIcESaIcEEESt4pairIKS5_St10unique_ptrIN4argo4jsonESt14default_deleteISA_EEESt10_Select1stISE_ESt4lessIS5_ESaISE_EE15_M_destroy_nodeEPSt13_Rb_tree_nodeISE_E
   fun:_ZNSt8_Rb_treeINSt7__cxx1112basic_stringIcSt11char_traitsIcESaIcEEESt4pairIKS5_St10unique_ptrIN4argo4jsonESt14default_deleteISA_EEESt10_Select1stISE_ESt4lessIS5_ESaISE_EE12_M_drop_nodeEPSt13_Rb_tree_nodeISE_E
   fun:_ZNSt8_Rb_treeINSt7__cxx1112basic_stringIcSt11char_traitsIcESaIcEEESt4pairIKS5_St10unique_ptrIN4argo4jsonESt14default_deleteISA_EEESt10_Select1stISE_ESt4lessIS5_ESaISE_EE8_M_eraseEPSt13_Rb_tree_nodeISE_E
   fun:_ZNSt8_Rb_treeINSt7__cxx1112basic_stringIcSt11char_traitsIcESaIcEEESt4pairIKS5_St10unique_ptrIN4argo4jsonESt14default_deleteISA_EEESt10_Select1stISE_ESt4lessIS5_ESaISE_EED1Ev
   fun:_ZNSt3mapINSt7__cxx1112basic_stringIcSt11char_traitsIcESaIcEEESt10unique_ptrIN4argo4jsonESt14default_deleteIS8_EESt4lessIS5_ESaISt4pairIKS5_SB_EEED1Ev
   fun:_ZN4argo4json5resetEv
   fun:_ZN4argo4jsonD1Ev
   fun:_ZN4adns2db18mongodb_row_helper10insert_rowERNS0_10connectionERNS0_3rowE
}
{
   <insert_a_suppression_name_here>
   Memcheck:Free
   fun:free
   fun:_ZN4argo4json5resetEv
   fun:_ZN4argo4jsonD1Ev
   fun:_ZN4adns2db18mongodb_row_helper10insert_rowERNS0_10connectionERNS0_3rowE
   fun:_ZN4adns2db3row10insert_rowERNS0_10connectionE
   fun:_ZN4adns2db5table13create_staticERNS0_10connectionE
   fun:_ZN4adns2db14schema_manager6createERNS0_10connectionE
   fun:_ZN4adns2db14schema_manager16update_or_createEv
   fun:main
}
{
   <insert_a_suppression_name_here>
   Memcheck:Free
   fun:free
   fun:_ZN4adns2db18mongodb_row_helper10insert_rowERNS0_10connectionERNS0_3rowE
   fun:_ZN4adns2db3row10insert_rowERNS0_10connectionE
   fun:_ZN4adns2db5table13create_staticERNS0_10connectionE
   fun:_ZN4adns2db14schema_manager6createERNS0_10connectionE
   fun:_ZN4adns2db14schema_manager16update_or_createEv
   fun:main
}
{
   <insert_a_suppression_name_here>
   Memcheck:Free
   fun:free
   fun:_ZN4adns2db18mongodb_row_helper10insert_rowERNS0_10connectionERNS0_3rowE
   fun:_ZN4adns2db3row10insert_rowERNS0_10connectionE
   fun:_ZN4adns2db5table13create_staticERNS0_10connectionE
   fun:_ZN4adns2db14schema_manager6createERNS0_10connectionE
   fun:_ZN4adns2db14schema_manager16update_or_createEv
   fun:main
}
{
   <insert_a_suppression_name_here>
   Memcheck:Free
   fun:free
   fun:_ZN4adns2db18mongodb_row_helper10insert_rowERNS0_10connectionERNS0_3rowE
   fun:_ZN4adns2db3row10insert_rowERNS0_10connectionE
   fun:_ZN4adns2db5table13create_staticERNS0_10connectionE
   fun:_ZN4adns2db14schema_manager6createERNS0_10connectionE
   fun:_ZN4adns2db14schema_manager16update_or_createEv
   fun:main
}
{
   <insert_a_suppression_name_here>
   Memcheck:Free
   fun:free
   fun:_ZN4adns2db18mongodb_row_helper10insert_rowERNS0_10connectionERNS0_3rowE
   fun:_ZN4adns2db3row10insert_rowERNS0_10connectionE
   fun:_ZN4adns2db5table13create_staticERNS0_10connectionE
   fun:_ZN4adns2db14schema_manager6createERNS0_10connectionE
   fun:_ZN4adns2db14schema_manager16update_or_createEv
   fun:main
}
{
   <insert_a_suppression_name_here>
   Memcheck:Free
   fun:free
   fun:_ZN4adns2db6columnD1Ev
   fun:_ZN4adns2db24row_address_list_network11init_staticEv
   fun:_ZNK4adns2db24row_address_list_network11get_columnsEv
   fun:_ZNK4adns2db3row14json_serializeEv
   fun:_ZNK4adns17json_serializable7to_jsonEv
   fun:_ZN4adns2db18mongodb_row_helper10insert_rowERNS0_10connectionERNS0_3rowE
   fun:_ZN4adns2db3row10insert_rowERNS0_10connectionE
   fun:_ZN4adns2db5table13create_staticERNS0_10connectionE
   fun:_ZN4adns2db14schema_manager6createERNS0_10connectionE
   fun:_ZN4adns2db14schema_manager16update_or_createEv
   fun:main
}
{
   <insert_a_suppression_name_here>
   Memcheck:Free
   fun:free
   fun:_ZN4adns2db24row_address_list_network11init_staticEv
   fun:_ZNK4adns2db24row_address_list_network11get_columnsEv
   fun:_ZNK4adns2db3row14json_serializeEv
   fun:_ZNK4adns17json_serializable7to_jsonEv
   fun:_ZN4adns2db18mongodb_row_helper10insert_rowERNS0_10connectionERNS0_3rowE
   fun:_ZN4adns2db3row10insert_rowERNS0_10connectionE
   fun:_ZN4adns2db5table13create_staticERNS0_10connectionE
   fun:_ZN4adns2db14schema_manager6createERNS0_10connectionE
   fun:_ZN4adns2db14schema_manager16update_or_createEv
   fun:main
}
{
   <insert_a_suppression_name_here>
   Memcheck:Free
   fun:free
   fun:_ZN4adns2db18mongodb_row_helper10insert_rowERNS0_10connectionERNS0_3rowE
   fun:_ZN4adns2db3row10insert_rowERNS0_10connectionE
   fun:_ZN4adns2db5table13create_staticERNS0_10connectionE
   fun:_ZN4adns2db14schema_manager6createERNS0_10connectionE
   fun:_ZN4adns2db14schema_manager16update_or_createEv
   fun:main
}
{
   <insert_a_suppression_name_here>
   Memcheck:Free
   fun:free
   fun:_ZN4adns2db18mongodb_row_helper10insert_rowERNS0_10connectionERNS0_3rowE
   fun:_ZN4adns2db3row10insert_rowERNS0_10connectionE
   fun:_ZN4adns2db5table13create_staticERNS0_10connectionE
   fun:_ZN4adns2db14schema_manager6createERNS0_10connectionE
   fun:_ZN4adns2db14schema_manager16update_or_createEv
   fun:main
}
{
   <insert_a_suppression_name_here>
   Memcheck:Free
   fun:free
   fun:_ZN4adns2db18mongodb_row_helper10insert_rowERNS0_10connectionERNS0_3rowE
   fun:_ZN4adns2db3row10insert_rowERNS0_10connectionE
   fun:_ZN4adns2db5table13create_staticERNS0_10connectionE
   fun:_ZN4adns2db14schema_manager6createERNS0_10connectionE
   fun:_ZN4adns2db14schema_manager16update_or_createEv
   fun:main
}
{
   <insert_a_suppression_name_here>
   Memcheck:Free
   fun:free
   fun:_ZN4adns2db18mongodb_row_helper10insert_rowERNS0_10connectionERNS0_3rowE
   fun:_ZN4adns2db3row10insert_rowERNS0_10connectionE
   fun:_ZN4adns2db5table13create_staticERNS0_10connectionE
   fun:_ZN4adns2db14schema_manager6createERNS0_10connectionE
   fun:_ZN4adns2db14schema_manager16update_or_createEv
   fun:main
}
{
   <insert_a_suppression_name_here>
   Memcheck:Free
   fun:free
   fun:_ZN4adns2db6columnD1Ev
   fun:_ZN4adns2db24row_address_list_address11init_staticEv
   fun:_ZNK4adns2db24row_address_list_address11get_columnsEv
   fun:_ZNK4adns2db3row14json_serializeEv
   fun:_ZNK4adns17json_serializable7to_jsonEv
   fun:_ZN4adns2db18mongodb_row_helper10insert_rowERNS0_10connectionERNS0_3rowE
   fun:_ZN4adns2db3row10insert_rowERNS0_10connectionE
   fun:_ZN4adns2db5table13create_staticERNS0_10connectionE
   fun:_ZN4adns2db14schema_manager6createERNS0_10connectionE
   fun:_ZN4adns2db14schema_manager16update_or_createEv
   fun:main
}
{
   <insert_a_suppression_name_here>
   Memcheck:Free
   fun:free
   fun:_ZN4adns2db24row_address_list_address11init_staticEv
   fun:_ZNK4adns2db24row_address_list_address11get_columnsEv
   fun:_ZNK4adns2db3row14json_serializeEv
   fun:_ZNK4adns17json_serializable7to_jsonEv
   fun:_ZN4adns2db18mongodb_row_helper10insert_rowERNS0_10connectionERNS0_3rowE
   fun:_ZN4adns2db3row10insert_rowERNS0_10connectionE
   fun:_ZN4adns2db5table13create_staticERNS0_10connectionE
   fun:_ZN4adns2db14schema_manager6createERNS0_10connectionE
   fun:_ZN4adns2db14schema_manager16update_or_createEv
   fun:main
}
{
   <insert_a_suppression_name_here>
   Memcheck:Free
   fun:free
   fun:_ZN4adns2db18mongodb_row_helper10insert_rowERNS0_10connectionERNS0_3rowE
   fun:_ZN4adns2db3row10insert_rowERNS0_10connectionE
   fun:_ZN4adns2db5table13create_staticERNS0_10connectionE
   fun:_ZN4adns2db14schema_manager6createERNS0_10connectionE
   fun:_ZN4adns2db14schema_manager16update_or_createEv
   fun:main
}
{
   <insert_a_suppression_name_here>
   Memcheck:Free
   fun:free
   fun:_ZN4adns2db5table13create_staticERNS0_10connectionE
   fun:_ZN4adns2db14schema_manager6createERNS0_10connectionE
   fun:_ZN4adns2db14schema_manager16update_or_createEv
   fun:main
}
{
   <insert_a_suppression_name_here>
   Memcheck:Free
   fun:free
   fun:_ZNK4adns2db3row14json_serializeEv
   fun:_ZNK4adns17json_serializable7to_jsonEv
   fun:_ZN4adns2db18mongodb_row_helper10insert_rowERNS0_10connectionERNS0_3rowE
   fun:_ZN4adns2db3row10insert_rowERNS0_10connectionE
   fun:_ZN4adns2db5table13create_staticERNS0_10connectionE
   fun:_ZN4adns2db14schema_manager6createERNS0_10connectionE
   fun:_ZN4adns2db14schema_manager16update_or_createEv
   fun:main
}
{
   <insert_a_suppression_name_here>
   Memcheck:Free
   fun:free
   fun:_ZNKSt14default_deleteINSt7__cxx1112basic_stringIcSt11char_traitsIcESaIcEEEEclEPS5_
   fun:_ZNSt10unique_ptrINSt7__cxx1112basic_stringIcSt11char_traitsIcESaIcEEESt14default_deleteIS5_EED1Ev
   fun:_ZN4argo8unparser7unparseERKNS_4jsonEi
   fun:_ZN4argo8unparser14unparse_objectERKNS_4jsonEi
   fun:_ZN4argo8unparser7unparseERKNS_4jsonEi
   fun:_ZN4argo8unparser7unparseERSoRKNS_4jsonEPKcS6_S6_i
   fun:_ZN4argolsERNSt7__cxx1112basic_stringIcSt11char_traitsIcESaIcEEERKNS_4jsonE
   fun:_ZN4adns2db18mongodb_row_helper10insert_rowERNS0_10connectionERNS0_3rowE
   fun:_ZN4adns2db3row10insert_rowERNS0_10connectionE
   fun:_ZN4adns2db5table13create_staticERNS0_10connectionE
   fun:_ZN4adns2db14schema_manager6createERNS0_10connectionE
}
{
   <insert_a_suppression_name_here>
   Memcheck:Free
   fun:free
   fun:_ZN4adns2db18mongodb_row_helper10insert_rowERNS0_10connectionERNS0_3rowE
   fun:_ZN4adns2db3row10insert_rowERNS0_10connectionE
   fun:_ZN4adns2db5table13create_staticERNS0_10connectionE
   fun:_ZN4adns2db14schema_manager6createERNS0_10connectionE
   fun:_ZN4adns2db14schema_manager16update_or_createEv
   fun:main
}
{
   <insert_a_suppression_name_here>
   Memcheck:Free
   fun:free
   fun:_ZN4adns2db16row_basic_configD1Ev
   fun:_ZN4adns2db5table13create_staticERNS0_10connectionE
   fun:_ZN4adns2db14schema_manager6createERNS0_10connectionE
   fun:_ZN4adns2db14schema_manager16update_or_createEv
   fun:main
}
{
   <insert_a_suppression_name_here>
   Memcheck:Free
   fun:free
   fun:_ZN4adns2db18mongodb_row_helper10insert_rowERNS0_10connectionERNS0_3rowE
   fun:_ZN4adns2db3row10insert_rowERNS0_10connectionE
   fun:_ZN4adns2db5table13create_staticERNS0_10connectionE
   fun:_ZN4adns2db14schema_manager6createERNS0_10connectionE
   fun:_ZN4adns2db14schema_manager16update_or_createEv
   fun:main
}
{
   <insert_a_suppression_name_here>
   Memcheck:Free
   fun:free
   fun:_ZN4adns2db5table13create_staticERNS0_10connectionE
   fun:_ZN4adns2db14schema_manager6createERNS0_10connectionE
   fun:_ZN4adns2db14schema_manager16update_or_createEv
   fun:main
}
{
   <insert_a_suppression_name_here>
   Memcheck:Free
   fun:free
   fun:_ZN4adns2db18mongodb_row_helper10insert_rowERNS0_10connectionERNS0_3rowE
   fun:_ZN4adns2db3row10insert_rowERNS0_10connectionE
   fun:_ZN4adns2db5table13create_staticERNS0_10connectionE
   fun:_ZN4adns2db14schema_manager6createERNS0_10connectionE
   fun:_ZN4adns2db14schema_manager16update_or_createEv
   fun:main
}
{
   <insert_a_suppression_name_here>
   Memcheck:Free
   fun:free
   fun:_ZN4adns2db16row_basic_configD1Ev
   fun:_ZN4adns2db5table13create_staticERNS0_10connectionE
   fun:_ZN4adns2db14schema_manager6createERNS0_10connectionE
   fun:_ZN4adns2db14schema_manager16update_or_createEv
   fun:main
}
{
   <insert_a_suppression_name_here>
   Memcheck:Free
   fun:free
   fun:_ZN4adns2db5table13create_staticERNS0_10connectionE
   fun:_ZN4adns2db14schema_manager6createERNS0_10connectionE
   fun:_ZN4adns2db14schema_manager16update_or_createEv
   fun:main
}
{
   <insert_a_suppression_name_here>
   Memcheck:Free
   fun:free
   fun:_ZN4adns2db18mongodb_row_helper10insert_rowERNS0_10connectionERNS0_3rowE
   fun:_ZN4adns2db3row10insert_rowERNS0_10connectionE
   fun:_ZN4adns2db5table13create_staticERNS0_10connectionE
   fun:_ZN4adns2db14schema_manager6createERNS0_10connectionE
   fun:_ZN4adns2db14schema_manager16update_or_createEv
   fun:main
}
{
   <insert_a_suppression_name_here>
   Memcheck:Free
   fun:free
   fun:_ZN4adns2db16row_basic_configD1Ev
   fun:_ZN4adns2db5table13create_staticERNS0_10connectionE
   fun:_ZN4adns2db14schema_manager6createERNS0_10connectionE
   fun:_ZN4adns2db14schema_manager16update_or_createEv
   fun:main
}
{
   <insert_a_suppression_name_here>
   Memcheck:Free
   fun:free
   fun:_ZN4adns2db5table13create_staticERNS0_10connectionE
   fun:_ZN4adns2db14schema_manager6createERNS0_10connectionE
   fun:_ZN4adns2db14schema_manager16update_or_createEv
   fun:main
}
{
   <insert_a_suppression_name_here>
   Memcheck:Free
   fun:free
   fun:_ZN4adns2db18mongodb_row_helper10insert_rowERNS0_10connectionERNS0_3rowE
   fun:_ZN4adns2db3row10insert_rowERNS0_10connectionE
   fun:_ZN4adns2db5table13create_staticERNS0_10connectionE
   fun:_ZN4adns2db14schema_manager6createERNS0_10connectionE
   fun:_ZN4adns2db14schema_manager16update_or_createEv
   fun:main
}
{
   <insert_a_suppression_name_here>
   Memcheck:Free
   fun:free
   fun:_ZN4adns2db16row_basic_configD1Ev
   fun:_ZN4adns2db5table13create_staticERNS0_10connectionE
   fun:_ZN4adns2db14schema_manager6createERNS0_10connectionE
   fun:_ZN4adns2db14schema_manager16update_or_createEv
   fun:main
}
{
   <insert_a_suppression_name_here>
   Memcheck:Free
   fun:free
   fun:_ZN4adns2db18mongodb_row_helper10insert_rowERNS0_10connectionERNS0_3rowE
   fun:_ZN4adns2db3row10insert_rowERNS0_10connectionE
   fun:_ZN4adns2db5table13create_staticERNS0_10connectionE
   fun:_ZN4adns2db14schema_manager6createERNS0_10connectionE
   fun:_ZN4adns2db14schema_manager16update_or_createEv
   fun:main
}
{
   <insert_a_suppression_name_here>
   Memcheck:Free
   fun:free
   fun:_ZN4adns2db18mongodb_row_helper10insert_rowERNS0_10connectionERNS0_3rowE
   fun:_ZN4adns2db3row10insert_rowERNS0_10connectionE
   fun:_ZN4adns2db5table13create_staticERNS0_10connectionE
   fun:_ZN4adns2db14schema_manager6createERNS0_10connectionE
   fun:_ZN4adns2db14schema_manager16update_or_createEv
   fun:main
}
{
   <insert_a_suppression_name_here>
   Memcheck:Free
   fun:free
   fun:_ZN4adns2db18mongodb_row_helper10insert_rowERNS0_10connectionERNS0_3rowE
   fun:_ZN4adns2db3row10insert_rowERNS0_10connectionE
   fun:_ZN4adns2db5table13create_staticERNS0_10connectionE
   fun:_ZN4adns2db14schema_manager6createERNS0_10connectionE
   fun:_ZN4adns2db14schema_manager16update_or_createEv
   fun:main
}
{
   <insert_a_suppression_name_here>
   Memcheck:Free
   fun:free
   fun:_ZN4adns2db18mongodb_row_helper10insert_rowERNS0_10connectionERNS0_3rowE
   fun:_ZN4adns2db3row10insert_rowERNS0_10connectionE
   fun:_ZN4adns2db5table13create_staticERNS0_10connectionE
   fun:_ZN4adns2db14schema_manager6createERNS0_10connectionE
   fun:_ZN4adns2db14schema_manager16update_or_createEv
   fun:main
}
{
   <insert_a_suppression_name_here>
   Memcheck:Free
   fun:free
   fun:_ZN4adns2db6columnD1Ev
   fun:_ZN4adns2db25row_server_socket_address11init_staticEv
   fun:_ZNK4adns2db25row_server_socket_address11get_columnsEv
   fun:_ZNK4adns2db3row14json_serializeEv
   fun:_ZNK4adns17json_serializable7to_jsonEv
   fun:_ZN4adns2db18mongodb_row_helper10insert_rowERNS0_10connectionERNS0_3rowE
   fun:_ZN4adns2db3row10insert_rowERNS0_10connectionE
   fun:_ZN4adns2db5table13create_staticERNS0_10connectionE
   fun:_ZN4adns2db14schema_manager6createERNS0_10connectionE
   fun:_ZN4adns2db14schema_manager16update_or_createEv
   fun:main
}
{
   <insert_a_suppression_name_here>
   Memcheck:Free
   fun:free
   fun:_ZN4adns2db25row_server_socket_address11init_staticEv
   fun:_ZNK4adns2db25row_server_socket_address11get_columnsEv
   fun:_ZNK4adns2db3row14json_serializeEv
   fun:_ZNK4adns17json_serializable7to_jsonEv
   fun:_ZN4adns2db18mongodb_row_helper10insert_rowERNS0_10connectionERNS0_3rowE
   fun:_ZN4adns2db3row10insert_rowERNS0_10connectionE
   fun:_ZN4adns2db5table13create_staticERNS0_10connectionE
   fun:_ZN4adns2db14schema_manager6createERNS0_10connectionE
   fun:_ZN4adns2db14schema_manager16update_or_createEv
   fun:main
}
{
   <insert_a_suppression_name_here>
   Memcheck:Free
   fun:free
   fun:_ZN4adns2db18mongodb_row_helper10insert_rowERNS0_10connectionERNS0_3rowE
   fun:_ZN4adns2db3row10insert_rowERNS0_10connectionE
   fun:_ZN4adns2db5table13create_staticERNS0_10connectionE
   fun:_ZN4adns2db14schema_manager6createERNS0_10connectionE
   fun:_ZN4adns2db14schema_manager16update_or_createEv
   fun:main
}
{
   <insert_a_suppression_name_here>
   Memcheck:Free
   fun:free
   fun:_ZN4adns2db18mongodb_row_helper10insert_rowERNS0_10connectionERNS0_3rowE
   fun:_ZN4adns2db3row10insert_rowERNS0_10connectionE
   fun:_ZN4adns2db5table13create_staticERNS0_10connectionE
   fun:_ZN4adns2db14schema_manager6createERNS0_10connectionE
   fun:_ZN4adns2db14schema_manager16update_or_createEv
   fun:main
}
{
   <insert_a_suppression_name_here>
   Memcheck:Free
   fun:free
   fun:_ZN4adns2db18mongodb_row_helper10insert_rowERNS0_10connectionERNS0_3rowE
   fun:_ZN4adns2db3row10insert_rowERNS0_10connectionE
   fun:_ZN4adns2db5table13create_staticERNS0_10connectionE
   fun:_ZN4adns2db14schema_manager6createERNS0_10connectionE
   fun:_ZN4adns2db14schema_manager16update_or_createEv
   fun:main
}
{
   <insert_a_suppression_name_here>
   Memcheck:Free
   fun:free
   fun:_ZN4adns2db18mongodb_row_helper10insert_rowERNS0_10connectionERNS0_3rowE
   fun:_ZN4adns2db3row10insert_rowERNS0_10connectionE
   fun:_ZN4adns2db5table13create_staticERNS0_10connectionE
   fun:_ZN4adns2db14schema_manager6createERNS0_10connectionE
   fun:_ZN4adns2db14schema_manager16update_or_createEv
   fun:main
}
{
   <insert_a_suppression_name_here>
   Memcheck:Free
   fun:free
   fun:_ZN4adns2db18mongodb_row_helper10insert_rowERNS0_10connectionERNS0_3rowE
   fun:_ZN4adns2db3row10insert_rowERNS0_10connectionE
   fun:_ZN4adns2db5table13create_staticERNS0_10connectionE
   fun:_ZN4adns2db14schema_manager6createERNS0_10connectionE
   fun:_ZN4adns2db14schema_manager16update_or_createEv
   fun:main
}
{
   <insert_a_suppression_name_here>
   Memcheck:Free
   fun:free
   fun:_ZN4adns2db18mongodb_row_helper10insert_rowERNS0_10connectionERNS0_3rowE
   fun:_ZN4adns2db3row10insert_rowERNS0_10connectionE
   fun:_ZN4adns2db5table13create_staticERNS0_10connectionE
   fun:_ZN4adns2db14schema_manager6createERNS0_10connectionE
   fun:_ZN4adns2db14schema_manager16update_or_createEv
   fun:main
}
{
   <insert_a_suppression_name_here>
   Memcheck:Free
   fun:free
   fun:_ZN4adns2db18mongodb_row_helper10insert_rowERNS0_10connectionERNS0_3rowE
   fun:_ZN4adns2db3row10insert_rowERNS0_10connectionE
   fun:_ZN4adns2db5table13create_staticERNS0_10connectionE
   fun:_ZN4adns2db14schema_manager6createERNS0_10connectionE
   fun:_ZN4adns2db14schema_manager16update_or_createEv
   fun:main
}
{
   <insert_a_suppression_name_here>
   Memcheck:Free
   fun:free
   fun:_ZN4adns2db18mongodb_row_helper10insert_rowERNS0_10connectionERNS0_3rowE
   fun:_ZN4adns2db3row10insert_rowERNS0_10connectionE
   fun:_ZN4adns2db5table13create_staticERNS0_10connectionE
   fun:_ZN4adns2db14schema_manager6createERNS0_10connectionE
   fun:_ZN4adns2db14schema_manager16update_or_createEv
   fun:main
}
{
   <insert_a_suppression_name_here>
   Memcheck:Free
   fun:free
   fun:_ZN4adns2db18mongodb_row_helper10insert_rowERNS0_10connectionERNS0_3rowE
   fun:_ZN4adns2db3row10insert_rowERNS0_10connectionE
   fun:_ZN4adns2db5table13create_staticERNS0_10connectionE
   fun:_ZN4adns2db14schema_manager6createERNS0_10connectionE
   fun:_ZN4adns2db14schema_manager16update_or_createEv
   fun:main
}
{
   <insert_a_suppression_name_here>
   Memcheck:Free
   fun:free
   fun:_ZN4adns2db18mongodb_row_helper10insert_rowERNS0_10connectionERNS0_3rowE
   fun:_ZN4adns2db3row10insert_rowERNS0_10connectionE
   fun:_ZN4adns2db5table13create_staticERNS0_10connectionE
   fun:_ZN4adns2db14schema_manager6createERNS0_10connectionE
   fun:_ZN4adns2db14schema_manager16update_or_createEv
   fun:main
}
{
   <insert_a_suppression_name_here>
   Memcheck:Free
   fun:free
   fun:_ZN4adns2db18mongodb_row_helper10insert_rowERNS0_10connectionERNS0_3rowE
   fun:_ZN4adns2db3row10insert_rowERNS0_10connectionE
   fun:_ZN4adns2db5table13create_staticERNS0_10connectionE
   fun:_ZN4adns2db14schema_manager6createERNS0_10connectionE
   fun:_ZN4adns2db14schema_manager16update_or_createEv
   fun:main
}
{
   <insert_a_suppression_name_here>
   Memcheck:Free
   fun:free
   fun:_ZN4adns2db6columnD1Ev
   fun:_ZN4adns2db14row_dns_client11init_staticEv
   fun:_ZNK4adns2db14row_dns_client11get_columnsEv
   fun:_ZNK4adns2db3row14json_serializeEv
   fun:_ZNK4adns17json_serializable7to_jsonEv
   fun:_ZN4adns2db18mongodb_row_helper10insert_rowERNS0_10connectionERNS0_3rowE
   fun:_ZN4adns2db3row10insert_rowERNS0_10connectionE
   fun:_ZN4adns2db5table13create_staticERNS0_10connectionE
   fun:_ZN4adns2db14schema_manager6createERNS0_10connectionE
   fun:_ZN4adns2db14schema_manager16update_or_createEv
   fun:main
}
{
   <insert_a_suppression_name_here>
   Memcheck:Free
   fun:free
   fun:_ZN4adns2db14row_dns_client11init_staticEv
   fun:_ZNK4adns2db14row_dns_client11get_columnsEv
   fun:_ZNK4adns2db3row14json_serializeEv
   fun:_ZNK4adns17json_serializable7to_jsonEv
   fun:_ZN4adns2db18mongodb_row_helper10insert_rowERNS0_10connectionERNS0_3rowE
   fun:_ZN4adns2db3row10insert_rowERNS0_10connectionE
   fun:_ZN4adns2db5table13create_staticERNS0_10connectionE
   fun:_ZN4adns2db14schema_manager6createERNS0_10connectionE
   fun:_ZN4adns2db14schema_manager16update_or_createEv
   fun:main
}
{
   <insert_a_suppression_name_here>
   Memcheck:Free
   fun:free
   fun:_ZN4adns2db6columnD1Ev
   fun:_ZN4adns2db14row_dns_client11init_staticEv
   fun:_ZNK4adns2db14row_dns_client11get_columnsEv
   fun:_ZNK4adns2db3row14json_serializeEv
   fun:_ZNK4adns17json_serializable7to_jsonEv
   fun:_ZN4adns2db18mongodb_row_helper10insert_rowERNS0_10connectionERNS0_3rowE
   fun:_ZN4adns2db3row10insert_rowERNS0_10connectionE
   fun:_ZN4adns2db5table13create_staticERNS0_10connectionE
   fun:_ZN4adns2db14schema_manager6createERNS0_10connectionE
   fun:_ZN4adns2db14schema_manager16update_or_createEv
   fun:main
}
{
   <insert_a_suppression_name_here>
   Memcheck:Free
   fun:free
   fun:_ZN4adns2db14row_dns_client11init_staticEv
   fun:_ZNK4adns2db14row_dns_client11get_columnsEv
   fun:_ZNK4adns2db3row14json_serializeEv
   fun:_ZNK4adns17json_serializable7to_jsonEv
   fun:_ZN4adns2db18mongodb_row_helper10insert_rowERNS0_10connectionERNS0_3rowE
   fun:_ZN4adns2db3row10insert_rowERNS0_10connectionE
   fun:_ZN4adns2db5table13create_staticERNS0_10connectionE
   fun:_ZN4adns2db14schema_manager6createERNS0_10connectionE
   fun:_ZN4adns2db14schema_manager16update_or_createEv
   fun:main
}
{
   <insert_a_suppression_name_here>
   Memcheck:Free
   fun:free
   fun:_ZN4adns2db6columnD1Ev
   fun:_ZN4adns2db14row_dns_client11init_staticEv
   fun:_ZNK4adns2db14row_dns_client11get_columnsEv
   fun:_ZNK4adns2db3row14json_serializeEv
   fun:_ZNK4adns17json_serializable7to_jsonEv
   fun:_ZN4adns2db18mongodb_row_helper10insert_rowERNS0_10connectionERNS0_3rowE
   fun:_ZN4adns2db3row10insert_rowERNS0_10connectionE
   fun:_ZN4adns2db5table13create_staticERNS0_10connectionE
   fun:_ZN4adns2db14schema_manager6createERNS0_10connectionE
   fun:_ZN4adns2db14schema_manager16update_or_createEv
   fun:main
}
{
   <insert_a_suppression_name_here>
   Memcheck:Free
   fun:free
   fun:_ZN4adns2db14row_dns_client11init_staticEv
   fun:_ZNK4adns2db14row_dns_client11get_columnsEv
   fun:_ZNK4adns2db3row14json_serializeEv
   fun:_ZNK4adns17json_serializable7to_jsonEv
   fun:_ZN4adns2db18mongodb_row_helper10insert_rowERNS0_10connectionERNS0_3rowE
   fun:_ZN4adns2db3row10insert_rowERNS0_10connectionE
   fun:_ZN4adns2db5table13create_staticERNS0_10connectionE
   fun:_ZN4adns2db14schema_manager6createERNS0_10connectionE
   fun:_ZN4adns2db14schema_manager16update_or_createEv
   fun:main
}
{
   <insert_a_suppression_name_here>
   Memcheck:Free
   fun:free
   fun:_ZN4adns2db6columnD1Ev
   fun:_ZN4adns2db14row_dns_client11init_staticEv
   fun:_ZNK4adns2db14row_dns_client11get_columnsEv
   fun:_ZNK4adns2db3row14json_serializeEv
   fun:_ZNK4adns17json_serializable7to_jsonEv
   fun:_ZN4adns2db18mongodb_row_helper10insert_rowERNS0_10connectionERNS0_3rowE
   fun:_ZN4adns2db3row10insert_rowERNS0_10connectionE
   fun:_ZN4adns2db5table13create_staticERNS0_10connectionE
   fun:_ZN4adns2db14schema_manager6createERNS0_10connectionE
   fun:_ZN4adns2db14schema_manager16update_or_createEv
   fun:main
}
{
   <insert_a_suppression_name_here>
   Memcheck:Free
   fun:free
   fun:_ZN4adns2db14row_dns_client11init_staticEv
   fun:_ZNK4adns2db14row_dns_client11get_columnsEv
   fun:_ZNK4adns2db3row14json_serializeEv
   fun:_ZNK4adns17json_serializable7to_jsonEv
   fun:_ZN4adns2db18mongodb_row_helper10insert_rowERNS0_10connectionERNS0_3rowE
   fun:_ZN4adns2db3row10insert_rowERNS0_10connectionE
   fun:_ZN4adns2db5table13create_staticERNS0_10connectionE
   fun:_ZN4adns2db14schema_manager6createERNS0_10connectionE
   fun:_ZN4adns2db14schema_manager16update_or_createEv
   fun:main
}
{
   <insert_a_suppression_name_here>
   Memcheck:Free
   fun:free
   fun:_ZN4adns2db6columnD1Ev
   fun:_ZN4adns2db14row_dns_client11init_staticEv
   fun:_ZNK4adns2db14row_dns_client11get_columnsEv
   fun:_ZNK4adns2db3row14json_serializeEv
   fun:_ZNK4adns17json_serializable7to_jsonEv
   fun:_ZN4adns2db18mongodb_row_helper10insert_rowERNS0_10connectionERNS0_3rowE
   fun:_ZN4adns2db3row10insert_rowERNS0_10connectionE
   fun:_ZN4adns2db5table13create_staticERNS0_10connectionE
   fun:_ZN4adns2db14schema_manager6createERNS0_10connectionE
   fun:_ZN4adns2db14schema_manager16update_or_createEv
   fun:main
}
{
   <insert_a_suppression_name_here>
   Memcheck:Free
   fun:free
   fun:_ZN4adns2db14row_dns_client11init_staticEv
   fun:_ZNK4adns2db14row_dns_client11get_columnsEv
   fun:_ZNK4adns2db3row14json_serializeEv
   fun:_ZNK4adns17json_serializable7to_jsonEv
   fun:_ZN4adns2db18mongodb_row_helper10insert_rowERNS0_10connectionERNS0_3rowE
   fun:_ZN4adns2db3row10insert_rowERNS0_10connectionE
   fun:_ZN4adns2db5table13create_staticERNS0_10connectionE
   fun:_ZN4adns2db14schema_manager6createERNS0_10connectionE
   fun:_ZN4adns2db14schema_manager16update_or_createEv
   fun:main
}
{
   <insert_a_suppression_name_here>
   Memcheck:Free
   fun:free
   fun:_ZN4adns2db6columnD1Ev
   fun:_ZN4adns2db14row_dns_client11init_staticEv
   fun:_ZNK4adns2db14row_dns_client11get_columnsEv
   fun:_ZNK4adns2db3row14json_serializeEv
   fun:_ZNK4adns17json_serializable7to_jsonEv
   fun:_ZN4adns2db18mongodb_row_helper10insert_rowERNS0_10connectionERNS0_3rowE
   fun:_ZN4adns2db3row10insert_rowERNS0_10connectionE
   fun:_ZN4adns2db5table13create_staticERNS0_10connectionE
   fun:_ZN4adns2db14schema_manager6createERNS0_10connectionE
   fun:_ZN4adns2db14schema_manager16update_or_createEv
   fun:main
}
{
   <insert_a_suppression_name_here>
   Memcheck:Free
   fun:free
   fun:_ZN4adns2db14row_dns_client11init_staticEv
   fun:_ZNK4adns2db14row_dns_client11get_columnsEv
   fun:_ZNK4adns2db3row14json_serializeEv
   fun:_ZNK4adns17json_serializable7to_jsonEv
   fun:_ZN4adns2db18mongodb_row_helper10insert_rowERNS0_10connectionERNS0_3rowE
   fun:_ZN4adns2db3row10insert_rowERNS0_10connectionE
   fun:_ZN4adns2db5table13create_staticERNS0_10connectionE
   fun:_ZN4adns2db14schema_manager6createERNS0_10connectionE
   fun:_ZN4adns2db14schema_manager16update_or_createEv
   fun:main
}
{
   <insert_a_suppression_name_here>
   Memcheck:Free
   fun:free
   fun:_ZN4adns2db18mongodb_row_helper10insert_rowERNS0_10connectionERNS0_3rowE
   fun:_ZN4adns2db3row10insert_rowERNS0_10connectionE
   fun:_ZN4adns2db5table13create_staticERNS0_10connectionE
   fun:_ZN4adns2db14schema_manager6createERNS0_10connectionE
   fun:_ZN4adns2db14schema_manager16update_or_createEv
   fun:main
}
{
   <insert_a_suppression_name_here>
   Memcheck:Free
   fun:free
   fun:_ZN4adns2db18mongodb_row_helper10insert_rowERNS0_10connectionERNS0_3rowE
   fun:_ZN4adns2db3row10insert_rowERNS0_10connectionE
   fun:_ZN4adns2db5table13create_staticERNS0_10connectionE
   fun:_ZN4adns2db14schema_manager6createERNS0_10connectionE
   fun:_ZN4adns2db14schema_manager16update_or_createEv
   fun:main
}
{
   <insert_a_suppression_name_here>
   Memcheck:Free
   fun:free
   fun:_ZN4adns2db18mongodb_row_helper10insert_rowERNS0_10connectionERNS0_3rowE
   fun:_ZN4adns2db3row10insert_rowERNS0_10connectionE
   fun:_ZN4adns2db5table13create_staticERNS0_10connectionE
   fun:_ZN4adns2db14schema_manager6createERNS0_10connectionE
   fun:_ZN4adns2db14schema_manager16update_or_createEv
   fun:main
}
{
   <insert_a_suppression_name_here>
   Memcheck:Free
   fun:free
   fun:_ZN4adns2db18mongodb_row_helper10insert_rowERNS0_10connectionERNS0_3rowE
   fun:_ZN4adns2db3row10insert_rowERNS0_10connectionE
   fun:_ZN4adns2db5table13create_staticERNS0_10connectionE
   fun:_ZN4adns2db14schema_manager6createERNS0_10connectionE
   fun:_ZN4adns2db14schema_manager16update_or_createEv
   fun:main
}
{
   <insert_a_suppression_name_here>
   Memcheck:Free
   fun:free
   fun:_ZN4adns2db6columnD1Ev
   fun:_ZN4adns2db14row_dns_server11init_staticEv
   fun:_ZNK4adns2db14row_dns_server11get_columnsEv
   fun:_ZNK4adns2db3row14json_serializeEv
   fun:_ZNK4adns17json_serializable7to_jsonEv
   fun:_ZN4adns2db18mongodb_row_helper10insert_rowERNS0_10connectionERNS0_3rowE
   fun:_ZN4adns2db3row10insert_rowERNS0_10connectionE
   fun:_ZN4adns2db5table13create_staticERNS0_10connectionE
   fun:_ZN4adns2db14schema_manager6createERNS0_10connectionE
   fun:_ZN4adns2db14schema_manager16update_or_createEv
   fun:main
}
{
   <insert_a_suppression_name_here>
   Memcheck:Free
   fun:free
   fun:_ZN4adns2db14row_dns_server11init_staticEv
   fun:_ZNK4adns2db14row_dns_server11get_columnsEv
   fun:_ZNK4adns2db3row14json_serializeEv
   fun:_ZNK4adns17json_serializable7to_jsonEv
   fun:_ZN4adns2db18mongodb_row_helper10insert_rowERNS0_10connectionERNS0_3rowE
   fun:_ZN4adns2db3row10insert_rowERNS0_10connectionE
   fun:_ZN4adns2db5table13create_staticERNS0_10connectionE
   fun:_ZN4adns2db14schema_manager6createERNS0_10connectionE
   fun:_ZN4adns2db14schema_manager16update_or_createEv
   fun:main
}
{
   <insert_a_suppression_name_here>
   Memcheck:Free
   fun:free
   fun:_ZN4adns2db6columnD1Ev
   fun:_ZN4adns2db14row_dns_server11init_staticEv
   fun:_ZNK4adns2db14row_dns_server11get_columnsEv
   fun:_ZNK4adns2db3row14json_serializeEv
   fun:_ZNK4adns17json_serializable7to_jsonEv
   fun:_ZN4adns2db18mongodb_row_helper10insert_rowERNS0_10connectionERNS0_3rowE
   fun:_ZN4adns2db3row10insert_rowERNS0_10connectionE
   fun:_ZN4adns2db5table13create_staticERNS0_10connectionE
   fun:_ZN4adns2db14schema_manager6createERNS0_10connectionE
   fun:_ZN4adns2db14schema_manager16update_or_createEv
   fun:main
}
{
   <insert_a_suppression_name_here>
   Memcheck:Free
   fun:free
   fun:_ZN4adns2db14row_dns_server11init_staticEv
   fun:_ZNK4adns2db14row_dns_server11get_columnsEv
   fun:_ZNK4adns2db3row14json_serializeEv
   fun:_ZNK4adns17json_serializable7to_jsonEv
   fun:_ZN4adns2db18mongodb_row_helper10insert_rowERNS0_10connectionERNS0_3rowE
   fun:_ZN4adns2db3row10insert_rowERNS0_10connectionE
   fun:_ZN4adns2db5table13create_staticERNS0_10connectionE
   fun:_ZN4adns2db14schema_manager6createERNS0_10connectionE
   fun:_ZN4adns2db14schema_manager16update_or_createEv
   fun:main
}
{
   <insert_a_suppression_name_here>
   Memcheck:Free
   fun:free
   fun:_ZN4adns2db6columnD1Ev
   fun:_ZN4adns2db14row_dns_server11init_staticEv
   fun:_ZNK4adns2db14row_dns_server11get_columnsEv
   fun:_ZNK4adns2db3row14json_serializeEv
   fun:_ZNK4adns17json_serializable7to_jsonEv
   fun:_ZN4adns2db18mongodb_row_helper10insert_rowERNS0_10connectionERNS0_3rowE
   fun:_ZN4adns2db3row10insert_rowERNS0_10connectionE
   fun:_ZN4adns2db5table13create_staticERNS0_10connectionE
   fun:_ZN4adns2db14schema_manager6createERNS0_10connectionE
   fun:_ZN4adns2db14schema_manager16update_or_createEv
   fun:main
}
{
   <insert_a_suppression_name_here>
   Memcheck:Free
   fun:free
   fun:_ZN4adns2db14row_dns_server11init_staticEv
   fun:_ZNK4adns2db14row_dns_server11get_columnsEv
   fun:_ZNK4adns2db3row14json_serializeEv
   fun:_ZNK4adns17json_serializable7to_jsonEv
   fun:_ZN4adns2db18mongodb_row_helper10insert_rowERNS0_10connectionERNS0_3rowE
   fun:_ZN4adns2db3row10insert_rowERNS0_10connectionE
   fun:_ZN4adns2db5table13create_staticERNS0_10connectionE
   fun:_ZN4adns2db14schema_manager6createERNS0_10connectionE
   fun:_ZN4adns2db14schema_manager16update_or_createEv
   fun:main
}
{
   <insert_a_suppression_name_here>
   Memcheck:Free
   fun:free
   fun:_ZN4adns2db6columnD1Ev
   fun:_ZN4adns2db14row_dns_server11init_staticEv
   fun:_ZNK4adns2db14row_dns_server11get_columnsEv
   fun:_ZNK4adns2db3row14json_serializeEv
   fun:_ZNK4adns17json_serializable7to_jsonEv
   fun:_ZN4adns2db18mongodb_row_helper10insert_rowERNS0_10connectionERNS0_3rowE
   fun:_ZN4adns2db3row10insert_rowERNS0_10connectionE
   fun:_ZN4adns2db5table13create_staticERNS0_10connectionE
   fun:_ZN4adns2db14schema_manager6createERNS0_10connectionE
   fun:_ZN4adns2db14schema_manager16update_or_createEv
   fun:main
}
{
   <insert_a_suppression_name_here>
   Memcheck:Free
   fun:free
   fun:_ZN4adns2db14row_dns_server11init_staticEv
   fun:_ZNK4adns2db14row_dns_server11get_columnsEv
   fun:_ZNK4adns2db3row14json_serializeEv
   fun:_ZNK4adns17json_serializable7to_jsonEv
   fun:_ZN4adns2db18mongodb_row_helper10insert_rowERNS0_10connectionERNS0_3rowE
   fun:_ZN4adns2db3row10insert_rowERNS0_10connectionE
   fun:_ZN4adns2db5table13create_staticERNS0_10connectionE
   fun:_ZN4adns2db14schema_manager6createERNS0_10connectionE
   fun:_ZN4adns2db14schema_manager16update_or_createEv
   fun:main
}
{
   <insert_a_suppression_name_here>
   Memcheck:Free
   fun:free
   fun:_ZN4adns2db6columnD1Ev
   fun:_ZN4adns2db14row_dns_server11init_staticEv
   fun:_ZNK4adns2db14row_dns_server11get_columnsEv
   fun:_ZNK4adns2db3row14json_serializeEv
   fun:_ZNK4adns17json_serializable7to_jsonEv
   fun:_ZN4adns2db18mongodb_row_helper10insert_rowERNS0_10connectionERNS0_3rowE
   fun:_ZN4adns2db3row10insert_rowERNS0_10connectionE
   fun:_ZN4adns2db5table13create_staticERNS0_10connectionE
   fun:_ZN4adns2db14schema_manager6createERNS0_10connectionE
   fun:_ZN4adns2db14schema_manager16update_or_createEv
   fun:main
}
{
   <insert_a_suppression_name_here>
   Memcheck:Free
   fun:free
   fun:_ZN4adns2db14row_dns_server11init_staticEv
   fun:_ZNK4adns2db14row_dns_server11get_columnsEv
   fun:_ZNK4adns2db3row14json_serializeEv
   fun:_ZNK4adns17json_serializable7to_jsonEv
   fun:_ZN4adns2db18mongodb_row_helper10insert_rowERNS0_10connectionERNS0_3rowE
   fun:_ZN4adns2db3row10insert_rowERNS0_10connectionE
   fun:_ZN4adns2db5table13create_staticERNS0_10connectionE
   fun:_ZN4adns2db14schema_manager6createERNS0_10connectionE
   fun:_ZN4adns2db14schema_manager16update_or_createEv
   fun:main
}
{
   <insert_a_suppression_name_here>
   Memcheck:Free
   fun:free
   fun:_ZN4adns2db6columnD1Ev
   fun:_ZN4adns2db14row_dns_server11init_staticEv
   fun:_ZNK4adns2db14row_dns_server11get_columnsEv
   fun:_ZNK4adns2db3row14json_serializeEv
   fun:_ZNK4adns17json_serializable7to_jsonEv
   fun:_ZN4adns2db18mongodb_row_helper10insert_rowERNS0_10connectionERNS0_3rowE
   fun:_ZN4adns2db3row10insert_rowERNS0_10connectionE
   fun:_ZN4adns2db5table13create_staticERNS0_10connectionE
   fun:_ZN4adns2db14schema_manager6createERNS0_10connectionE
   fun:_ZN4adns2db14schema_manager16update_or_createEv
   fun:main
}
{
   <insert_a_suppression_name_here>
   Memcheck:Free
   fun:free
   fun:_ZN4adns2db14row_dns_server11init_staticEv
   fun:_ZNK4adns2db14row_dns_server11get_columnsEv
   fun:_ZNK4adns2db3row14json_serializeEv
   fun:_ZNK4adns17json_serializable7to_jsonEv
   fun:_ZN4adns2db18mongodb_row_helper10insert_rowERNS0_10connectionERNS0_3rowE
   fun:_ZN4adns2db3row10insert_rowERNS0_10connectionE
   fun:_ZN4adns2db5table13create_staticERNS0_10connectionE
   fun:_ZN4adns2db14schema_manager6createERNS0_10connectionE
   fun:_ZN4adns2db14schema_manager16update_or_createEv
   fun:main
}
{
   <insert_a_suppression_name_here>
   Memcheck:Free
   fun:free
   fun:_ZN4adns2db6columnD1Ev
   fun:_ZN4adns2db14row_dns_server11init_staticEv
   fun:_ZNK4adns2db14row_dns_server11get_columnsEv
   fun:_ZNK4adns2db3row14json_serializeEv
   fun:_ZNK4adns17json_serializable7to_jsonEv
   fun:_ZN4adns2db18mongodb_row_helper10insert_rowERNS0_10connectionERNS0_3rowE
   fun:_ZN4adns2db3row10insert_rowERNS0_10connectionE
   fun:_ZN4adns2db5table13create_staticERNS0_10connectionE
   fun:_ZN4adns2db14schema_manager6createERNS0_10connectionE
   fun:_ZN4adns2db14schema_manager16update_or_createEv
   fun:main
}
{
   <insert_a_suppression_name_here>
   Memcheck:Free
   fun:free
   fun:_ZN4adns2db14row_dns_server11init_staticEv
   fun:_ZNK4adns2db14row_dns_server11get_columnsEv
   fun:_ZNK4adns2db3row14json_serializeEv
   fun:_ZNK4adns17json_serializable7to_jsonEv
   fun:_ZN4adns2db18mongodb_row_helper10insert_rowERNS0_10connectionERNS0_3rowE
   fun:_ZN4adns2db3row10insert_rowERNS0_10connectionE
   fun:_ZN4adns2db5table13create_staticERNS0_10connectionE
   fun:_ZN4adns2db14schema_manager6createERNS0_10connectionE
   fun:_ZN4adns2db14schema_manager16update_or_createEv
   fun:main
}
{
   <insert_a_suppression_name_here>
   Memcheck:Free
   fun:free
   fun:_ZN4adns2db6columnD1Ev
   fun:_ZN4adns2db14row_dns_server11init_staticEv
   fun:_ZNK4adns2db14row_dns_server11get_columnsEv
   fun:_ZNK4adns2db3row14json_serializeEv
   fun:_ZNK4adns17json_serializable7to_jsonEv
   fun:_ZN4adns2db18mongodb_row_helper10insert_rowERNS0_10connectionERNS0_3rowE
   fun:_ZN4adns2db3row10insert_rowERNS0_10connectionE
   fun:_ZN4adns2db5table13create_staticERNS0_10connectionE
   fun:_ZN4adns2db14schema_manager6createERNS0_10connectionE
   fun:_ZN4adns2db14schema_manager16update_or_createEv
   fun:main
}
{
   <insert_a_suppression_name_here>
   Memcheck:Free
   fun:free
   fun:_ZN4adns2db14row_dns_server11init_staticEv
   fun:_ZNK4adns2db14row_dns_server11get_columnsEv
   fun:_ZNK4adns2db3row14json_serializeEv
   fun:_ZNK4adns17json_serializable7to_jsonEv
   fun:_ZN4adns2db18mongodb_row_helper10insert_rowERNS0_10connectionERNS0_3rowE
   fun:_ZN4adns2db3row10insert_rowERNS0_10connectionE
   fun:_ZN4adns2db5table13create_staticERNS0_10connectionE
   fun:_ZN4adns2db14schema_manager6createERNS0_10connectionE
   fun:_ZN4adns2db14schema_manager16update_or_createEv
   fun:main
}
{
   <insert_a_suppression_name_here>
   Memcheck:Free
   fun:free
   fun:_ZN4adns2db6columnD1Ev
   fun:_ZN4adns2db14row_dns_server11init_staticEv
   fun:_ZNK4adns2db14row_dns_server11get_columnsEv
   fun:_ZNK4adns2db3row14json_serializeEv
   fun:_ZNK4adns17json_serializable7to_jsonEv
   fun:_ZN4adns2db18mongodb_row_helper10insert_rowERNS0_10connectionERNS0_3rowE
   fun:_ZN4adns2db3row10insert_rowERNS0_10connectionE
   fun:_ZN4adns2db5table13create_staticERNS0_10connectionE
   fun:_ZN4adns2db14schema_manager6createERNS0_10connectionE
   fun:_ZN4adns2db14schema_manager16update_or_createEv
   fun:main
}
{
   <insert_a_suppression_name_here>
   Memcheck:Free
   fun:free
   fun:_ZN4adns2db14row_dns_server11init_staticEv
   fun:_ZNK4adns2db14row_dns_server11get_columnsEv
   fun:_ZNK4adns2db3row14json_serializeEv
   fun:_ZNK4adns17json_serializable7to_jsonEv
   fun:_ZN4adns2db18mongodb_row_helper10insert_rowERNS0_10connectionERNS0_3rowE
   fun:_ZN4adns2db3row10insert_rowERNS0_10connectionE
   fun:_ZN4adns2db5table13create_staticERNS0_10connectionE
   fun:_ZN4adns2db14schema_manager6createERNS0_10connectionE
   fun:_ZN4adns2db14schema_manager16update_or_createEv
   fun:main
}
{
   <insert_a_suppression_name_here>
   Memcheck:Free
   fun:free
   fun:_ZN4adns2db6columnD1Ev
   fun:_ZN4adns2db14row_dns_server11init_staticEv
   fun:_ZNK4adns2db14row_dns_server11get_columnsEv
   fun:_ZNK4adns2db3row14json_serializeEv
   fun:_ZNK4adns17json_serializable7to_jsonEv
   fun:_ZN4adns2db18mongodb_row_helper10insert_rowERNS0_10connectionERNS0_3rowE
   fun:_ZN4adns2db3row10insert_rowERNS0_10connectionE
   fun:_ZN4adns2db5table13create_staticERNS0_10connectionE
   fun:_ZN4adns2db14schema_manager6createERNS0_10connectionE
   fun:_ZN4adns2db14schema_manager16update_or_createEv
   fun:main
}
{
   <insert_a_suppression_name_here>
   Memcheck:Free
   fun:free
   fun:_ZN4adns2db14row_dns_server11init_staticEv
   fun:_ZNK4adns2db14row_dns_server11get_columnsEv
   fun:_ZNK4adns2db3row14json_serializeEv
   fun:_ZNK4adns17json_serializable7to_jsonEv
   fun:_ZN4adns2db18mongodb_row_helper10insert_rowERNS0_10connectionERNS0_3rowE
   fun:_ZN4adns2db3row10insert_rowERNS0_10connectionE
   fun:_ZN4adns2db5table13create_staticERNS0_10connectionE
   fun:_ZN4adns2db14schema_manager6createERNS0_10connectionE
   fun:_ZN4adns2db14schema_manager16update_or_createEv
   fun:main
}
{
   <insert_a_suppression_name_here>
   Memcheck:Free
   fun:free
   fun:_ZN4adns2db6columnD1Ev
   fun:_ZN4adns2db14row_dns_server11init_staticEv
   fun:_ZNK4adns2db14row_dns_server11get_columnsEv
   fun:_ZNK4adns2db3row14json_serializeEv
   fun:_ZNK4adns17json_serializable7to_jsonEv
   fun:_ZN4adns2db18mongodb_row_helper10insert_rowERNS0_10connectionERNS0_3rowE
   fun:_ZN4adns2db3row10insert_rowERNS0_10connectionE
   fun:_ZN4adns2db5table13create_staticERNS0_10connectionE
   fun:_ZN4adns2db14schema_manager6createERNS0_10connectionE
   fun:_ZN4adns2db14schema_manager16update_or_createEv
   fun:main
}
{
   <insert_a_suppression_name_here>
   Memcheck:Free
   fun:free
   fun:_ZN4adns2db14row_dns_server11init_staticEv
   fun:_ZNK4adns2db14row_dns_server11get_columnsEv
   fun:_ZNK4adns2db3row14json_serializeEv
   fun:_ZNK4adns17json_serializable7to_jsonEv
   fun:_ZN4adns2db18mongodb_row_helper10insert_rowERNS0_10connectionERNS0_3rowE
   fun:_ZN4adns2db3row10insert_rowERNS0_10connectionE
   fun:_ZN4adns2db5table13create_staticERNS0_10connectionE
   fun:_ZN4adns2db14schema_manager6createERNS0_10connectionE
   fun:_ZN4adns2db14schema_manager16update_or_createEv
   fun:main
}
{
   <insert_a_suppression_name_here>
   Memcheck:Free
   fun:free
   fun:_ZN4adns2db6columnD1Ev
   fun:_ZN4adns2db14row_dns_server11init_staticEv
   fun:_ZNK4adns2db14row_dns_server11get_columnsEv
   fun:_ZNK4adns2db3row14json_serializeEv
   fun:_ZNK4adns17json_serializable7to_jsonEv
   fun:_ZN4adns2db18mongodb_row_helper10insert_rowERNS0_10connectionERNS0_3rowE
   fun:_ZN4adns2db3row10insert_rowERNS0_10connectionE
   fun:_ZN4adns2db5table13create_staticERNS0_10connectionE
   fun:_ZN4adns2db14schema_manager6createERNS0_10connectionE
   fun:_ZN4adns2db14schema_manager16update_or_createEv
   fun:main
}
{
   <insert_a_suppression_name_here>
   Memcheck:Free
   fun:free
   fun:_ZN4adns2db14row_dns_server11init_staticEv
   fun:_ZNK4adns2db14row_dns_server11get_columnsEv
   fun:_ZNK4adns2db3row14json_serializeEv
   fun:_ZNK4adns17json_serializable7to_jsonEv
   fun:_ZN4adns2db18mongodb_row_helper10insert_rowERNS0_10connectionERNS0_3rowE
   fun:_ZN4adns2db3row10insert_rowERNS0_10connectionE
   fun:_ZN4adns2db5table13create_staticERNS0_10connectionE
   fun:_ZN4adns2db14schema_manager6createERNS0_10connectionE
   fun:_ZN4adns2db14schema_manager16update_or_createEv
   fun:main
}
{
   <insert_a_suppression_name_here>
   Memcheck:Free
   fun:free
   fun:_ZN4adns2db6columnD1Ev
   fun:_ZN4adns2db14row_dns_server11init_staticEv
   fun:_ZNK4adns2db14row_dns_server11get_columnsEv
   fun:_ZNK4adns2db3row14json_serializeEv
   fun:_ZNK4adns17json_serializable7to_jsonEv
   fun:_ZN4adns2db18mongodb_row_helper10insert_rowERNS0_10connectionERNS0_3rowE
   fun:_ZN4adns2db3row10insert_rowERNS0_10connectionE
   fun:_ZN4adns2db5table13create_staticERNS0_10connectionE
   fun:_ZN4adns2db14schema_manager6createERNS0_10connectionE
   fun:_ZN4adns2db14schema_manager16update_or_createEv
   fun:main
}
{
   <insert_a_suppression_name_here>
   Memcheck:Free
   fun:free
   fun:_ZN4adns2db14row_dns_server11init_staticEv
   fun:_ZNK4adns2db14row_dns_server11get_columnsEv
   fun:_ZNK4adns2db3row14json_serializeEv
   fun:_ZNK4adns17json_serializable7to_jsonEv
   fun:_ZN4adns2db18mongodb_row_helper10insert_rowERNS0_10connectionERNS0_3rowE
   fun:_ZN4adns2db3row10insert_rowERNS0_10connectionE
   fun:_ZN4adns2db5table13create_staticERNS0_10connectionE
   fun:_ZN4adns2db14schema_manager6createERNS0_10connectionE
   fun:_ZN4adns2db14schema_manager16update_or_createEv
   fun:main
}
{
   <insert_a_suppression_name_here>
   Memcheck:Free
   fun:free
   fun:_ZN4adns2db14row_dns_server11init_staticEv
   fun:_ZNK4adns2db14row_dns_server11get_columnsEv
   fun:_ZNK4adns2db3row14json_serializeEv
   fun:_ZNK4adns17json_serializable7to_jsonEv
   fun:_ZN4adns2db18mongodb_row_helper10insert_rowERNS0_10connectionERNS0_3rowE
   fun:_ZN4adns2db3row10insert_rowERNS0_10connectionE
   fun:_ZN4adns2db5table13create_staticERNS0_10connectionE
   fun:_ZN4adns2db14schema_manager6createERNS0_10connectionE
   fun:_ZN4adns2db14schema_manager16update_or_createEv
   fun:main
}
{
   <insert_a_suppression_name_here>
   Memcheck:Free
   fun:free
   fun:_ZN4adns2db14row_dns_server11init_staticEv
   fun:_ZNK4adns2db14row_dns_server11get_columnsEv
   fun:_ZNK4adns2db3row14json_serializeEv
   fun:_ZNK4adns17json_serializable7to_jsonEv
   fun:_ZN4adns2db18mongodb_row_helper10insert_rowERNS0_10connectionERNS0_3rowE
   fun:_ZN4adns2db3row10insert_rowERNS0_10connectionE
   fun:_ZN4adns2db5table13create_staticERNS0_10connectionE
   fun:_ZN4adns2db14schema_manager6createERNS0_10connectionE
   fun:_ZN4adns2db14schema_manager16update_or_createEv
   fun:main
}
{
   <insert_a_suppression_name_here>
   Memcheck:Free
   fun:free
   fun:_ZN4adns2db14row_dns_server11init_staticEv
   fun:_ZNK4adns2db14row_dns_server11get_columnsEv
   fun:_ZNK4adns2db3row14json_serializeEv
   fun:_ZNK4adns17json_serializable7to_jsonEv
   fun:_ZN4adns2db18mongodb_row_helper10insert_rowERNS0_10connectionERNS0_3rowE
   fun:_ZN4adns2db3row10insert_rowERNS0_10connectionE
   fun:_ZN4adns2db5table13create_staticERNS0_10connectionE
   fun:_ZN4adns2db14schema_manager6createERNS0_10connectionE
   fun:_ZN4adns2db14schema_manager16update_or_createEv
   fun:main
}
{
   <insert_a_suppression_name_here>
   Memcheck:Free
   fun:free
   fun:_ZNSt7__cxx1115basic_stringbufIcSt11char_traitsIcESaIcEE8overflowEi
   fun:_ZNSt15basic_streambufIcSt11char_traitsIcEE6xsputnEPKcl
   fun:_ZSt16__ostream_insertIcSt11char_traitsIcEERSt13basic_ostreamIT_T0_ES6_PKS3_l
   fun:_ZStlsISt11char_traitsIcEERSt13basic_ostreamIcT_ES5_PKc
   fun:_ZN4argo13stream_writer5writeERKNSt7__cxx1112basic_stringIcSt11char_traitsIcESaIcEEE
   fun:_ZN4argolsERNS_6writerERKNSt7__cxx1112basic_stringIcSt11char_traitsIcESaIcEEE
   fun:_ZN4argo8unparser14unparse_objectERKNS_4jsonEi
   fun:_ZN4argo8unparser7unparseERKNS_4jsonEi
   fun:_ZN4argo8unparser7unparseERSoRKNS_4jsonEPKcS6_S6_i
   fun:_ZN4argolsERNSt7__cxx1112basic_stringIcSt11char_traitsIcESaIcEEERKNS_4jsonE
   fun:_ZN4adns2db18mongodb_row_helper10insert_rowERNS0_10connectionERNS0_3rowE
}
{
   <insert_a_suppression_name_here>
   Memcheck:Free
   fun:free
   fun:_ZN4adns2db18row_control_server11init_staticEv
   fun:_ZNK4adns2db18row_control_server11get_columnsEv
   fun:_ZNK4adns2db3row14json_serializeEv
   fun:_ZNK4adns17json_serializable7to_jsonEv
   fun:_ZN4adns2db18mongodb_row_helper10insert_rowERNS0_10connectionERNS0_3rowE
   fun:_ZN4adns2db3row10insert_rowERNS0_10connectionE
   fun:_ZN4adns2db5table13create_staticERNS0_10connectionE
   fun:_ZN4adns2db14schema_manager6createERNS0_10connectionE
   fun:_ZN4adns2db14schema_manager16update_or_createEv
   fun:main
}
{
   <insert_a_suppression_name_here>
   Memcheck:Free
   fun:free
   fun:_ZN4adns2db18row_control_server11init_staticEv
   fun:_ZNK4adns2db18row_control_server11get_columnsEv
   fun:_ZNK4adns2db3row14json_serializeEv
   fun:_ZNK4adns17json_serializable7to_jsonEv
   fun:_ZN4adns2db18mongodb_row_helper10insert_rowERNS0_10connectionERNS0_3rowE
   fun:_ZN4adns2db3row10insert_rowERNS0_10connectionE
   fun:_ZN4adns2db5table13create_staticERNS0_10connectionE
   fun:_ZN4adns2db14schema_manager6createERNS0_10connectionE
   fun:_ZN4adns2db14schema_manager16update_or_createEv
   fun:main
}
{
   <insert_a_suppression_name_here>
   Memcheck:Free
   fun:free
   fun:_ZN4adns2db18row_control_server11init_staticEv
   fun:_ZNK4adns2db18row_control_server11get_columnsEv
   fun:_ZNK4adns2db3row14json_serializeEv
   fun:_ZNK4adns17json_serializable7to_jsonEv
   fun:_ZN4adns2db18mongodb_row_helper10insert_rowERNS0_10connectionERNS0_3rowE
   fun:_ZN4adns2db3row10insert_rowERNS0_10connectionE
   fun:_ZN4adns2db5table13create_staticERNS0_10connectionE
   fun:_ZN4adns2db14schema_manager6createERNS0_10connectionE
   fun:_ZN4adns2db14schema_manager16update_or_createEv
   fun:main
}
{
   <insert_a_suppression_name_here>
   Memcheck:Free
   fun:free
   fun:_ZN4adns2db18row_control_server11init_staticEv
   fun:_ZNK4adns2db18row_control_server11get_columnsEv
   fun:_ZNK4adns2db3row14json_serializeEv
   fun:_ZNK4adns17json_serializable7to_jsonEv
   fun:_ZN4adns2db18mongodb_row_helper10insert_rowERNS0_10connectionERNS0_3rowE
   fun:_ZN4adns2db3row10insert_rowERNS0_10connectionE
   fun:_ZN4adns2db5table13create_staticERNS0_10connectionE
   fun:_ZN4adns2db14schema_manager6createERNS0_10connectionE
   fun:_ZN4adns2db14schema_manager16update_or_createEv
   fun:main
}
{
   <insert_a_suppression_name_here>
   Memcheck:Free
   fun:free
   fun:_ZN4adns2db5table13create_staticERNS0_10connectionE
   fun:_ZN4adns2db14schema_manager6createERNS0_10connectionE
   fun:_ZN4adns2db14schema_manager16update_or_createEv
   fun:main
}
{
   <insert_a_suppression_name_here>
   Memcheck:Free
   fun:free
   fun:_ZN4adns2db5table13create_staticERNS0_10connectionE
   fun:_ZN4adns2db14schema_manager6createERNS0_10connectionE
   fun:_ZN4adns2db14schema_manager16update_or_createEv
   fun:main
}
{
   <insert_a_suppression_name_here>
   Memcheck:Free
   fun:free
   fun:_ZN4adns2db15row_root_server11init_staticEv
   fun:_ZNK4adns2db15row_root_server11get_columnsEv
   fun:_ZNK4adns2db3row14json_serializeEv
   fun:_ZNK4adns17json_serializable7to_jsonEv
   fun:_ZN4adns2db18mongodb_row_helper10insert_rowERNS0_10connectionERNS0_3rowE
   fun:_ZN4adns2db3row10insert_rowERNS0_10connectionE
   fun:_ZN4adns2db5table13create_staticERNS0_10connectionE
   fun:_ZN4adns2db14schema_manager6createERNS0_10connectionE
   fun:_ZN4adns2db14schema_manager16update_or_createEv
   fun:main
}
{
   <insert_a_suppression_name_here>
   Memcheck:Free
   fun:free
   fun:_ZNK4adns2db3row14json_serializeEv
   fun:_ZNK4adns17json_serializable7to_jsonEv
   fun:_ZN4adns2db18mongodb_row_helper10insert_rowERNS0_10connectionERNS0_3rowE
   fun:_ZN4adns2db3row10insert_rowERNS0_10connectionE
   fun:_ZN4adns2db5table13create_staticERNS0_10connectionE
   fun:_ZN4adns2db14schema_manager6createERNS0_10connectionE
   fun:_ZN4adns2db14schema_manager16update_or_createEv
   fun:main
}
{
   <insert_a_suppression_name_here>
   Memcheck:Free
   fun:free
   fun:_ZN4adns2db15row_root_serverD1Ev
   fun:_ZN4adns2db5table13create_staticERNS0_10connectionE
   fun:_ZN4adns2db14schema_manager6createERNS0_10connectionE
   fun:_ZN4adns2db14schema_manager16update_or_createEv
   fun:main
}
{
   <insert_a_suppression_name_here>
   Memcheck:Free
   fun:free
   fun:_ZN4adns8datetimeD1Ev
   fun:_ZN4adns2db15row_root_serverD1Ev
   fun:_ZN4adns2db5table13create_staticERNS0_10connectionE
   fun:_ZN4adns2db14schema_manager6createERNS0_10connectionE
   fun:_ZN4adns2db14schema_manager16update_or_createEv
   fun:main
}
{
   <insert_a_suppression_name_here>
   Memcheck:Free
   fun:free
   fun:_ZN4adns2db5table13create_staticERNS0_10connectionE
   fun:_ZN4adns2db14schema_manager6createERNS0_10connectionE
   fun:_ZN4adns2db14schema_manager16update_or_createEv
   fun:main
}
{
   <insert_a_suppression_name_here>
   Memcheck:Free
   fun:free
   fun:_ZN4adns2db5table13create_staticERNS0_10connectionE
   fun:_ZN4adns2db14schema_manager6createERNS0_10connectionE
   fun:_ZN4adns2db14schema_manager16update_or_createEv
   fun:main
}
{
   <insert_a_suppression_name_here>
   Memcheck:Free
   fun:free
   fun:_ZN4adns2db5table13create_staticERNS0_10connectionE
   fun:_ZN4adns2db14schema_manager6createERNS0_10connectionE
   fun:_ZN4adns2db14schema_manager16update_or_createEv
   fun:main
}
{
   <insert_a_suppression_name_here>
   Memcheck:Free
   fun:free
   fun:_ZN4adns2db5table13create_staticERNS0_10connectionE
   fun:_ZN4adns2db14schema_manager6createERNS0_10connectionE
   fun:_ZN4adns2db14schema_manager16update_or_createEv
   fun:main
}
{
   <insert_a_suppression_name_here>
   Memcheck:Free
   fun:free
   fun:_ZN4adns2db5table13create_staticERNS0_10connectionE
   fun:_ZN4adns2db14schema_manager6createERNS0_10connectionE
   fun:_ZN4adns2db14schema_manager16update_or_createEv
   fun:main
}
{
   <insert_a_suppression_name_here>
   Memcheck:Free
   fun:free
   fun:_ZN4adns2db5table13create_staticERNS0_10connectionE
   fun:_ZN4adns2db14schema_manager6createERNS0_10connectionE
   fun:_ZN4adns2db14schema_manager16update_or_createEv
   fun:main
}
{
   <insert_a_suppression_name_here>
   Memcheck:Free
   fun:free
   fun:_ZN4adns2db5table13create_staticERNS0_10connectionE
   fun:_ZN4adns2db14schema_manager6createERNS0_10connectionE
   fun:_ZN4adns2db14schema_manager16update_or_createEv
   fun:main
}
{
   <insert_a_suppression_name_here>
   Memcheck:Free
   fun:free
   fun:_ZN4adns2db5table13create_staticERNS0_10connectionE
   fun:_ZN4adns2db14schema_manager6createERNS0_10connectionE
   fun:_ZN4adns2db14schema_manager16update_or_createEv
   fun:main
}
{
   <insert_a_suppression_name_here>
   Memcheck:Free
   fun:free
   fun:_ZN4adns2db5table13create_staticERNS0_10connectionE
   fun:_ZN4adns2db14schema_manager6createERNS0_10connectionE
   fun:_ZN4adns2db14schema_manager16update_or_createEv
   fun:main
}
{
   <insert_a_suppression_name_here>
   Memcheck:Free
   fun:free
   fun:_ZN4adns2db5table13create_staticERNS0_10connectionE
   fun:_ZN4adns2db14schema_manager6createERNS0_10connectionE
   fun:_ZN4adns2db14schema_manager16update_or_createEv
   fun:main
}
{
   <insert_a_suppression_name_here>
   Memcheck:Free
   fun:free
   fun:_ZN4adns2db5table13create_staticERNS0_10connectionE
   fun:_ZN4adns2db14schema_manager6createERNS0_10connectionE
   fun:_ZN4adns2db14schema_manager16update_or_createEv
   fun:main
}
{
   <insert_a_suppression_name_here>
   Memcheck:Free
   fun:free
   fun:_ZN4adns2db5table13create_staticERNS0_10connectionE
   fun:_ZN4adns2db14schema_manager6createERNS0_10connectionE
   fun:_ZN4adns2db14schema_manager16update_or_createEv
   fun:main
}
{
   <insert_a_suppression_name_here>
   Memcheck:Free
   fun:free
   fun:_ZN4adns2db5table13create_staticERNS0_10connectionE
   fun:_ZN4adns2db14schema_manager6createERNS0_10connectionE
   fun:_ZN4adns2db14schema_manager16update_or_createEv
   fun:main
}
{
   <insert_a_suppression_name_here>
   Memcheck:Free
   fun:free
   fun:_ZN4adns2db5table13create_staticERNS0_10connectionE
   fun:_ZN4adns2db14schema_manager6createERNS0_10connectionE
   fun:_ZN4adns2db14schema_manager16update_or_createEv
   fun:main
}
{
   <insert_a_suppression_name_here>
   Memcheck:Free
   fun:free
   fun:_ZN4adns2db5table13create_staticERNS0_10connectionE
   fun:_ZN4adns2db14schema_manager6createERNS0_10connectionE
   fun:_ZN4adns2db14schema_manager16update_or_createEv
   fun:main
}
{
   <insert_a_suppression_name_here>
   Memcheck:Free
   fun:free
   fun:_ZN4adns2db5table13create_staticERNS0_10connectionE
   fun:_ZN4adns2db14schema_manager6createERNS0_10connectionE
   fun:_ZN4adns2db14schema_manager16update_or_createEv
   fun:main
}
{
   <insert_a_suppression_name_here>
   Memcheck:Free
   fun:free
   fun:_ZN4adns2db5table13create_staticERNS0_10connectionE
   fun:_ZN4adns2db14schema_manager6createERNS0_10connectionE
   fun:_ZN4adns2db14schema_manager16update_or_createEv
   fun:main
}
{
   <insert_a_suppression_name_here>
   Memcheck:Free
   fun:free
   fun:_ZN4adns2db5table13create_staticERNS0_10connectionE
   fun:_ZN4adns2db14schema_manager6createERNS0_10connectionE
   fun:_ZN4adns2db14schema_manager16update_or_createEv
   fun:main
}
{
   <insert_a_suppression_name_here>
   Memcheck:Free
   fun:free
   fun:_ZN4adns2db5table13create_staticERNS0_10connectionE
   fun:_ZN4adns2db14schema_manager6createERNS0_10connectionE
   fun:_ZN4adns2db14schema_manager16update_or_createEv
   fun:main
}
{
   <insert_a_suppression_name_here>
   Memcheck:Free
   fun:free
   fun:_ZN4adns2db5table13create_staticERNS0_10connectionE
   fun:_ZN4adns2db14schema_manager6createERNS0_10connectionE
   fun:_ZN4adns2db14schema_manager16update_or_createEv
   fun:main
}
{
   <insert_a_suppression_name_here>
   Memcheck:Free
   fun:free
   fun:_ZN4adns2db5table13create_staticERNS0_10connectionE
   fun:_ZN4adns2db14schema_manager6createERNS0_10connectionE
   fun:_ZN4adns2db14schema_manager16update_or_createEv
   fun:main
}
{
   <insert_a_suppression_name_here>
   Memcheck:Free
   fun:free
   fun:_ZN4adns2db5table13create_staticERNS0_10connectionE
   fun:_ZN4adns2db14schema_manager6createERNS0_10connectionE
   fun:_ZN4adns2db14schema_manager16update_or_createEv
   fun:main
}
{
   <insert_a_suppression_name_here>
   Memcheck:Free
   fun:free
   fun:_ZN4adns2db5table13create_staticERNS0_10connectionE
   fun:_ZN4adns2db14schema_manager6createERNS0_10connectionE
   fun:_ZN4adns2db14schema_manager16update_or_createEv
   fun:main
}
{
   <insert_a_suppression_name_here>
   Memcheck:Free
   fun:free
   fun:_ZN4adns2db5table13create_staticERNS0_10connectionE
   fun:_ZN4adns2db14schema_manager6createERNS0_10connectionE
   fun:_ZN4adns2db14schema_manager16update_or_createEv
   fun:main
}
{
   <insert_a_suppression_name_here>
   Memcheck:Free
   fun:free
   fun:_ZN4adns2db5table13create_staticERNS0_10connectionE
   fun:_ZN4adns2db14schema_manager6createERNS0_10connectionE
   fun:_ZN4adns2db14schema_manager16update_or_createEv
   fun:main
}
{
   <insert_a_suppression_name_here>
   Memcheck:Free
   fun:free
   fun:_ZN4adns2db5table13create_staticERNS0_10connectionE
   fun:_ZN4adns2db14schema_manager6createERNS0_10connectionE
   fun:_ZN4adns2db14schema_manager16update_or_createEv
   fun:main
}
{
   <insert_a_suppression_name_here>
   Memcheck:Free
   fun:free
   fun:_ZN4adns2db5table13create_staticERNS0_10connectionE
   fun:_ZN4adns2db14schema_manager6createERNS0_10connectionE
   fun:_ZN4adns2db14schema_manager16update_or_createEv
   fun:main
}
{
   <insert_a_suppression_name_here>
   Memcheck:Free
   fun:free
   fun:_ZN4adns2db15row_root_serverD1Ev
   fun:_ZN4adns2db5table13create_staticERNS0_10connectionE
   fun:_ZN4adns2db14schema_manager6createERNS0_10connectionE
   fun:_ZN4adns2db14schema_manager16update_or_createEv
   fun:main
}
{
   <insert_a_suppression_name_here>
   Memcheck:Free
   fun:free
   fun:_ZN4adns2db5table13create_staticERNS0_10connectionE
   fun:_ZN4adns2db14schema_manager6createERNS0_10connectionE
   fun:_ZN4adns2db14schema_manager16update_or_createEv
   fun:main
}
{
   <insert_a_suppression_name_here>
   Memcheck:Free
   fun:free
   fun:_ZN4adns2db5table13create_staticERNS0_10connectionE
   fun:_ZN4adns2db14schema_manager6createERNS0_10connectionE
   fun:_ZN4adns2db14schema_manager16update_or_createEv
   fun:main
}
{
   <insert_a_suppression_name_here>
   Memcheck:Free
   fun:free
   fun:_ZN4adns2db5table13create_staticERNS0_10connectionE
   fun:_ZN4adns2db14schema_manager6createERNS0_10connectionE
   fun:_ZN4adns2db14schema_manager16update_or_createEv
   fun:main
}
{
   <insert_a_suppression_name_here>
   Memcheck:Free
   fun:free
   fun:_ZN4adns2db5table13create_staticERNS0_10connectionE
   fun:_ZN4adns2db14schema_manager6createERNS0_10connectionE
   fun:_ZN4adns2db14schema_manager16update_or_createEv
   fun:main
}
{
   <insert_a_suppression_name_here>
   Memcheck:Free
   fun:free
   fun:_ZN4adns2db5table13create_staticERNS0_10connectionE
   fun:_ZN4adns2db14schema_manager6createERNS0_10connectionE
   fun:_ZN4adns2db14schema_manager16update_or_createEv
   fun:main
}
{
   <insert_a_suppression_name_here>
   Memcheck:Free
   fun:free
   fun:_ZN4adns2db5table13create_staticERNS0_10connectionE
   fun:_ZN4adns2db14schema_manager6createERNS0_10connectionE
   fun:_ZN4adns2db14schema_manager16update_or_createEv
   fun:main
}
{
   <insert_a_suppression_name_here>
   Memcheck:Free
   fun:free
   fun:_ZN4adns2db5table13create_staticERNS0_10connectionE
   fun:_ZN4adns2db14schema_manager6createERNS0_10connectionE
   fun:_ZN4adns2db14schema_manager16update_or_createEv
   fun:main
}
{
   <insert_a_suppression_name_here>
   Memcheck:Free
   fun:free
   fun:_ZN4adns2db5table13create_staticERNS0_10connectionE
   fun:_ZN4adns2db14schema_manager6createERNS0_10connectionE
   fun:_ZN4adns2db14schema_manager16update_or_createEv
   fun:main
}
{
   <insert_a_suppression_name_here>
   Memcheck:Free
   fun:free
   fun:_ZN4adns2db5table13create_staticERNS0_10connectionE
   fun:_ZN4adns2db14schema_manager6createERNS0_10connectionE
   fun:_ZN4adns2db14schema_manager16update_or_createEv
   fun:main
}
{
   <insert_a_suppression_name_here>
   Memcheck:Free
   fun:free
   fun:_ZN4adns2db5table13create_staticERNS0_10connectionE
   fun:_ZN4adns2db14schema_manager6createERNS0_10connectionE
   fun:_ZN4adns2db14schema_manager16update_or_createEv
   fun:main
}
{
   <insert_a_suppression_name_here>
   Memcheck:Free
   fun:free
   fun:_ZN4adns2db5table13create_staticERNS0_10connectionE
   fun:_ZN4adns2db14schema_manager6createERNS0_10connectionE
   fun:_ZN4adns2db14schema_manager16update_or_createEv
   fun:main
}
{
   <insert_a_suppression_name_here>
   Memcheck:Free
   fun:free
   fun:_ZN4adns2db5table13create_staticERNS0_10connectionE
   fun:_ZN4adns2db14schema_manager6createERNS0_10connectionE
   fun:_ZN4adns2db14schema_manager16update_or_createEv
   fun:main
}
{
   <insert_a_suppression_name_here>
   Memcheck:Free
   fun:free
   fun:_ZN4adns2db5table13create_staticERNS0_10connectionE
   fun:_ZN4adns2db14schema_manager6createERNS0_10connectionE
   fun:_ZN4adns2db14schema_manager16update_or_createEv
   fun:main
}
{
   <insert_a_suppression_name_here>
   Memcheck:Free
   fun:free
   fun:_ZN4adns2db5table13create_staticERNS0_10connectionE
   fun:_ZN4adns2db14schema_manager6createERNS0_10connectionE
   fun:_ZN4adns2db14schema_manager16update_or_createEv
   fun:main
}
{
   <insert_a_suppression_name_here>
   Memcheck:Free
   fun:free
   fun:_ZN4adns2db5table13create_staticERNS0_10connectionE
   fun:_ZN4adns2db14schema_manager6createERNS0_10connectionE
   fun:_ZN4adns2db14schema_manager16update_or_createEv
   fun:main
}
{
   <insert_a_suppression_name_here>
   Memcheck:Free
   fun:free
   fun:_ZN4adns2db5table13create_staticERNS0_10connectionE
   fun:_ZN4adns2db14schema_manager6createERNS0_10connectionE
   fun:_ZN4adns2db14schema_manager16update_or_createEv
   fun:main
}
{
   <insert_a_suppression_name_here>
   Memcheck:Free
   fun:free
   fun:_ZN4adns2db5table13create_staticERNS0_10connectionE
   fun:_ZN4adns2db14schema_manager6createERNS0_10connectionE
   fun:_ZN4adns2db14schema_manager16update_or_createEv
   fun:main
}
{
   <insert_a_suppression_name_here>
   Memcheck:Free
   fun:free
   fun:_ZN4adns2db5table13create_staticERNS0_10connectionE
   fun:_ZN4adns2db14schema_manager6createERNS0_10connectionE
   fun:_ZN4adns2db14schema_manager16update_or_createEv
   fun:main
}
{
   <insert_a_suppression_name_here>
   Memcheck:Free
   fun:free
   fun:_ZN4adns2db5table13create_staticERNS0_10connectionE
   fun:_ZN4adns2db14schema_manager6createERNS0_10connectionE
   fun:_ZN4adns2db14schema_manager16update_or_createEv
   fun:main
}
{
   <insert_a_suppression_name_here>
   Memcheck:Free
   fun:free
   fun:_ZN4adns2db5table13create_staticERNS0_10connectionE
   fun:_ZN4adns2db14schema_manager6createERNS0_10connectionE
   fun:_ZN4adns2db14schema_manager16update_or_createEv
   fun:main
}
{
   <insert_a_suppression_name_here>
   Memcheck:Free
   fun:free
   fun:_ZN4adns2db5table13create_staticERNS0_10connectionE
   fun:_ZN4adns2db14schema_manager6createERNS0_10connectionE
   fun:_ZN4adns2db14schema_manager16update_or_createEv
   fun:main
}
{
   <insert_a_suppression_name_here>
   Memcheck:Free
   fun:free
   fun:_ZN4adns2db5table13create_staticERNS0_10connectionE
   fun:_ZN4adns2db14schema_manager6createERNS0_10connectionE
   fun:_ZN4adns2db14schema_manager16update_or_createEv
   fun:main
}
{
   <insert_a_suppression_name_here>
   Memcheck:Free
   fun:free
   fun:_ZN4argo5lexerD1Ev
   fun:_ZN4argo6parser5parseEv
   fun:_ZN4argo6parser5parseERSi
   fun:_ZN4argo6parser5parseERKNSt7__cxx1112basic_stringIcSt11char_traitsIcESaIcEEE
   fun:_ZN4adns2db18mongodb_row_helper12create_indexERNS0_10connectionERKNSt7__cxx1112basic_stringIcSt11char_traitsIcESaIcEEE
   fun:_ZN4adns2db14schema_manager6createERNS0_10connectionE
   fun:_ZN4adns2db14schema_manager16update_or_createEv
   fun:main
}
{
   <insert_a_suppression_name_here>
   Memcheck:Free
   fun:free
   fun:_ZN4argo5tokenD1Ev
   fun:_ZN4argo5lexerD1Ev
   fun:_ZN4argo6parser5parseEv
   fun:_ZN4argo6parser5parseERSi
   fun:_ZN4argo6parser5parseERKNSt7__cxx1112basic_stringIcSt11char_traitsIcESaIcEEE
   fun:_ZN4adns2db18mongodb_row_helper12create_indexERNS0_10connectionERKNSt7__cxx1112basic_stringIcSt11char_traitsIcESaIcEEE
   fun:_ZN4adns2db14schema_manager6createERNS0_10connectionE
   fun:_ZN4adns2db14schema_manager16update_or_createEv
   fun:main
}
{
   <insert_a_suppression_name_here>
   Memcheck:Free
   fun:free
   fun:_ZNSt7__cxx1119basic_istringstreamIcSt11char_traitsIcESaIcEED1Ev
   fun:_ZN4argo6parser5parseERKNSt7__cxx1112basic_stringIcSt11char_traitsIcESaIcEEE
   fun:_ZN4adns2db18mongodb_row_helper12create_indexERNS0_10connectionERKNSt7__cxx1112basic_stringIcSt11char_traitsIcESaIcEEE
   fun:_ZN4adns2db14schema_manager6createERNS0_10connectionE
   fun:_ZN4adns2db14schema_manager16update_or_createEv
   fun:main
}
{
   <insert_a_suppression_name_here>
   Memcheck:Free
   fun:free
   fun:_ZN4adns2db18mongodb_row_helper12create_indexERNS0_10connectionERKNSt7__cxx1112basic_stringIcSt11char_traitsIcESaIcEEE
   fun:_ZN4adns2db14schema_manager6createERNS0_10connectionE
   fun:_ZN4adns2db14schema_manager16update_or_createEv
   fun:main
}
{
   <insert_a_suppression_name_here>
   Memcheck:Free
   fun:free
   fun:_ZN4adns2db14schema_manager6createERNS0_10connectionE
   fun:_ZN4adns2db14schema_manager16update_or_createEv
   fun:main
}
{
   <insert_a_suppression_name_here>
   Memcheck:Free
   fun:free
   fun:_ZN9__gnu_cxx13new_allocatorISt10_List_nodeINSt7__cxx1112basic_stringIcSt11char_traitsIcESaIcEEEEE7destroyIS7_EEvPT_
   fun:_ZNSt16allocator_traitsISaISt10_List_nodeINSt7__cxx1112basic_stringIcSt11char_traitsIcESaIcEEEEEE7destroyIS6_EEvRS8_PT_
   fun:_ZNSt7__cxx1110_List_baseINS_12basic_stringIcSt11char_traitsIcESaIcEEESaIS5_EE8_M_clearEv
   fun:_ZNSt7__cxx1110_List_baseINS_12basic_stringIcSt11char_traitsIcESaIcEEESaIS5_EED1Ev
   fun:_ZNSt7__cxx114listINS_12basic_stringIcSt11char_traitsIcESaIcEEESaIS5_EED1Ev
   fun:_ZNSt4pairIN4adns2db5table7table_tENSt7__cxx114listINS4_12basic_stringIcSt11char_traitsIcESaIcEEESaISA_EEEED1Ev
   fun:_ZN4adns2db14schema_manager6createERNS0_10connectionE
   fun:_ZN4adns2db14schema_manager16update_or_createEv
   fun:main
}
{
   <insert_a_suppression_name_here>
   Memcheck:Free
   fun:free
   fun:_ZN9__gnu_cxx13new_allocatorISt10_List_nodeINSt7__cxx1112basic_stringIcSt11char_traitsIcESaIcEEEEE10deallocateEPS8_m
   fun:_ZNSt16allocator_traitsISaISt10_List_nodeINSt7__cxx1112basic_stringIcSt11char_traitsIcESaIcEEEEEE10deallocateERS8_PS7_m
   fun:_ZNSt7__cxx1110_List_baseINS_12basic_stringIcSt11char_traitsIcESaIcEEESaIS5_EE11_M_put_nodeEPSt10_List_nodeIS5_E
   fun:_ZNSt7__cxx1110_List_baseINS_12basic_stringIcSt11char_traitsIcESaIcEEESaIS5_EE8_M_clearEv
   fun:_ZNSt7__cxx1110_List_baseINS_12basic_stringIcSt11char_traitsIcESaIcEEESaIS5_EED1Ev
   fun:_ZNSt7__cxx114listINS_12basic_stringIcSt11char_traitsIcESaIcEEESaIS5_EED1Ev
   fun:_ZNSt4pairIN4adns2db5table7table_tENSt7__cxx114listINS4_12basic_stringIcSt11char_traitsIcESaIcEEESaISA_EEEED1Ev
   fun:_ZN4adns2db14schema_manager6createERNS0_10connectionE
   fun:_ZN4adns2db14schema_manager16update_or_createEv
   fun:main
}
{
   <insert_a_suppression_name_here>
   Memcheck:Free
   fun:free
   fun:_ZN4adns2db18mongodb_row_helper12create_indexERNS0_10connectionERKNSt7__cxx1112basic_stringIcSt11char_traitsIcESaIcEEE
   fun:_ZN4adns2db14schema_manager6createERNS0_10connectionE
   fun:_ZN4adns2db14schema_manager16update_or_createEv
   fun:main
}
{
   <insert_a_suppression_name_here>
   Memcheck:Free
   fun:free
   fun:_ZN9__gnu_cxx13new_allocatorISt10_List_nodeISt4pairIN4adns2db5table7table_tENSt7__cxx114listINS7_12basic_stringIcSt11char_traitsIcESaIcEEESaISD_EEEEEE10deallocateEPSH_m
   fun:_ZNSt16allocator_traitsISaISt10_List_nodeISt4pairIN4adns2db5table7table_tENSt7__cxx114listINS6_12basic_stringIcSt11char_traitsIcESaIcEEESaISC_EEEEEEE10deallocateERSH_PSG_m
   fun:_ZNSt7__cxx1110_List_baseISt4pairIN4adns2db5table7table_tENS_4listINS_12basic_stringIcSt11char_traitsIcESaIcEEESaISB_EEEESaISE_EE11_M_put_nodeEPSt10_List_nodeISE_E
   fun:_ZNSt7__cxx1110_List_baseISt4pairIN4adns2db5table7table_tENS_4listINS_12basic_stringIcSt11char_traitsIcESaIcEEESaISB_EEEESaISE_EE8_M_clearEv
   fun:_ZNSt7__cxx1110_List_baseISt4pairIN4adns2db5table7table_tENS_4listINS_12basic_stringIcSt11char_traitsIcESaIcEEESaISB_EEEESaISE_EED1Ev
   fun:_ZNSt7__cxx114listISt4pairIN4adns2db5table7table_tENS0_INS_12basic_stringIcSt11char_traitsIcESaIcEEESaISA_EEEESaISD_EED1Ev
   fun:_ZN4adns2db14schema_manager6createERNS0_10connectionE
   fun:_ZN4adns2db14schema_manager16update_or_createEv
   fun:main
}
{
   <insert_a_suppression_name_here>
   Memcheck:Free
   fun:free
   fun:_ZN4argo6parser5parseEPKc
   fun:_ZN4adns2db18mongodb_row_helper10fetch_rowsERNS0_10connectionERKNS0_3rowE
   fun:_ZN4adns2db3row10fetch_rowsERNS0_10connectionE
   fun:_ZN4adns2db10row_server8get_rowsERNS0_10connectionE
   fun:_ZN4adns13config_reader4readEv
   fun:_ZN4adns6config11init_configEv
   fun:main
}
{
   <insert_a_suppression_name_here>
   Memcheck:Free
   fun:free
   fun:_ZN9__gnu_cxx13new_allocatorIPN4adns2db3rowEE10deallocateEPS4_m
   fun:_ZNSt16allocator_traitsISaIPN4adns2db3rowEEE10deallocateERS4_PS3_m
   fun:_ZNSt12_Vector_baseIPN4adns2db3rowESaIS3_EE13_M_deallocateEPS3_m
   fun:_ZNSt6vectorIPN4adns2db3rowESaIS3_EE17_M_realloc_insertIJRKS3_EEEvN9__gnu_cxx17__normal_iteratorIPS3_S5_EEDpOT_
   fun:_ZNSt6vectorIPN4adns2db3rowESaIS3_EE9push_backERKS3_
   fun:_ZN4adns2db18mongodb_row_helper10fetch_rowsERNS0_10connectionERKNS0_3rowE
   fun:_ZN4adns2db3row10fetch_rowsERNS0_10connectionE
   fun:_ZN4adns2db10row_server8get_rowsERNS0_10connectionE
   fun:_ZN4adns13config_reader4readEv
   fun:_ZN4adns6config11init_configEv
   fun:main
}
{
   <insert_a_suppression_name_here>
   Memcheck:Free
   fun:free
   fun:_ZN4argo6parser21parse_name_value_pairERNS_5lexerERSt10unique_ptrINS_4jsonESt14default_deleteIS4_EEm
   fun:_ZN4argo6parser12parse_objectERNS_5lexerEm
   fun:_ZN4argo6parser11parse_valueERNS_5lexerEm
   fun:_ZN4argo6parser5parseEv
   fun:_ZN4argo6parser5parseERSi
   fun:_ZN4argo6parser5parseEPKc
   fun:_ZN4adns2db18mongodb_row_helper10fetch_rowsERNS0_10connectionERKNS0_6columnEjRKNS0_3rowE
   fun:_ZN4adns2db3row10fetch_rowsERNS0_10connectionERKNS0_6columnEj
   fun:_ZN4adns2db25row_server_socket_address16get_by_server_idERNS0_10connectionEj
   fun:_ZN4adns13config_reader4readEv
   fun:_ZN4adns6config11init_configEv
}
{
   <insert_a_suppression_name_here>
   Memcheck:Free
   fun:free
   fun:_ZN9__gnu_cxx13new_allocatorISt13_Rb_tree_nodeISt4pairIKN4adns2db6type_tENSt7__cxx114listIS2_INS4_5table7table_tENS8_INS7_12basic_stringIcSt11char_traitsIcESaIcEEESaISF_EEEESaISI_EEEEEE10deallocateEPSM_m
   fun:_ZNSt16allocator_traitsISaISt13_Rb_tree_nodeISt4pairIKN4adns2db6type_tENSt7__cxx114listIS1_INS3_5table7table_tENS7_INS6_12basic_stringIcSt11char_traitsIcESaIcEEESaISE_EEEESaISH_EEEEEEE10deallocateERSM_PSL_m
   fun:_ZNSt8_Rb_treeIN4adns2db6type_tESt4pairIKS2_NSt7__cxx114listIS3_INS1_5table7table_tENS6_INS5_12basic_stringIcSt11char_traitsIcESaIcEEESaISD_EEEESaISG_EEEESt10_Select1stISJ_ESt4lessIS2_ESaISJ_EE11_M_put_nodeEPSt13_Rb_tree_nodeISJ_E
   fun:_ZNSt8_Rb_treeIN4adns2db6type_tESt4pairIKS2_NSt7__cxx114listIS3_INS1_5table7table_tENS6_INS5_12basic_stringIcSt11char_traitsIcESaIcEEESaISD_EEEESaISG_EEEESt10_Select1stISJ_ESt4lessIS2_ESaISJ_EE12_M_drop_nodeEPSt13_Rb_tree_nodeISJ_E
   fun:_ZNSt8_Rb_treeIN4adns2db6type_tESt4pairIKS2_NSt7__cxx114listIS3_INS1_5table7table_tENS6_INS5_12basic_stringIcSt11char_traitsIcESaIcEEESaISD_EEEESaISG_EEEESt10_Select1stISJ_ESt4lessIS2_ESaISJ_EE8_M_eraseEPSt13_Rb_tree_nodeISJ_E
   fun:_ZNSt8_Rb_treeIN4adns2db6type_tESt4pairIKS2_NSt7__cxx114listIS3_INS1_5table7table_tENS6_INS5_12basic_stringIcSt11char_traitsIcESaIcEEESaISD_EEEESaISG_EEEESt10_Select1stISJ_ESt4lessIS2_ESaISJ_EE8_M_eraseEPSt13_Rb_tree_nodeISJ_E
   fun:_ZNSt8_Rb_treeIN4adns2db6type_tESt4pairIKS2_NSt7__cxx114listIS3_INS1_5table7table_tENS6_INS5_12basic_stringIcSt11char_traitsIcESaIcEEESaISD_EEEESaISG_EEEESt10_Select1stISJ_ESt4lessIS2_ESaISJ_EED1Ev
   fun:_ZNSt3mapIN4adns2db6type_tENSt7__cxx114listISt4pairINS1_5table7table_tENS4_INS3_12basic_stringIcSt11char_traitsIcESaIcEEESaISC_EEEESaISF_EEESt4lessIS2_ESaIS5_IKS2_SH_EEED1Ev
   fun:__run_exit_handlers
   fun:exit
   fun:main
}
{
   <insert_a_suppression_name_here>
   Memcheck:Free
   fun:free
   fun:_ZN9__gnu_cxx13new_allocatorISt13_Rb_tree_nodeISt4pairIKN4adns2db6type_tENSt7__cxx114listIS2_INS4_5table7table_tENS7_12basic_stringIcSt11char_traitsIcESaIcEEEESaISG_EEEEEE10deallocateEPSK_m
   fun:_ZNSt16allocator_traitsISaISt13_Rb_tree_nodeISt4pairIKN4adns2db6type_tENSt7__cxx114listIS1_INS3_5table7table_tENS6_12basic_stringIcSt11char_traitsIcESaIcEEEESaISF_EEEEEEE10deallocateERSK_PSJ_m
   fun:_ZNSt8_Rb_treeIN4adns2db6type_tESt4pairIKS2_NSt7__cxx114listIS3_INS1_5table7table_tENS5_12basic_stringIcSt11char_traitsIcESaIcEEEESaISE_EEEESt10_Select1stISH_ESt4lessIS2_ESaISH_EE11_M_put_nodeEPSt13_Rb_tree_nodeISH_E
   fun:_ZNSt8_Rb_treeIN4adns2db6type_tESt4pairIKS2_NSt7__cxx114listIS3_INS1_5table7table_tENS5_12basic_stringIcSt11char_traitsIcESaIcEEEESaISE_EEEESt10_Select1stISH_ESt4lessIS2_ESaISH_EE12_M_drop_nodeEPSt13_Rb_tree_nodeISH_E
   fun:_ZNSt8_Rb_treeIN4adns2db6type_tESt4pairIKS2_NSt7__cxx114listIS3_INS1_5table7table_tENS5_12basic_stringIcSt11char_traitsIcESaIcEEEESaISE_EEEESt10_Select1stISH_ESt4lessIS2_ESaISH_EE8_M_eraseEPSt13_Rb_tree_nodeISH_E
   fun:_ZNSt8_Rb_treeIN4adns2db6type_tESt4pairIKS2_NSt7__cxx114listIS3_INS1_5table7table_tENS5_12basic_stringIcSt11char_traitsIcESaIcEEEESaISE_EEEESt10_Select1stISH_ESt4lessIS2_ESaISH_EE8_M_eraseEPSt13_Rb_tree_nodeISH_E
   fun:_ZNSt8_Rb_treeIN4adns2db6type_tESt4pairIKS2_NSt7__cxx114listIS3_INS1_5table7table_tENS5_12basic_stringIcSt11char_traitsIcESaIcEEEESaISE_EEEESt10_Select1stISH_ESt4lessIS2_ESaISH_EED1Ev
   fun:_ZNSt3mapIN4adns2db6type_tENSt7__cxx114listISt4pairINS1_5table7table_tENS3_12basic_stringIcSt11char_traitsIcESaIcEEEESaISD_EEESt4lessIS2_ESaIS5_IKS2_SF_EEED1Ev
   fun:__run_exit_handlers
   fun:exit
   fun:main
}
